TN:
SF:/home/fz296w/workspace/Nexus/Nexus/include/nexus/core/Message.h
FN:62,_ZN5Nexus3rpc13MessagePacket10packetSizeEmmm
FN:67,_ZNK5Nexus3rpc13MessagePacket8getGroupEv
FN:70,_ZN5Nexus3rpc13MessagePacket8getGroupEv
FN:75,_ZNK5Nexus3rpc13MessagePacket8getTopicEv
FN:78,_ZN5Nexus3rpc13MessagePacket8getTopicEv
FN:83,_ZNK5Nexus3rpc13MessagePacket10getPayloadEv
FN:86,_ZN5Nexus3rpc13MessagePacket10getPayloadEv
FN:91,_ZNK5Nexus3rpc13MessagePacket17calculateChecksumEv
FN:117,_ZNK5Nexus3rpc13MessagePacket7isValidEv
FN:157,_ZN5Nexus3rpc14MessageBuilder5buildERKNSt7__cxx1112basic_stringIcSt11char_traitsIcESaIcEEES9_S9_S9_tNS0_11MessageTypeE
FN:164,_ZN5Nexus3rpc14MessageBuilder5buildERKNSt7__cxx1112basic_stringIcSt11char_traitsIcESaIcEEES9_S9_PKhmtNS0_11MessageTypeE
FNDA:10755,_ZN5Nexus3rpc13MessagePacket8getTopicEv
FNDA:10755,_ZN5Nexus3rpc13MessagePacket8getGroupEv
FNDA:10751,_ZN5Nexus3rpc14MessageBuilder5buildERKNSt7__cxx1112basic_stringIcSt11char_traitsIcESaIcEEES9_S9_PKhmtNS0_11MessageTypeE
FNDA:10426,_ZN5Nexus3rpc14MessageBuilder5buildERKNSt7__cxx1112basic_stringIcSt11char_traitsIcESaIcEEES9_S9_S9_tNS0_11MessageTypeE
FNDA:10871,_ZN5Nexus3rpc13MessagePacket10packetSizeEmmm
FNDA:609,_ZNK5Nexus3rpc13MessagePacket7isValidEv
FNDA:440,_ZNK5Nexus3rpc13MessagePacket8getTopicEv
FNDA:11479,_ZNK5Nexus3rpc13MessagePacket17calculateChecksumEv
FNDA:549,_ZNK5Nexus3rpc13MessagePacket10getPayloadEv
FNDA:10859,_ZN5Nexus3rpc13MessagePacket10getPayloadEv
FNDA:440,_ZNK5Nexus3rpc13MessagePacket8getGroupEv
FNF:11
FNH:11
DA:62,10871
DA:63,10871
DA:67,440
DA:68,440
DA:70,10755
DA:71,10755
DA:75,440
DA:76,440
DA:78,10755
DA:79,10755
DA:83,549
DA:84,549
DA:86,10859
DA:87,10859
DA:91,11479
DA:92,11479
DA:93,11479
DA:94,11479
DA:95,11479
DA:96,11479
DA:97,11479
DA:98,11479
DA:99,11479
DA:102,230034
DA:103,218555
DA:107,11479
DA:108,11479
DA:109,515703
DA:110,504224
DA:113,11479
DA:117,609
DA:118,609
DA:119,5
DA:120,604
DA:121,0
DA:122,604
DA:123,0
DA:124,604
DA:125,0
DA:126,604
DA:127,0
DA:128,604
DA:157,10426
DA:160,10426
DA:161,20852
DA:164,10751
DA:167,10751
DA:168,10751
DA:170,10751
DA:171,10751
DA:172,10751
DA:173,10751
DA:174,10751
DA:175,10751
DA:176,10751
DA:177,10751
DA:178,10751
DA:181,10751
DA:182,10751
DA:185,10751
DA:186,10751
DA:187,10751
DA:190,10751
DA:192,10751
LF:64
LH:60
end_of_record
TN:
SF:/home/fz296w/workspace/Nexus/Nexus/include/nexus/core/Node.h
FN:46,_ZN5Nexus3rpc17ServiceDescriptorC2Ev
FN:49,_ZNK5Nexus3rpc17ServiceDescriptor13getCapabilityB5cxx11Ev
FN:128,_ZN5Nexus3rpc4NodeD0Ev
FN:128,_ZN5Nexus3rpc4NodeD2Ev
FNDA:83,_ZN5Nexus3rpc4NodeD2Ev
FNDA:148,_ZNK5Nexus3rpc17ServiceDescriptor13getCapabilityB5cxx11Ev
FNDA:204,_ZN5Nexus3rpc17ServiceDescriptorC2Ev
FNDA:0,_ZN5Nexus3rpc4NodeD0Ev
FNF:4
FNH:3
DA:46,204
DA:49,148
DA:50,148
DA:51,8
DA:53,288
DA:128,83
LF:6
LH:6
end_of_record
TN:
SF:/home/fz296w/workspace/Nexus/Nexus/include/nexus/core/NodeImpl.h
FN:81,_ZNK5Nexus3rpc8NodeImpl9getNodeIdB5cxx11Ev
FNDA:30610,_ZNK5Nexus3rpc8NodeImpl9getNodeIdB5cxx11Ev
FNF:1
FNH:1
DA:81,30610
LF:1
LH:1
end_of_record
TN:
SF:/home/fz296w/workspace/Nexus/Nexus/include/nexus/registry/GlobalRegistry.h
FN:42,_ZN5Nexus3rpc14GlobalRegistryC2Ev
FN:43,_ZN5Nexus3rpc14GlobalRegistryD2Ev
FNDA:12,_ZN5Nexus3rpc14GlobalRegistryC2Ev
FNDA:12,_ZN5Nexus3rpc14GlobalRegistryD2Ev
FNF:2
FNH:2
DA:42,12
DA:43,12
LF:2
LH:2
end_of_record
TN:
SF:/home/fz296w/workspace/Nexus/Nexus/include/nexus/registry/SharedMemoryRegistry.h
FN:28,_ZN5Nexus3rpc8NodeInfoC2Ev
FN:186,_ZN5Nexus3rpc20SharedMemoryRegistry12RegistryLockC2EP15pthread_mutex_ti
FN:211,_ZN5Nexus3rpc20SharedMemoryRegistry12RegistryLockD2Ev
FN:221,_ZNK5Nexus3rpc20SharedMemoryRegistry12RegistryLock8isLockedEv
FNDA:13261,_ZN5Nexus3rpc20SharedMemoryRegistry12RegistryLockD2Ev
FNDA:13261,_ZN5Nexus3rpc20SharedMemoryRegistry12RegistryLockC2EP15pthread_mutex_ti
FNDA:13261,_ZNK5Nexus3rpc20SharedMemoryRegistry12RegistryLock8isLockedEv
FNDA:32163,_ZN5Nexus3rpc8NodeInfoC2Ev
FNF:4
FNH:4
DA:28,32163
DA:186,13261
DA:189,13261
DA:191,13261
DA:192,13261
DA:193,13261
DA:194,13261
DA:195,13261
DA:196,0
DA:197,0
DA:200,13261
DA:201,13261
DA:202,0
DA:203,0
DA:204,13261
DA:205,13259
DA:209,13261
DA:211,13261
DA:212,13261
DA:213,13259
DA:219,13261
DA:221,13261
LF:22
LH:18
end_of_record
TN:
SF:/home/fz296w/workspace/Nexus/Nexus/include/nexus/transport/LargeDataChannel.h
FN:47,_ZN5Nexus3rpc10ReaderSlotC2Ev
FN:72,_ZN5Nexus3rpc17RingBufferControlC2Ev
FN:114,_ZN5Nexus3rpc16LargeDataChannel6ConfigC2Ev
FN:140,_ZN5Nexus3rpc16LargeDataChannel9DataBlockC2Ev
FN:142,_ZNK5Nexus3rpc16LargeDataChannel9DataBlock7isValidEv
FN:146,_ZNK5Nexus3rpc16LargeDataChannel9DataBlock8getTopicB5cxx11Ev
FNDA:6,_ZN5Nexus3rpc17RingBufferControlC2Ev
FNDA:24,_ZN5Nexus3rpc16LargeDataChannel6ConfigC2Ev
FNDA:3,_ZNK5Nexus3rpc16LargeDataChannel9DataBlock8getTopicB5cxx11Ev
FNDA:10,_ZNK5Nexus3rpc16LargeDataChannel9DataBlock7isValidEv
FNDA:17,_ZN5Nexus3rpc16LargeDataChannel9DataBlockC2Ev
FNDA:96,_ZN5Nexus3rpc10ReaderSlotC2Ev
FNF:6
FNH:6
DA:47,96
DA:72,6
DA:73,6
DA:74,6
DA:75,6
DA:76,6
DA:77,6
DA:78,6
DA:79,6
DA:80,6
DA:81,102
DA:82,6
DA:83,6
DA:84,6
DA:114,24
DA:115,24
DA:116,24
DA:117,24
DA:118,24
DA:119,24
DA:120,24
DA:140,17
DA:142,10
DA:143,10
DA:146,3
LF:25
LH:25
end_of_record
TN:
SF:/home/fz296w/workspace/Nexus/Nexus/include/nexus/transport/LockFreeQueue.h
FN:35,_ZN5Nexus3rpc18LockFreeRingBufferILm1024EEC2Ev
FN:35,_ZN5Nexus3rpc18LockFreeRingBufferILm4EEC2Ev
FN:35,_ZN5Nexus3rpc18LockFreeRingBufferILm16EEC2Ev
FN:50,_ZN5Nexus3rpc18LockFreeRingBufferILm4EE8tryWriteEPKcPKhm
FN:50,_ZN5Nexus3rpc18LockFreeRingBufferILm1024EE8tryWriteEPKcPKhm
FN:50,_ZN5Nexus3rpc18LockFreeRingBufferILm256EE8tryWriteEPKcPKhm
FN:50,_ZN5Nexus3rpc18LockFreeRingBufferILm16EE8tryWriteEPKcPKhm
FN:91,_ZN5Nexus3rpc18LockFreeRingBufferILm16EE7tryReadEPcPhRm
FN:91,_ZN5Nexus3rpc18LockFreeRingBufferILm1024EE7tryReadEPcPhRm
FN:91,_ZN5Nexus3rpc18LockFreeRingBufferILm4EE7tryReadEPcPhRm
FN:91,_ZN5Nexus3rpc18LockFreeRingBufferILm64EE7tryReadEPcPhRm
FN:91,_ZN5Nexus3rpc18LockFreeRingBufferILm256EE7tryReadEPcPhRm
FN:120,_ZNK5Nexus3rpc18LockFreeRingBufferILm64EE4sizeEv
FN:120,_ZNK5Nexus3rpc18LockFreeRingBufferILm256EE4sizeEv
FNDA:6,_ZN5Nexus3rpc18LockFreeRingBufferILm16EE8tryWriteEPKcPKhm
FNDA:3,_ZN5Nexus3rpc18LockFreeRingBufferILm4EEC2Ev
FNDA:15,_ZN5Nexus3rpc18LockFreeRingBufferILm4EE7tryReadEPcPhRm
FNDA:3,_ZN5Nexus3rpc18LockFreeRingBufferILm16EEC2Ev
FNDA:334,_ZN5Nexus3rpc18LockFreeRingBufferILm64EE7tryReadEPcPhRm
FNDA:1405,_ZN5Nexus3rpc18LockFreeRingBufferILm256EE7tryReadEPcPhRm
FNDA:6,_ZNK5Nexus3rpc18LockFreeRingBufferILm256EE4sizeEv
FNDA:1256,_ZN5Nexus3rpc18LockFreeRingBufferILm256EE8tryWriteEPKcPKhm
FNDA:6,_ZNK5Nexus3rpc18LockFreeRingBufferILm64EE4sizeEv
FNDA:3000,_ZN5Nexus3rpc18LockFreeRingBufferILm1024EE8tryWriteEPKcPKhm
FNDA:12,_ZN5Nexus3rpc18LockFreeRingBufferILm16EE7tryReadEPcPhRm
FNDA:3089,_ZN5Nexus3rpc18LockFreeRingBufferILm1024EE7tryReadEPcPhRm
FNDA:3,_ZN5Nexus3rpc18LockFreeRingBufferILm1024EEC2Ev
FNDA:15,_ZN5Nexus3rpc18LockFreeRingBufferILm4EE8tryWriteEPKcPKhm
FNF:14
FNH:14
DA:35,9
DA:36,9
DA:37,9
DA:38,9
DA:39,9
DA:40,9
DA:41,9
DA:50,4277
DA:51,4277
DA:52,0
DA:56,4277
DA:57,4277
DA:60,4277
DA:61,4277
DA:63,91
DA:64,91
DA:68,4277
DA:69,4277
DA:71,4277
DA:72,4277
DA:73,4277
DA:74,4277
DA:78,4277
DA:80,4277
DA:81,4277
DA:91,4855
DA:93,4855
DA:94,4855
DA:97,4855
DA:98,687
DA:102,4168
DA:103,4168
DA:105,4168
DA:106,4168
DA:107,4168
DA:111,4168
DA:113,4168
DA:114,4168
DA:120,12
DA:121,12
DA:122,12
DA:123,12
LF:42
LH:41
end_of_record
TN:
SF:/home/fz296w/workspace/Nexus/Nexus/include/nexus/transport/SharedMemoryTransportV3.h
FN:63,_ZN5Nexus3rpc23SharedMemoryTransportV36ConfigC2Ev
FN:124,_ZNK5Nexus3rpc23SharedMemoryTransportV313isInitializedEv
FN:130,_ZN5Nexus3rpc23SharedMemoryTransportV311setNodeImplEPNS0_8NodeImplE
FN:258,_ZN5Nexus3rpc23SharedMemoryTransportV316RemoteConnectionC2Ev
FNDA:370,_ZN5Nexus3rpc23SharedMemoryTransportV36ConfigC2Ev
FNDA:21160,_ZNK5Nexus3rpc23SharedMemoryTransportV313isInitializedEv
FNDA:247,_ZN5Nexus3rpc23SharedMemoryTransportV316RemoteConnectionC2Ev
FNDA:78,_ZN5Nexus3rpc23SharedMemoryTransportV311setNodeImplEPNS0_8NodeImplE
FNF:4
FNH:4
DA:63,370
DA:64,370
DA:65,370
DA:67,370
DA:68,370
DA:69,370
DA:70,370
DA:124,21160
DA:130,78
DA:258,247
LF:10
LH:10
end_of_record
TN:
SF:/home/fz296w/workspace/Nexus/Nexus/include/nexus/transport/UdpTransport.h
FN:65,_ZNK5Nexus3rpc12UdpTransport7getPortEv
FN:71,_ZNK5Nexus3rpc12UdpTransport13isInitializedEv
FNDA:103,_ZNK5Nexus3rpc12UdpTransport13isInitializedEv
FNDA:128,_ZNK5Nexus3rpc12UdpTransport7getPortEv
FNF:2
FNH:2
DA:65,128
DA:71,103
LF:2
LH:2
end_of_record
TN:
SF:/home/fz296w/workspace/Nexus/Nexus/include/nexus/utils/Logger.h
FN:78,_ZN5Nexus3rpc9LogStreamC2ENS0_6Logger5LevelERKNSt7__cxx1112basic_stringIcSt11char_traitsIcESaIcEEE
FN:80,_ZN5Nexus3rpc9LogStreamD2Ev
FN:83,_ZN5Nexus3rpc9LogStreamlsIiEERS1_RKT_
FN:83,_ZN5Nexus3rpc9LogStreamlsIA9_cEERS1_RKT_
FN:83,_ZN5Nexus3rpc9LogStreamlsItEERS1_RKT_
FN:83,_ZN5Nexus3rpc9LogStreamlsIA28_cEERS1_RKT_
FN:83,_ZN5Nexus3rpc9LogStreamlsIA46_cEERS1_RKT_
FN:83,_ZN5Nexus3rpc9LogStreamlsIA21_cEERS1_RKT_
FN:83,_ZN5Nexus3rpc9LogStreamlsIA33_cEERS1_RKT_
FN:83,_ZN5Nexus3rpc9LogStreamlsIA45_cEERS1_RKT_
FN:83,_ZN5Nexus3rpc9LogStreamlsIPcEERS1_RKT_
FN:83,_ZN5Nexus3rpc9LogStreamlsIA11_cEERS1_RKT_
FN:83,_ZN5Nexus3rpc9LogStreamlsIA6_cEERS1_RKT_
FN:83,_ZN5Nexus3rpc9LogStreamlsIA4_cEERS1_RKT_
FN:83,_ZN5Nexus3rpc9LogStreamlsIA43_cEERS1_RKT_
FN:83,_ZN5Nexus3rpc9LogStreamlsIA64_cEERS1_RKT_
FN:83,_ZN5Nexus3rpc9LogStreamlsIA35_cEERS1_RKT_
FN:83,_ZN5Nexus3rpc9LogStreamlsIA30_cEERS1_RKT_
FN:83,_ZN5Nexus3rpc9LogStreamlsIA8_cEERS1_RKT_
FN:83,_ZN5Nexus3rpc9LogStreamlsIA53_cEERS1_RKT_
FN:83,_ZN5Nexus3rpc9LogStreamlsINSt7__cxx1112basic_stringIcSt11char_traitsIcESaIcEEEEERS1_RKT_
FN:83,_ZN5Nexus3rpc9LogStreamlsIA24_cEERS1_RKT_
FN:83,_ZN5Nexus3rpc9LogStreamlsIPKcEERS1_RKT_
FN:83,_ZN5Nexus3rpc9LogStreamlsIPvEERS1_RKT_
FN:83,_ZN5Nexus3rpc9LogStreamlsImEERS1_RKT_
FN:83,_ZN5Nexus3rpc9LogStreamlsIjEERS1_RKT_
FN:83,_ZN5Nexus3rpc9LogStreamlsIA36_cEERS1_RKT_
FN:83,_ZN5Nexus3rpc9LogStreamlsIbEERS1_RKT_
FN:83,_ZN5Nexus3rpc9LogStreamlsIA16_cEERS1_RKT_
FN:83,_ZN5Nexus3rpc9LogStreamlsIA20_cEERS1_RKT_
FN:83,_ZN5Nexus3rpc9LogStreamlsIA29_cEERS1_RKT_
FN:83,_ZN5Nexus3rpc9LogStreamlsIA14_cEERS1_RKT_
FN:83,_ZN5Nexus3rpc9LogStreamlsIA13_cEERS1_RKT_
FN:83,_ZN5Nexus3rpc9LogStreamlsIA27_cEERS1_RKT_
FN:83,_ZN5Nexus3rpc9LogStreamlsIA40_cEERS1_RKT_
FN:83,_ZN5Nexus3rpc9LogStreamlsIA34_cEERS1_RKT_
FN:83,_ZN5Nexus3rpc9LogStreamlsIA38_cEERS1_RKT_
FN:83,_ZN5Nexus3rpc9LogStreamlsIA7_cEERS1_RKT_
FN:83,_ZN5Nexus3rpc9LogStreamlsIA15_cEERS1_RKT_
FN:83,_ZN5Nexus3rpc9LogStreamlsIA41_cEERS1_RKT_
FN:83,_ZN5Nexus3rpc9LogStreamlsIA39_cEERS1_RKT_
FN:83,_ZN5Nexus3rpc9LogStreamlsIA54_cEERS1_RKT_
FN:83,_ZN5Nexus3rpc9LogStreamlsIA10_cEERS1_RKT_
FN:83,_ZN5Nexus3rpc9LogStreamlsIA22_cEERS1_RKT_
FN:83,_ZN5Nexus3rpc9LogStreamlsIA52_cEERS1_RKT_
FN:83,_ZN5Nexus3rpc9LogStreamlsIA47_cEERS1_RKT_
FN:83,_ZN5Nexus3rpc9LogStreamlsIA42_cEERS1_RKT_
FN:83,_ZN5Nexus3rpc9LogStreamlsIA32_cEERS1_RKT_
FN:83,_ZN5Nexus3rpc9LogStreamlsIA55_cEERS1_RKT_
FN:83,_ZN5Nexus3rpc9LogStreamlsIA26_cEERS1_RKT_
FN:83,_ZN5Nexus3rpc9LogStreamlsIlEERS1_RKT_
FN:83,_ZN5Nexus3rpc9LogStreamlsIA3_cEERS1_RKT_
FN:83,_ZN5Nexus3rpc9LogStreamlsIA44_cEERS1_RKT_
FN:83,_ZN5Nexus3rpc9LogStreamlsIA37_cEERS1_RKT_
FN:83,_ZN5Nexus3rpc9LogStreamlsIA31_cEERS1_RKT_
FN:83,_ZN5Nexus3rpc9LogStreamlsIA23_cEERS1_RKT_
FN:83,_ZN5Nexus3rpc9LogStreamlsIFRSt8ios_baseS4_EEERS1_RKT_
FN:83,_ZN5Nexus3rpc9LogStreamlsIA49_cEERS1_RKT_
FN:83,_ZN5Nexus3rpc9LogStreamlsIA48_cEERS1_RKT_
FN:83,_ZN5Nexus3rpc9LogStreamlsIA2_cEERS1_RKT_
FN:83,_ZN5Nexus3rpc9LogStreamlsIA19_cEERS1_RKT_
FN:83,_ZN5Nexus3rpc9LogStreamlsIA17_cEERS1_RKT_
FN:83,_ZN5Nexus3rpc9LogStreamlsIA25_cEERS1_RKT_
FN:83,_ZN5Nexus3rpc9LogStreamlsIA18_cEERS1_RKT_
FN:83,_ZN5Nexus3rpc9LogStreamlsIA12_cEERS1_RKT_
FN:83,_ZN5Nexus3rpc9LogStreamlsIA5_cEERS1_RKT_
FNDA:197,_ZN5Nexus3rpc9LogStreamlsIA27_cEERS1_RKT_
FNDA:347,_ZN5Nexus3rpc9LogStreamlsIA14_cEERS1_RKT_
FNDA:638,_ZN5Nexus3rpc9LogStreamlsIA13_cEERS1_RKT_
FNDA:441,_ZN5Nexus3rpc9LogStreamlsIA20_cEERS1_RKT_
FNDA:88,_ZN5Nexus3rpc9LogStreamlsIA29_cEERS1_RKT_
FNDA:283,_ZN5Nexus3rpc9LogStreamlsIbEERS1_RKT_
FNDA:309,_ZN5Nexus3rpc9LogStreamlsIA16_cEERS1_RKT_
FNDA:368,_ZN5Nexus3rpc9LogStreamlsIjEERS1_RKT_
FNDA:50,_ZN5Nexus3rpc9LogStreamlsIA36_cEERS1_RKT_
FNDA:390,_ZN5Nexus3rpc9LogStreamlsIPvEERS1_RKT_
FNDA:1438,_ZN5Nexus3rpc9LogStreamlsImEERS1_RKT_
FNDA:394,_ZN5Nexus3rpc9LogStreamlsIA8_cEERS1_RKT_
FNDA:34,_ZN5Nexus3rpc9LogStreamlsIA53_cEERS1_RKT_
FNDA:4528,_ZN5Nexus3rpc9LogStreamlsINSt7__cxx1112basic_stringIcSt11char_traitsIcESaIcEEEEERS1_RKT_
FNDA:610,_ZN5Nexus3rpc9LogStreamlsIA24_cEERS1_RKT_
FNDA:558,_ZN5Nexus3rpc9LogStreamlsIPKcEERS1_RKT_
FNDA:10,_ZN5Nexus3rpc9LogStreamlsIA43_cEERS1_RKT_
FNDA:217,_ZN5Nexus3rpc9LogStreamlsIA64_cEERS1_RKT_
FNDA:529,_ZN5Nexus3rpc9LogStreamlsIA35_cEERS1_RKT_
FNDA:6,_ZN5Nexus3rpc9LogStreamlsIA30_cEERS1_RKT_
FNDA:25,_ZN5Nexus3rpc9LogStreamlsIA4_cEERS1_RKT_
FNDA:5,_ZN5Nexus3rpc9LogStreamlsIPcEERS1_RKT_
FNDA:510,_ZN5Nexus3rpc9LogStreamlsIA11_cEERS1_RKT_
FNDA:382,_ZN5Nexus3rpc9LogStreamlsIA6_cEERS1_RKT_
FNDA:20,_ZN5Nexus3rpc9LogStreamlsIA33_cEERS1_RKT_
FNDA:98,_ZN5Nexus3rpc9LogStreamlsIA45_cEERS1_RKT_
FNDA:228,_ZN5Nexus3rpc9LogStreamlsIA21_cEERS1_RKT_
FNDA:235,_ZN5Nexus3rpc9LogStreamlsIA28_cEERS1_RKT_
FNDA:0,_ZN5Nexus3rpc9LogStreamlsIA46_cEERS1_RKT_
FNDA:117,_ZN5Nexus3rpc9LogStreamlsIA9_cEERS1_RKT_
FNDA:2,_ZN5Nexus3rpc9LogStreamlsItEERS1_RKT_
FNDA:1210,_ZN5Nexus3rpc9LogStreamlsIiEERS1_RKT_
FNDA:88,_ZN5Nexus3rpc9LogStreamlsIA18_cEERS1_RKT_
FNDA:185,_ZN5Nexus3rpc9LogStreamlsIA12_cEERS1_RKT_
FNDA:365,_ZN5Nexus3rpc9LogStreamlsIA5_cEERS1_RKT_
FNDA:188,_ZN5Nexus3rpc9LogStreamlsIA25_cEERS1_RKT_
FNDA:181,_ZN5Nexus3rpc9LogStreamlsIA17_cEERS1_RKT_
FNDA:4,_ZN5Nexus3rpc9LogStreamlsIA48_cEERS1_RKT_
FNDA:810,_ZN5Nexus3rpc9LogStreamlsIA19_cEERS1_RKT_
FNDA:1479,_ZN5Nexus3rpc9LogStreamlsIA2_cEERS1_RKT_
FNDA:170,_ZN5Nexus3rpc9LogStreamlsIA23_cEERS1_RKT_
FNDA:0,_ZN5Nexus3rpc9LogStreamlsIFRSt8ios_baseS4_EEERS1_RKT_
FNDA:0,_ZN5Nexus3rpc9LogStreamlsIA49_cEERS1_RKT_
FNDA:9,_ZN5Nexus3rpc9LogStreamlsIA37_cEERS1_RKT_
FNDA:206,_ZN5Nexus3rpc9LogStreamlsIA31_cEERS1_RKT_
FNDA:3,_ZN5Nexus3rpc9LogStreamlsIA44_cEERS1_RKT_
FNDA:5710,_ZN5Nexus3rpc9LogStreamD2Ev
FNDA:423,_ZN5Nexus3rpc9LogStreamlsIA3_cEERS1_RKT_
FNDA:13,_ZN5Nexus3rpc9LogStreamlsIlEERS1_RKT_
FNDA:201,_ZN5Nexus3rpc9LogStreamlsIA32_cEERS1_RKT_
FNDA:5,_ZN5Nexus3rpc9LogStreamlsIA55_cEERS1_RKT_
FNDA:453,_ZN5Nexus3rpc9LogStreamlsIA26_cEERS1_RKT_
FNDA:715,_ZN5Nexus3rpc9LogStreamlsIA22_cEERS1_RKT_
FNDA:0,_ZN5Nexus3rpc9LogStreamlsIA52_cEERS1_RKT_
FNDA:102,_ZN5Nexus3rpc9LogStreamlsIA47_cEERS1_RKT_
FNDA:55,_ZN5Nexus3rpc9LogStreamlsIA42_cEERS1_RKT_
FNDA:209,_ZN5Nexus3rpc9LogStreamlsIA39_cEERS1_RKT_
FNDA:69,_ZN5Nexus3rpc9LogStreamlsIA54_cEERS1_RKT_
FNDA:6,_ZN5Nexus3rpc9LogStreamlsIA10_cEERS1_RKT_
FNDA:195,_ZN5Nexus3rpc9LogStreamlsIA15_cEERS1_RKT_
FNDA:0,_ZN5Nexus3rpc9LogStreamlsIA41_cEERS1_RKT_
FNDA:5702,_ZN5Nexus3rpc9LogStreamC2ENS0_6Logger5LevelERKNSt7__cxx1112basic_stringIcSt11char_traitsIcESaIcEEE
FNDA:345,_ZN5Nexus3rpc9LogStreamlsIA38_cEERS1_RKT_
FNDA:302,_ZN5Nexus3rpc9LogStreamlsIA7_cEERS1_RKT_
FNDA:103,_ZN5Nexus3rpc9LogStreamlsIA40_cEERS1_RKT_
FNDA:121,_ZN5Nexus3rpc9LogStreamlsIA34_cEERS1_RKT_
FNF:66
FNH:61
DA:78,5702
DA:80,5710
DA:83,21272
DA:84,21272
DA:85,21281
LF:5
LH:5
end_of_record
TN:
SF:/home/fz296w/workspace/Nexus/Nexus/src/core/Config.cpp
FN:12,_ZN5Nexus3rpc12_GLOBAL__N_15clampImEERKT_S5_S5_S5_
FN:17,_ZN5Nexus3rpc6Config8instanceEv
FN:22,_ZN5Nexus3rpc6Config11loadFromEnvEv
FN:63,_ZNK5Nexus3rpc6Config24calculateMemoryFootprintEv
FNDA:5,_ZN5Nexus3rpc6Config11loadFromEnvEv
FNDA:2,_ZNK5Nexus3rpc6Config24calculateMemoryFootprintEv
FNDA:20489,_ZN5Nexus3rpc6Config8instanceEv
FNDA:7,_ZN5Nexus3rpc12_GLOBAL__N_15clampImEERKT_S5_S5_S5_
FNF:4
FNH:4
DA:12,7
DA:13,7
DA:17,20489
DA:19,20489
DA:22,5
DA:24,5
DA:25,2
DA:28,5
DA:29,2
DA:32,5
DA:33,3
DA:36,5
DA:37,3
DA:41,5
DA:42,0
DA:45,5
DA:46,0
DA:49,5
DA:50,0
DA:54,5
DA:55,0
DA:58,5
DA:59,0
DA:61,5
DA:63,2
DA:65,2
DA:68,2
DA:71,2
DA:73,2
LF:29
LH:24
end_of_record
TN:
SF:/home/fz296w/workspace/Nexus/Nexus/src/core/NodeImpl.cpp
FN:42,_ZN5Nexus3rpcL14generateNodeIdEv
FN:51,_ZN5Nexus3rpc8NodeImplC2ERKNSt7__cxx1112basic_stringIcSt11char_traitsIcESaIcEEEbtNS0_13TransportModeE
FN:60,_ZN5Nexus3rpc8NodeImplD2Ev
FN:60,_ZN5Nexus3rpc8NodeImplD0Ev
FN:105,_ZN5Nexus3rpc8NodeImpl10initializeEt
FN:139,_ZZN5Nexus3rpc8NodeImpl10initializeEtENKUlPKhmRKNSt7__cxx1112basic_stringIcSt11char_traitsIcESaIcEEEE_clES3_mSB_
FN:236,_ZZN5Nexus3rpc8NodeImpl10initializeEtENKUlPKhmRKNSt7__cxx1112basic_stringIcSt11char_traitsIcESaIcEEEE0_clES3_mSB_
FN:370,_ZN5Nexus3rpc8NodeImpl7publishERKNSt7__cxx1112basic_stringIcSt11char_traitsIcESaIcEEES9_S9_
FN:391,_ZN5Nexus3rpc8NodeImpl9subscribeERKNSt7__cxx1112basic_stringIcSt11char_traitsIcESaIcEEERKSt6vectorIS7_SaIS7_EERKSt8functionIFvS9_S9_PKhmEE
FN:454,_ZN5Nexus3rpc8NodeImpl11unsubscribeERKNSt7__cxx1112basic_stringIcSt11char_traitsIcESaIcEEERKSt6vectorIS7_SaIS7_EE
FN:528,_ZN5Nexus3rpc8NodeImpl13sendLargeDataERKNSt7__cxx1112basic_stringIcSt11char_traitsIcESaIcEEES9_S9_PKhm
FN:606,_ZN5Nexus3rpc8NodeImpl19getLargeDataChannelERKNSt7__cxx1112basic_stringIcSt11char_traitsIcESaIcEEE
FN:640,_ZNK5Nexus3rpc8NodeImpl12isSubscribedERKNSt7__cxx1112basic_stringIcSt11char_traitsIcESaIcEEES9_
FN:651,_ZNK5Nexus3rpc8NodeImpl10getUdpPortEv
FN:658,_ZN5Nexus3rpc8NodeImpl13handleMessageERKNSt7__cxx1112basic_stringIcSt11char_traitsIcESaIcEEES9_S9_PKhm
FN:664,_ZN5Nexus3rpc8NodeImpl16deliverInProcessERKNSt7__cxx1112basic_stringIcSt11char_traitsIcESaIcEEES9_PKhm
FN:677,_ZN5Nexus3rpc8NodeImpl19deliverInterProcessERKSt6vectorIhSaIhEERKNSt7__cxx1112basic_stringIcSt11char_traitsIcESaIcEEESE_
FN:789,_ZN5Nexus3rpc8NodeImpl15handleSubscribeERKNSt7__cxx1112basic_stringIcSt11char_traitsIcESaIcEEEtS9_S9_S9_
FN:794,_ZN5Nexus3rpc8NodeImpl17handleUnsubscribeERKNSt7__cxx1112basic_stringIcSt11char_traitsIcESaIcEEES9_S9_
FN:798,_ZN5Nexus3rpc8NodeImpl26queryExistingSubscriptionsEv
FN:818,_ZN5Nexus3rpc8NodeImpl12registerNodeEv
FN:839,_ZN5Nexus3rpc8NodeImpl14unregisterNodeEv
FN:862,_ZN5Nexus3rpc8NodeImpl11getAllNodesEv
FN:866,_ZN5Nexus3rpc8NodeImpl14enqueueMessageERKNSt7__cxx1112basic_stringIcSt11char_traitsIcESaIcEEES9_S9_PKhm
FN:952,_ZN5Nexus3rpc8NodeImpl23messageProcessingThreadEm
FN:964,_ZZN5Nexus3rpc8NodeImpl23messageProcessingThreadEmENKUlvE_clEv
FN:1003,_ZN5Nexus3rpc8NodeImpl19systemMessageThreadEv
FN:1012,_ZZN5Nexus3rpc8NodeImpl19systemMessageThreadEvENKUlvE_clEv
FN:1061,_ZN5Nexus3rpc8NodeImpl20enqueueSystemMessageENS1_17SystemMessageTypeERKNSt7__cxx1112basic_stringIcSt11char_traitsIcESaIcEEESA_SA_PKhm
FN:1090,_ZNK5Nexus3rpc8NodeImpl13getQueueStatsEv
FN:1105,_ZN5Nexus3rpc8NodeImpl22setQueueOverflowPolicyENS0_19QueueOverflowPolicyE
FN:1109,_ZN5Nexus3rpc8NodeImpl24setQueueOverflowCallbackESt8functionIFvRKNSt7__cxx1112basic_stringIcSt11char_traitsIcESaIcEEESA_mEE
FN:1114,_ZN5Nexus3rpc8NodeImpl23cleanupOrphanedChannelsEv
FN:1160,_ZN5Nexus3rpc8NodeImpl17cleanupThreadFuncEv
FN:1185,_ZN5Nexus3rpc8NodeImpl19queryRemoteServicesEv
FN:1205,_ZN5Nexus3rpc8NodeImpl15registerServiceERKNS0_17ServiceDescriptorE
FN:1221,_ZN5Nexus3rpc8NodeImpl17unregisterServiceERKNS0_17ServiceDescriptorE
FN:1237,_ZN5Nexus3rpc8NodeImpl18broadcastNodeEventEb
FN:1257,_ZN5Nexus3rpc8NodeImpl15handleNodeEventERKNSt7__cxx1112basic_stringIcSt11char_traitsIcESaIcEEEb
FN:1291,_ZN5Nexus3rpc8NodeImpl22broadcastServiceUpdateERKNS0_17ServiceDescriptorEb
FN:1357,_ZN5Nexus3rpc8NodeImpl19handleServiceUpdateERKNSt7__cxx1112basic_stringIcSt11char_traitsIcESaIcEEERKNS0_17ServiceDescriptorEb
FN:1376,_ZN5Nexus3rpc8NodeImpl15notifyNodeEventENS0_12ServiceEventERKNSt7__cxx1112basic_stringIcSt11char_traitsIcESaIcEEE
FN:1398,_ZN5Nexus3rpc8NodeImpl20handleServiceMessageERKNSt7__cxx1112basic_stringIcSt11char_traitsIcESaIcEEES9_S9_PKhmb
FN:1493,_ZN5Nexus3rpc8NodeImpl16discoverServicesERKNSt7__cxx1112basic_stringIcSt11char_traitsIcESaIcEEENS0_11ServiceTypeE
FN:1511,_ZN5Nexus3rpc8NodeImpl21findNodesByCapabilityERKNSt7__cxx1112basic_stringIcSt11char_traitsIcESaIcEEE
FN:1529,_ZN5Nexus3rpc8NodeImpl21findLargeDataChannelsERKNSt7__cxx1112basic_stringIcSt11char_traitsIcESaIcEEE
FN:1533,_ZN5Nexus3rpc8NodeImpl27setServiceDiscoveryCallbackESt8functionIFvNS0_12ServiceEventERKNS0_17ServiceDescriptorEEE
FN:1542,_ZN5Nexus3rpc8NodeImpl17startUdpHeartbeatEv
FN:1551,_ZN5Nexus3rpc8NodeImpl16stopUdpHeartbeatEv
FN:1558,_ZN5Nexus3rpc8NodeImpl18udpHeartbeatThreadEv
FN:1577,_ZN5Nexus3rpc8NodeImpl16sendUdpHeartbeatEv
FN:1617,_ZN5Nexus3rpc8NodeImpl24handleQuerySubscriptionsERKNSt7__cxx1112basic_stringIcSt11char_traitsIcESaIcEEEtS9_
FN:1670,_ZN5Nexus3rpc8NodeImpl18handleUdpHeartbeatERKNSt7__cxx1112basic_stringIcSt11char_traitsIcESaIcEEES9_t
FN:1694,_ZN5Nexus3rpc8NodeImpl16checkUdpTimeoutsEv
FN:1741,_ZN5Nexus3rpc10createNodeERKNSt7__cxx1112basic_stringIcSt11char_traitsIcESaIcEEENS0_13TransportModeE
FNDA:5,_ZN5Nexus3rpc8NodeImpl24handleQuerySubscriptionsERKNSt7__cxx1112basic_stringIcSt11char_traitsIcESaIcEEEtS9_
FNDA:0,_ZNK5Nexus3rpc8NodeImpl13getQueueStatsEv
FNDA:157,_ZN5Nexus3rpc8NodeImpl20handleServiceMessageERKNSt7__cxx1112basic_stringIcSt11char_traitsIcESaIcEEES9_S9_PKhmb
FNDA:33,_ZN5Nexus3rpc8NodeImpl16checkUdpTimeoutsEv
FNDA:80,_ZN5Nexus3rpc8NodeImpl10initializeEt
FNDA:3,_ZN5Nexus3rpcL14generateNodeIdEv
FNDA:10621,_ZN5Nexus3rpc8NodeImpl11getAllNodesEv
FNDA:619,_ZZN5Nexus3rpc8NodeImpl10initializeEtENKUlPKhmRKNSt7__cxx1112basic_stringIcSt11char_traitsIcESaIcEEEE_clES3_mSB_
FNDA:40957,_ZZN5Nexus3rpc8NodeImpl23messageProcessingThreadEmENKUlvE_clEv
FNDA:52,_ZN5Nexus3rpc8NodeImpl22broadcastServiceUpdateERKNS0_17ServiceDescriptorEb
FNDA:196,_ZN5Nexus3rpc8NodeImpl20enqueueSystemMessageENS1_17SystemMessageTypeERKNSt7__cxx1112basic_stringIcSt11char_traitsIcESaIcEEESA_SA_PKhm
FNDA:4,_ZN5Nexus3rpc8NodeImpl16discoverServicesERKNSt7__cxx1112basic_stringIcSt11char_traitsIcESaIcEEENS0_11ServiceTypeE
FNDA:83,_ZN5Nexus3rpc8NodeImpl16stopUdpHeartbeatEv
FNDA:2,_ZN5Nexus3rpc8NodeImpl18handleUdpHeartbeatERKNSt7__cxx1112basic_stringIcSt11char_traitsIcESaIcEEES9_t
FNDA:20,_ZN5Nexus3rpc8NodeImpl18udpHeartbeatThreadEv
FNDA:12,_ZN5Nexus3rpc8NodeImpl11unsubscribeERKNSt7__cxx1112basic_stringIcSt11char_traitsIcESaIcEEERKSt6vectorIS7_SaIS7_EE
FNDA:6,_ZNK5Nexus3rpc8NodeImpl12isSubscribedERKNSt7__cxx1112basic_stringIcSt11char_traitsIcESaIcEEES9_
FNDA:80,_ZN5Nexus3rpc8NodeImpl12registerNodeEv
FNDA:40,_ZN5Nexus3rpc8NodeImpl9subscribeERKNSt7__cxx1112basic_stringIcSt11char_traitsIcESaIcEEERKSt6vectorIS7_SaIS7_EERKSt8functionIFvS9_S9_PKhmEE
FNDA:0,_ZN5Nexus3rpc8NodeImpl15handleSubscribeERKNSt7__cxx1112basic_stringIcSt11char_traitsIcESaIcEEEtS9_S9_S9_
FNDA:483,_ZZN5Nexus3rpc8NodeImpl19systemMessageThreadEvENKUlvE_clEv
FNDA:0,_ZN5Nexus3rpc8NodeImpl17handleUnsubscribeERKNSt7__cxx1112basic_stringIcSt11char_traitsIcESaIcEEES9_S9_
FNDA:2,_ZN5Nexus3rpc8NodeImpl21findNodesByCapabilityERKNSt7__cxx1112basic_stringIcSt11char_traitsIcESaIcEEE
FNDA:20,_ZN5Nexus3rpc8NodeImpl17startUdpHeartbeatEv
FNDA:20403,_ZN5Nexus3rpc8NodeImpl14enqueueMessageERKNSt7__cxx1112basic_stringIcSt11char_traitsIcESaIcEEES9_S9_PKhm
FNDA:44,_ZN5Nexus3rpc8NodeImpl15handleNodeEventERKNSt7__cxx1112basic_stringIcSt11char_traitsIcESaIcEEEb
FNDA:20403,_ZN5Nexus3rpc8NodeImpl13handleMessageERKNSt7__cxx1112basic_stringIcSt11char_traitsIcESaIcEEES9_S9_PKhm
FNDA:0,_ZN5Nexus3rpc8NodeImpl22setQueueOverflowPolicyENS0_19QueueOverflowPolicyE
FNDA:313,_ZN5Nexus3rpc8NodeImpl23messageProcessingThreadEm
FNDA:7,_ZZN5Nexus3rpc8NodeImpl10initializeEtENKUlPKhmRKNSt7__cxx1112basic_stringIcSt11char_traitsIcESaIcEEEE0_clES3_mSB_
FNDA:10701,_ZNK5Nexus3rpc8NodeImpl10getUdpPortEv
FNDA:70,_ZN5Nexus3rpc8NodeImpl15notifyNodeEventENS0_12ServiceEventERKNSt7__cxx1112basic_stringIcSt11char_traitsIcESaIcEEE
FNDA:2,_ZN5Nexus3rpc8NodeImpl23cleanupOrphanedChannelsEv
FNDA:2,_ZN5Nexus3rpc8NodeImpl21findLargeDataChannelsERKNSt7__cxx1112basic_stringIcSt11char_traitsIcESaIcEEE
FNDA:20,_ZN5Nexus3rpc8NodeImpl26queryExistingSubscriptionsEv
FNDA:10406,_ZN5Nexus3rpc8NodeImpl16deliverInProcessERKNSt7__cxx1112basic_stringIcSt11char_traitsIcESaIcEEES9_PKhm
FNDA:83,_ZN5Nexus3rpc8NodeImplD2Ev
FNDA:0,_ZN5Nexus3rpc8NodeImpl19getLargeDataChannelERKNSt7__cxx1112basic_stringIcSt11char_traitsIcESaIcEEE
FNDA:9,_ZN5Nexus3rpc8NodeImpl17unregisterServiceERKNS0_17ServiceDescriptorE
FNDA:43,_ZN5Nexus3rpc8NodeImpl15registerServiceERKNS0_17ServiceDescriptorE
FNDA:80,_ZN5Nexus3rpc8NodeImpl17cleanupThreadFuncEv
FNDA:0,_ZN5Nexus3rpc8NodeImpl24setQueueOverflowCallbackESt8functionIFvRKNSt7__cxx1112basic_stringIcSt11char_traitsIcESaIcEEESA_mEE
FNDA:83,_ZN5Nexus3rpc8NodeImplC2ERKNSt7__cxx1112basic_stringIcSt11char_traitsIcESaIcEEEbtNS0_13TransportModeE
FNDA:83,_ZN5Nexus3rpc8NodeImpl14unregisterNodeEv
FNDA:0,_ZN5Nexus3rpc8NodeImpl13sendLargeDataERKNSt7__cxx1112basic_stringIcSt11char_traitsIcESaIcEEES9_S9_PKhm
FNDA:7,_ZN5Nexus3rpc8NodeImpl27setServiceDiscoveryCallbackESt8functionIFvNS0_12ServiceEventERKNS0_17ServiceDescriptorEEE
FNDA:33,_ZN5Nexus3rpc8NodeImpl16sendUdpHeartbeatEv
FNDA:10406,_ZN5Nexus3rpc8NodeImpl19deliverInterProcessERKSt6vectorIhSaIhEERKNSt7__cxx1112basic_stringIcSt11char_traitsIcESaIcEEESE_
FNDA:0,_ZN5Nexus3rpc8NodeImplD0Ev
FNDA:65,_ZN5Nexus3rpc8NodeImpl19handleServiceUpdateERKNSt7__cxx1112basic_stringIcSt11char_traitsIcESaIcEEERKNS0_17ServiceDescriptorEb
FNDA:78,_ZN5Nexus3rpc8NodeImpl19queryRemoteServicesEv
FNDA:161,_ZN5Nexus3rpc8NodeImpl18broadcastNodeEventEb
FNDA:10412,_ZN5Nexus3rpc8NodeImpl7publishERKNSt7__cxx1112basic_stringIcSt11char_traitsIcESaIcEEES9_S9_
FNDA:13,_ZN5Nexus3rpc10createNodeERKNSt7__cxx1112basic_stringIcSt11char_traitsIcESaIcEEENS0_13TransportModeE
FNDA:80,_ZN5Nexus3rpc8NodeImpl19systemMessageThreadEv
FNF:55
FNH:47
DA:42,3
DA:43,3
DA:44,3
DA:46,3
DA:47,3
DA:48,6
DA:49,3
DA:51,83
DA:52,83
DA:53,83
DA:54,83
DA:55,83
DA:56,830
DA:58,83
DA:60,830
DA:61,83
DA:66,83
DA:69,83
DA:72,83
DA:73,83
DA:74,80
DA:78,83
DA:79,83
DA:80,83
DA:81,80
DA:85,415
DA:86,332
DA:90,403
DA:91,320
DA:92,320
DA:97,83
DA:98,20
DA:102,1079
DA:105,80
DA:107,80
DA:110,80
DA:111,80
DA:112,132
DA:113,66
DA:117,400
DA:118,320
DA:122,80
DA:123,80
DA:126,80
DA:127,78
DA:128,78
DA:129,0
DA:130,0
DA:132,78
DA:135,78
DA:138,78
DA:139,1797
DA:141,619
DA:142,30
DA:145,602
DA:146,602
DA:147,11
DA:148,8
DA:150,447
DA:151,144
DA:152,144
DA:153,447
DA:154,0
DA:155,144
DA:156,2
DA:157,479
DA:158,479
DA:160,447
DA:162,447
DA:163,389
DA:164,389
DA:165,389
DA:167,37
DA:169,37
DA:170,37
DA:171,37
DA:172,266
DA:173,266
DA:175,142
DA:176,0
DA:177,142
DA:178,2
DA:179,13
DA:180,2
DA:181,11
DA:182,128
DA:183,11
DA:184,117
DA:185,127
DA:186,117
DA:187,10
DA:188,14
DA:190,4
DA:191,4
DA:192,4
DA:194,9
DA:196,9
DA:197,9
DA:198,9
DA:199,0
DA:200,8
DA:201,0
DA:202,8
DA:203,455
DA:204,27
DA:205,0
DA:211,0
DA:212,0
DA:214,29
DA:215,72
DA:216,47
DA:217,18
DA:218,144
DA:219,51
DA:220,18
DA:221,18
DA:222,18
DA:226,27
DA:229,78
DA:230,134
DA:231,56
DA:232,5
DA:234,27
DA:235,5
DA:236,8
DA:237,5
DA:238,1
DA:239,0
DA:241,51
DA:242,1
DA:243,1
DA:244,51
DA:245,51
DA:248,1
DA:249,54
DA:250,1
DA:251,19
DA:252,1
DA:253,6
DA:254,0
DA:255,1
DA:256,0
DA:257,6
DA:258,6
DA:259,0
DA:260,1
DA:261,0
DA:262,0
DA:263,6
DA:264,6
DA:265,6
DA:266,6
DA:267,6
DA:268,0
DA:269,0
DA:270,6
DA:271,0
DA:273,0
DA:274,0
DA:275,6
DA:276,0
DA:277,0
DA:278,0
DA:279,0
DA:280,0
DA:282,0
DA:283,0
DA:284,0
DA:285,0
DA:286,0
DA:287,0
DA:288,0
DA:289,0
DA:290,0
DA:291,1
DA:292,0
DA:293,1
DA:294,1
DA:295,0
DA:296,0
DA:297,0
DA:299,0
DA:300,0
DA:301,0
DA:302,2
DA:303,2
DA:304,3
DA:306,4
DA:308,8
DA:309,4
DA:311,4
DA:312,4
DA:314,4
DA:316,0
DA:317,0
DA:319,6
DA:320,4
DA:321,4
DA:322,1
DA:323,17
DA:324,1
DA:326,16
DA:327,16
DA:328,8
DA:329,20
DA:332,4
DA:334,0
DA:335,14
DA:336,14
DA:337,2
DA:338,2
DA:339,6
DA:343,32
DA:344,14
DA:347,14
DA:348,0
DA:349,0
DA:351,4
DA:353,0
DA:354,14
DA:355,4
DA:358,14
DA:359,4
DA:362,4
DA:363,2
DA:366,43
DA:367,27
DA:368,0
DA:370,10416
DA:371,10400
DA:372,2
DA:374,16
DA:375,10398
DA:376,0
DA:377,16
DA:380,10398
DA:381,53
DA:382,53
DA:383,10398
DA:385,12
DA:386,10410
DA:387,4
DA:388,10398
DA:389,10398
DA:390,8
DA:391,18
DA:393,18
DA:394,3
DA:395,8
DA:397,15
DA:398,8
DA:401,23
DA:403,8
DA:404,23
DA:406,22
DA:407,34
DA:408,41
DA:409,25
DA:412,16
DA:413,0
DA:414,15
DA:416,16
DA:417,34
DA:418,19
DA:419,16
DA:420,19
DA:421,19
DA:422,53
DA:423,37
DA:424,37
DA:425,19
DA:426,19
DA:427,19
DA:428,19
DA:429,16
DA:430,19
DA:431,19
DA:432,34
DA:433,18
DA:434,19
DA:435,20
DA:436,18
DA:437,18
DA:438,18
DA:439,18
DA:440,18
DA:441,18
DA:442,18
DA:443,16
DA:444,2
DA:445,18
DA:446,16
DA:449,18
DA:450,6
DA:451,21
DA:452,21
DA:453,6
DA:454,10
DA:455,10
DA:456,6
DA:457,6
DA:459,10
DA:460,6
DA:464,4
DA:466,16
DA:467,20
DA:469,12
DA:470,12
DA:471,2
DA:474,10
DA:475,0
DA:476,1
DA:477,1
DA:479,8
DA:480,2
DA:481,1
DA:482,9
DA:483,1
DA:484,9
DA:485,8
DA:486,4
DA:489,5
DA:490,1
DA:491,2
DA:492,2
DA:493,4
DA:495,4
DA:496,7
DA:497,2
DA:498,5
DA:499,5
DA:500,3
DA:501,3
DA:502,3
DA:503,3
DA:504,5
DA:505,5
DA:506,3
DA:508,11
DA:509,3
DA:511,13
DA:512,0
DA:513,6
DA:514,6
DA:515,6
DA:516,6
DA:517,6
DA:518,6
DA:519,6
DA:520,6
DA:521,6
DA:522,0
DA:523,6
DA:524,6
DA:525,2
DA:526,10
DA:527,0
DA:528,0
DA:529,0
DA:530,0
DA:531,0
DA:532,0
DA:533,0
DA:534,0
DA:535,0
DA:536,0
DA:537,0
DA:540,4
DA:541,8
DA:542,0
DA:543,0
DA:545,0
DA:546,0
DA:547,0
DA:548,0
DA:549,0
DA:550,0
DA:551,0
DA:552,0
DA:553,0
DA:555,0
DA:556,0
DA:557,0
DA:558,0
DA:559,0
DA:562,0
DA:563,0
DA:564,0
DA:565,0
DA:568,0
DA:569,0
DA:570,0
DA:571,0
DA:574,0
DA:575,0
DA:576,0
DA:577,0
DA:578,0
DA:580,0
DA:581,0
DA:582,0
DA:583,0
DA:584,0
DA:585,0
DA:586,0
DA:587,0
DA:589,0
DA:590,0
DA:592,0
DA:593,0
DA:594,0
DA:595,0
DA:598,0
DA:599,0
DA:600,0
DA:601,0
DA:602,0
DA:603,0
DA:604,0
DA:606,0
DA:607,0
DA:608,0
DA:609,0
DA:610,0
DA:611,0
DA:614,0
DA:615,0
DA:616,0
DA:617,0
DA:618,0
DA:619,0
DA:620,0
DA:622,0
DA:623,0
DA:624,0
DA:625,0
DA:627,0
DA:628,0
DA:629,0
DA:630,0
DA:632,0
DA:633,0
DA:634,0
DA:635,4
DA:636,4
DA:637,0
DA:638,4
DA:639,4
DA:640,4
DA:641,2
DA:643,4
DA:644,6
DA:645,1
DA:646,210
DA:647,210
DA:648,99
DA:649,2
DA:650,112
DA:651,10491
DA:652,10491
DA:653,30
DA:655,10467
DA:656,6
DA:657,6
DA:658,20397
DA:659,8
DA:661,20397
DA:662,20405
DA:664,10398
DA:665,20
DA:666,12
DA:667,10402
DA:670,40812
DA:671,30406
DA:672,20016
DA:675,10398
DA:676,8
DA:677,10406
DA:680,8
DA:681,10400
DA:682,10398
DA:685,10404
DA:686,1
DA:687,6
DA:688,16
DA:689,10
DA:690,10407
DA:692,10397
DA:693,40808
DA:694,30405
DA:695,30405
DA:696,6
DA:697,6
DA:698,10397
DA:699,6
DA:700,6
DA:701,10403
DA:702,10397
DA:704,10397
DA:705,10403
DA:706,10403
DA:707,6
DA:709,6
DA:710,10403
DA:711,10397
DA:712,10409
DA:714,10403
DA:715,10397
DA:717,41198
DA:719,30807
DA:720,403
DA:724,30404
DA:725,2
DA:729,30402
DA:730,10007
DA:734,20395
DA:735,20006
DA:739,389
DA:740,0
DA:741,0
DA:742,0
DA:743,0
DA:744,389
DA:745,0
DA:746,389
DA:747,389
DA:748,389
DA:749,0
DA:750,0
DA:751,0
DA:752,0
DA:753,0
DA:754,0
DA:755,0
DA:756,0
DA:757,0
DA:759,0
DA:760,0
DA:761,0
DA:762,0
DA:764,0
DA:765,0
DA:767,6
DA:768,6
DA:769,0
DA:772,10397
DA:773,10786
DA:774,395
DA:775,2
DA:776,0
DA:779,10405
DA:780,1
DA:781,0
DA:784,10398
DA:787,0
DA:789,0
DA:791,0
DA:792,0
DA:793,16
DA:794,32
DA:796,0
DA:797,16
DA:798,4
DA:799,8
DA:802,4
DA:803,16
DA:806,12816
DA:807,12800
DA:808,12790
DA:811,3220
DA:812,3200
DA:813,3249
DA:814,53
DA:815,53
DA:816,4
DA:817,53
DA:818,27
DA:819,27
DA:820,27
DA:822,80
DA:824,53
DA:825,110
DA:826,57
DA:827,27
DA:828,4
DA:829,27
DA:830,62
DA:831,88
DA:832,53
DA:833,8
DA:834,55
DA:836,27
DA:837,27
DA:838,55
DA:839,87
DA:840,4
DA:842,4
DA:843,28
DA:844,36
DA:845,8
DA:847,63
DA:848,55
DA:852,28
DA:853,83
DA:854,55
DA:855,55
DA:857,144
DA:858,172
DA:859,28
DA:860,28
DA:861,6
DA:862,10477
DA:863,10477
DA:865,6
DA:866,20403
DA:867,6
DA:868,0
DA:870,20403
DA:871,20397
DA:872,20397
DA:873,8
DA:874,6
DA:875,20403
DA:876,6
DA:877,6
DA:878,20395
DA:879,20395
DA:880,20395
DA:881,20395
DA:882,20401
DA:883,6
DA:886,6
DA:887,20401
DA:888,20395
DA:891,20401
DA:892,20401
DA:894,6
DA:896,20395
DA:897,20395
DA:899,20395
DA:900,0
DA:901,0
DA:902,0
DA:903,0
DA:904,0
DA:905,0
DA:906,0
DA:907,0
DA:908,0
DA:909,0
DA:910,0
DA:911,0
DA:913,0
DA:915,0
DA:916,0
DA:918,0
DA:919,0
DA:920,0
DA:923,0
DA:924,0
DA:925,0
DA:928,0
DA:929,0
DA:931,0
DA:932,0
DA:933,0
DA:934,0
DA:936,0
DA:937,0
DA:939,6
DA:941,6
DA:944,20401
DA:945,6
DA:946,20395
DA:947,208
DA:949,20603
DA:950,20607
DA:952,321
DA:953,216
DA:954,105
DA:955,106
DA:957,20564
DA:958,20560
DA:959,415
DA:961,208
DA:962,20560
DA:963,20361
DA:964,40542
DA:966,20370
DA:967,118
DA:968,6
DA:969,6
DA:971,20466
DA:972,40648
DA:973,20393
DA:974,20403
DA:976,20368
DA:978,6
DA:979,40645
DA:980,6
DA:981,20398
DA:983,20397
DA:984,20392
DA:985,20364
DA:986,20362
DA:988,20361
DA:989,0
DA:991,20390
DA:993,20392
DA:994,0
DA:995,202
DA:996,0
DA:998,20447
DA:999,53
DA:1000,106
DA:1001,191
DA:1002,191
DA:1003,27
DA:1004,27
DA:1006,276
DA:1007,604
DA:1009,191
DA:1010,53
DA:1011,85
DA:1012,240
DA:1013,138
DA:1014,85
DA:1015,27
DA:1017,138
DA:1018,196
DA:1019,191
DA:1022,58
DA:1023,58
DA:1024,222
DA:1025,117
DA:1026,117
DA:1028,117
DA:1029,58
DA:1030,41
DA:1031,41
DA:1033,41
DA:1035,9
DA:1036,9
DA:1037,9
DA:1038,9
DA:1040,19
DA:1041,19
DA:1042,19
DA:1043,19
DA:1045,10
DA:1046,10
DA:1047,10
DA:1048,10
DA:1049,0
DA:1050,191
DA:1051,0
DA:1052,53
DA:1053,53
DA:1054,0
DA:1055,85
DA:1056,138
DA:1057,27
DA:1058,165
DA:1059,138
DA:1060,138
DA:1061,196
DA:1062,138
DA:1063,58
DA:1064,196
DA:1065,174
DA:1066,58
DA:1067,58
DA:1069,57
DA:1070,164
DA:1072,138
DA:1074,0
DA:1075,57
DA:1077,58
DA:1078,138
DA:1079,138
DA:1080,0
DA:1082,138
DA:1083,196
DA:1084,58
DA:1085,0
DA:1086,0
DA:1087,58
DA:1088,58
DA:1089,0
DA:1090,0
DA:1091,0
DA:1092,0
DA:1094,0
DA:1095,0
DA:1096,0
DA:1097,0
DA:1100,0
DA:1101,0
DA:1102,0
DA:1104,0
DA:1105,0
DA:1106,0
DA:1107,0
DA:1109,2
DA:1110,2
DA:1111,0
DA:1112,0
DA:1114,0
DA:1115,0
DA:1116,2
DA:1117,2
DA:1120,2
DA:1121,2
DA:1122,2
DA:1124,2
DA:1125,2
DA:1126,0
DA:1127,2
DA:1129,2
DA:1130,0
DA:1131,0
DA:1132,0
DA:1134,0
DA:1135,2
DA:1136,0
DA:1137,0
DA:1138,0
DA:1140,0
DA:1141,2
DA:1142,0
DA:1143,0
DA:1144,2
DA:1145,2
DA:1146,0
DA:1148,2
DA:1149,2
DA:1150,0
DA:1152,2
DA:1153,0
DA:1154,0
DA:1155,53
DA:1156,53
DA:1157,0
DA:1158,53
DA:1160,152
DA:1161,107
DA:1163,27
DA:1164,45
DA:1165,135
DA:1166,66
DA:1169,24
DA:1170,24
DA:1171,0
DA:1174,0
DA:1175,53
DA:1176,53
DA:1180,78
DA:1181,27
DA:1184,51
DA:1185,27
DA:1189,27
DA:1190,0
DA:1191,102
DA:1193,51
DA:1196,54
DA:1197,51
DA:1198,78
DA:1200,22
DA:1202,49
DA:1203,27
DA:1205,43
DA:1206,50
DA:1207,49
DA:1208,6
DA:1210,21
DA:1211,63
DA:1212,42
DA:1213,43
DA:1214,22
DA:1216,6
DA:1218,27
DA:1219,21
DA:1221,9
DA:1222,12
DA:1223,9
DA:1224,0
DA:1226,3
DA:1227,6
DA:1228,3
DA:1229,6
DA:1230,6
DA:1232,106
DA:1234,109
DA:1235,7
DA:1236,4
DA:1237,55
DA:1239,157
DA:1240,1
DA:1241,103
DA:1244,258
DA:1246,156
DA:1248,204
DA:1249,210
DA:1250,102
DA:1251,54
DA:1252,18
DA:1253,126
DA:1254,54
DA:1255,54
DA:1257,44
DA:1258,26
DA:1259,18
DA:1262,44
DA:1264,44
DA:1267,26
DA:1268,9
DA:1269,44
DA:1272,10
DA:1273,16
DA:1274,31
DA:1277,34
DA:1278,19
DA:1279,3
DA:1280,9
DA:1281,9
DA:1283,9
DA:1285,15
DA:1286,43
DA:1288,15
DA:1290,28
DA:1291,52
DA:1292,28
DA:1294,28
DA:1295,52
DA:1296,24
DA:1297,52
DA:1298,28
DA:1299,52
DA:1300,24
DA:1301,28
DA:1302,24
DA:1303,24
DA:1304,52
DA:1305,6
DA:1306,24
DA:1307,0
DA:1308,28
DA:1309,24
DA:1310,30
DA:1313,52
DA:1314,26
DA:1315,24
DA:1318,52
DA:1319,24
DA:1320,10
DA:1321,20
DA:1323,34
DA:1324,20
DA:1325,14
DA:1326,8
DA:1327,0
DA:1328,4
DA:1329,8
DA:1330,4
DA:1331,0
DA:1332,10
DA:1333,0
DA:1334,0
DA:1335,0
DA:1337,4
DA:1338,0
DA:1339,0
DA:1340,0
DA:1342,0
DA:1343,0
DA:1344,0
DA:1346,0
DA:1347,0
DA:1348,0
DA:1349,10
DA:1350,28
DA:1351,0
DA:1352,18
DA:1353,0
DA:1354,4
DA:1355,42
DA:1357,65
DA:1358,18
DA:1359,18
DA:1360,47
DA:1361,18
DA:1362,49
DA:1363,47
DA:1364,49
DA:1365,0
DA:1366,47
DA:1367,3
DA:1369,21
DA:1370,0
DA:1371,28
DA:1372,0
DA:1373,28
DA:1374,47
DA:1375,28
DA:1376,70
DA:1377,28
DA:1378,42
DA:1379,28
DA:1380,42
DA:1381,46
DA:1382,46
DA:1383,4
DA:1384,42
DA:1386,6
DA:1387,2
DA:1388,2
DA:1389,0
DA:1390,4
DA:1391,30
DA:1392,0
DA:1393,121
DA:1394,0
DA:1395,2
DA:1396,163
DA:1397,109
DA:1398,36
DA:1401,157
DA:1402,11
DA:1403,5
DA:1404,10
DA:1406,36
DA:1407,5
DA:1408,11
DA:1409,22
DA:1410,0
DA:1412,11
DA:1413,0
DA:1414,0
DA:1415,0
DA:1416,0
DA:1417,0
DA:1418,0
DA:1419,0
DA:1420,0
DA:1421,0
DA:1422,0
DA:1423,0
DA:1424,0
DA:1425,0
DA:1426,0
DA:1427,0
DA:1428,0
DA:1429,0
DA:1431,0
DA:1432,0
DA:1435,0
DA:1436,0
DA:1437,0
DA:1438,0
DA:1440,5
DA:1441,5
DA:1443,0
DA:1445,11
DA:1446,127
DA:1447,0
DA:1450,116
DA:1451,141
DA:1452,116
DA:1453,116
DA:1454,116
DA:1455,141
DA:1456,25
DA:1457,142
DA:1458,142
DA:1459,26
DA:1460,142
DA:1461,104
DA:1462,26
DA:1463,26
DA:1464,12
DA:1465,30
DA:1466,0
DA:1467,12
DA:1468,2
DA:1469,26
DA:1470,1
DA:1471,12
DA:1472,26
DA:1473,13
DA:1475,10
DA:1476,26
DA:1478,36
DA:1480,26
DA:1481,2
DA:1483,26
DA:1484,2
DA:1486,116
DA:1488,2
DA:1489,2
DA:1491,26
DA:1492,2
DA:1493,2
DA:1494,6
DA:1496,2
DA:1497,3
DA:1499,6
DA:1500,1
DA:1501,4
DA:1502,1
DA:1503,4
DA:1504,2
DA:1505,3
DA:1506,1
DA:1507,1
DA:1508,4
DA:1509,2
DA:1510,2
DA:1511,1
DA:1512,3
DA:1513,1
DA:1515,3
DA:1516,1
DA:1517,3
DA:1518,2
DA:1520,1
DA:1521,3
DA:1522,1
DA:1524,1
DA:1525,1
DA:1526,2
DA:1527,1
DA:1528,4
DA:1529,5
DA:1530,5
DA:1531,4
DA:1533,3
DA:1534,3
DA:1535,3
DA:1536,3
DA:1537,16
DA:1538,16
DA:1539,0
DA:1542,20
DA:1543,20
DA:1544,0
DA:1546,55
DA:1547,59
DA:1548,59
DA:1549,16
DA:1551,83
DA:1552,28
DA:1553,44
DA:1554,20
DA:1556,72
DA:1558,32
DA:1559,4
DA:1561,37
DA:1563,5
DA:1564,202
DA:1565,174
DA:1566,5
DA:1569,52
DA:1570,47
DA:1572,28
DA:1573,28
DA:1574,4
DA:1575,4
DA:1577,5
DA:1578,61
DA:1579,0
DA:1581,28
DA:1582,56
DA:1583,10
DA:1585,28
DA:1586,41
DA:1587,18
DA:1588,2
DA:1590,5
DA:1591,7
DA:1592,2
DA:1593,30
DA:1594,2
DA:1595,2
DA:1596,0
DA:1598,5
DA:1599,2
DA:1600,2
DA:1601,0
DA:1603,2
DA:1604,2
DA:1605,0
DA:1607,0
DA:1608,0
DA:1609,2
DA:1610,28
DA:1612,4
DA:1613,0
DA:1614,0
DA:1615,5
DA:1617,5
DA:1618,0
DA:1622,5
DA:1623,0
DA:1627,5
DA:1628,0
DA:1630,4
DA:1631,8
DA:1632,1
DA:1634,6
DA:1635,3
DA:1636,2
DA:1637,2
DA:1638,2
DA:1639,4
DA:1640,1
DA:1641,2
DA:1642,2
DA:1643,0
DA:1644,2
DA:1645,2
DA:1646,2
DA:1647,0
DA:1648,2
DA:1649,0
DA:1650,0
DA:1651,2
DA:1652,2
DA:1653,0
DA:1654,0
DA:1656,2
DA:1657,4
DA:1660,2
DA:1661,2
DA:1662,0
DA:1663,4
DA:1665,2
DA:1666,2
DA:1667,0
DA:1668,1
DA:1670,0
DA:1671,2
DA:1672,2
DA:1673,2
DA:1674,0
DA:1676,0
DA:1677,2
DA:1678,2
DA:1679,2
DA:1680,2
DA:1681,2
DA:1682,2
DA:1683,0
DA:1684,4
DA:1685,2
DA:1686,2
DA:1687,2
DA:1689,28
DA:1690,28
DA:1691,0
DA:1692,0
DA:1693,28
DA:1694,33
DA:1695,5
DA:1696,38
DA:1698,15
DA:1699,5
DA:1700,10
DA:1701,5
DA:1702,2
DA:1703,2
DA:1704,2
DA:1705,0
DA:1706,8
DA:1707,0
DA:1708,0
DA:1709,28
DA:1711,0
DA:1712,28
DA:1713,2
DA:1714,5
DA:1715,4
DA:1717,9
DA:1718,2
DA:1719,0
DA:1720,0
DA:1722,0
DA:1723,0
DA:1724,0
DA:1725,0
DA:1728,2
DA:1729,2
DA:1731,28
DA:1733,0
DA:1734,0
DA:1736,7
DA:1739,2
DA:1740,2
DA:1741,13
DA:1744,11
DA:1745,13
DA:1746,13
DA:1747,4
DA:1748,2
DA:1750,11
DA:1751,11
DA:1752,22
DA:1753,11
LF:1307
LH:972
end_of_record
TN:
SF:/home/fz296w/workspace/Nexus/Nexus/src/registry/GlobalRegistry.cpp
FN:11,_ZN5Nexus3rpc14GlobalRegistry8instanceEv
FN:16,_ZN5Nexus3rpc14GlobalRegistry12registerNodeERKNSt7__cxx1112basic_stringIcSt11char_traitsIcESaIcEEESt8weak_ptrINS0_8NodeImplEE
FN:21,_ZN5Nexus3rpc14GlobalRegistry14unregisterNodeERKNSt7__cxx1112basic_stringIcSt11char_traitsIcESaIcEEE
FN:38,_ZZN5Nexus3rpc14GlobalRegistry14unregisterNodeERKNSt7__cxx1112basic_stringIcSt11char_traitsIcESaIcEEEENKUlRKNS0_17ServiceDescriptorEE_clESC_
FN:51,_ZN5Nexus3rpc14GlobalRegistry11getAllNodesEv
FN:68,_ZN5Nexus3rpc14GlobalRegistry8findNodeERKNSt7__cxx1112basic_stringIcSt11char_traitsIcESaIcEEE
FN:77,_ZN5Nexus3rpc14GlobalRegistry15registerServiceERKNSt7__cxx1112basic_stringIcSt11char_traitsIcESaIcEEERKNS0_17ServiceDescriptorE
FN:121,_ZN5Nexus3rpc14GlobalRegistry17unregisterServiceERKNSt7__cxx1112basic_stringIcSt11char_traitsIcESaIcEEERKNS0_17ServiceDescriptorE
FN:128,_ZZN5Nexus3rpc14GlobalRegistry17unregisterServiceERKNSt7__cxx1112basic_stringIcSt11char_traitsIcESaIcEEERKNS0_17ServiceDescriptorEENKUlSC_E_clESC_
FN:139,_ZN5Nexus3rpc14GlobalRegistry12findServicesERKNSt7__cxx1112basic_stringIcSt11char_traitsIcESaIcEEE
FN:160,_ZN5Nexus3rpc14GlobalRegistry13clearServicesEv
FN:165,_ZNK5Nexus3rpc14GlobalRegistry12getNodeCountEv
FN:170,_ZNK5Nexus3rpc14GlobalRegistry15getServiceCountEv
FNDA:83,_ZN5Nexus3rpc14GlobalRegistry12registerNodeERKNSt7__cxx1112basic_stringIcSt11char_traitsIcESaIcEEESt8weak_ptrINS0_8NodeImplEE
FNDA:0,_ZNK5Nexus3rpc14GlobalRegistry15getServiceCountEv
FNDA:21,_ZZN5Nexus3rpc14GlobalRegistry17unregisterServiceERKNSt7__cxx1112basic_stringIcSt11char_traitsIcESaIcEEERKNS0_17ServiceDescriptorEENKUlSC_E_clESC_
FNDA:21024,_ZN5Nexus3rpc14GlobalRegistry11getAllNodesEv
FNDA:21458,_ZN5Nexus3rpc14GlobalRegistry8instanceEv
FNDA:10514,_ZN5Nexus3rpc14GlobalRegistry12findServicesERKNSt7__cxx1112basic_stringIcSt11char_traitsIcESaIcEEE
FNDA:86,_ZN5Nexus3rpc14GlobalRegistry14unregisterNodeERKNSt7__cxx1112basic_stringIcSt11char_traitsIcESaIcEEE
FNDA:86,_ZN5Nexus3rpc14GlobalRegistry8findNodeERKNSt7__cxx1112basic_stringIcSt11char_traitsIcESaIcEEE
FNDA:17,_ZN5Nexus3rpc14GlobalRegistry17unregisterServiceERKNSt7__cxx1112basic_stringIcSt11char_traitsIcESaIcEEERKNS0_17ServiceDescriptorE
FNDA:64,_ZN5Nexus3rpc14GlobalRegistry13clearServicesEv
FNDA:0,_ZNK5Nexus3rpc14GlobalRegistry12getNodeCountEv
FNDA:44,_ZZN5Nexus3rpc14GlobalRegistry14unregisterNodeERKNSt7__cxx1112basic_stringIcSt11char_traitsIcESaIcEEEENKUlRKNS0_17ServiceDescriptorEE_clESC_
FNDA:84,_ZN5Nexus3rpc14GlobalRegistry15registerServiceERKNSt7__cxx1112basic_stringIcSt11char_traitsIcESaIcEEERKNS0_17ServiceDescriptorE
FNF:13
FNH:11
DA:11,21458
DA:12,21458
DA:13,21458
DA:16,83
DA:17,83
DA:18,83
DA:19,83
DA:21,86
DA:24,86
DA:25,86
DA:26,86
DA:31,86
DA:32,114
DA:33,28
DA:36,56
DA:37,28
DA:38,44
DA:39,28
DA:42,28
DA:43,21
DA:45,7
DA:48,86
DA:49,86
DA:51,21024
DA:52,21024
DA:53,21024
DA:55,82120
DA:56,61096
DA:57,61016
DA:58,61016
DA:61,80
DA:62,61096
DA:65,42048
DA:66,21024
DA:68,86
DA:69,86
DA:70,86
DA:71,86
DA:72,3
DA:74,83
DA:75,86
DA:77,84
DA:78,84
DA:79,84
DA:86,84
DA:88,147
DA:89,96
DA:92,96
DA:95,33
DA:97,33
DA:101,9
DA:103,9
DA:106,0
DA:108,0
DA:109,0
DA:113,0
DA:118,51
DA:119,117
DA:121,17
DA:122,17
DA:124,17
DA:125,17
DA:126,17
DA:127,17
DA:128,41
DA:129,21
DA:131,17
DA:133,17
DA:134,13
DA:137,17
DA:139,10514
DA:140,10514
DA:141,10514
DA:143,10514
DA:145,139
DA:146,41
DA:147,41
DA:151,10416
DA:152,10416
DA:153,10410
DA:157,21028
DA:158,10514
DA:160,64
DA:161,64
DA:162,64
DA:163,64
DA:165,0
DA:166,0
DA:167,0
DA:168,0
DA:170,0
DA:171,0
DA:172,0
DA:173,0
DA:174,0
DA:176,0
DA:177,0
LF:97
LH:82
end_of_record
TN:
SF:/home/fz296w/workspace/Nexus/Nexus/src/registry/SharedMemoryRegistry.cpp
FN:28,_ZN5Nexus3rpc20SharedMemoryRegistryC2Ev
FN:31,_ZN5Nexus3rpc20SharedMemoryRegistryD2Ev
FN:88,_ZN5Nexus3rpc20SharedMemoryRegistry10initializeEv
FN:311,_ZN5Nexus3rpc20SharedMemoryRegistry12registerNodeERKNSt7__cxx1112basic_stringIcSt11char_traitsIcESaIcEEES9_
FN:403,_ZN5Nexus3rpc20SharedMemoryRegistry14unregisterNodeERKNSt7__cxx1112basic_stringIcSt11char_traitsIcESaIcEEE
FN:447,_ZN5Nexus3rpc20SharedMemoryRegistry15updateHeartbeatERKNSt7__cxx1112basic_stringIcSt11char_traitsIcESaIcEEE
FN:482,_ZNK5Nexus3rpc20SharedMemoryRegistry11getAllNodesEv
FN:519,_ZNK5Nexus3rpc20SharedMemoryRegistry8findNodeERKNSt7__cxx1112basic_stringIcSt11char_traitsIcESaIcEEERNS0_8NodeInfoE
FN:548,_ZNK5Nexus3rpc20SharedMemoryRegistry10nodeExistsERKNSt7__cxx1112basic_stringIcSt11char_traitsIcESaIcEEE
FN:569,_ZN5Nexus3rpc20SharedMemoryRegistry17cleanupStaleNodesEm
FN:672,_ZNK5Nexus3rpc20SharedMemoryRegistry18getActiveNodeCountEv
FN:681,_ZNK5Nexus3rpc20SharedMemoryRegistry16amICleanupMasterEv
FN:711,_ZN5Nexus3rpc20SharedMemoryRegistry23cleanupOrphanedRegistryEv
FN:832,_ZN5Nexus3rpc20SharedMemoryRegistry19forceRemoveRegistryEv
FN:894,_ZNK5Nexus3rpc20SharedMemoryRegistry14findEntryIndexERKNSt7__cxx1112basic_stringIcSt11char_traitsIcESaIcEEE
FN:914,_ZNK5Nexus3rpc20SharedMemoryRegistry18findFreeEntryIndexEv
FN:924,_ZNK5Nexus3rpc20SharedMemoryRegistry16getCurrentTimeMsEv
FN:935,_ZNK5Nexus3rpc20SharedMemoryRegistry14isProcessAliveEi
FN:943,_ZN5Nexus3rpc20SharedMemoryRegistry17writeAtomicStringEPSt6atomicImERKNSt7__cxx1112basic_stringIcSt11char_traitsIcESaIcEEEm
FN:959,_ZN5Nexus3rpc20SharedMemoryRegistry16readAtomicStringB5cxx11EPKSt6atomicImEm
FNDA:0,_ZNK5Nexus3rpc20SharedMemoryRegistry18findFreeEntryIndexEv
FNDA:202,_ZNK5Nexus3rpc20SharedMemoryRegistry8findNodeERKNSt7__cxx1112basic_stringIcSt11char_traitsIcESaIcEEERNS0_8NodeInfoE
FNDA:4,_ZNK5Nexus3rpc20SharedMemoryRegistry18getActiveNodeCountEv
FNDA:13,_ZNK5Nexus3rpc20SharedMemoryRegistry10nodeExistsERKNSt7__cxx1112basic_stringIcSt11char_traitsIcESaIcEEE
FNDA:135,_ZN5Nexus3rpc20SharedMemoryRegistry23cleanupOrphanedRegistryEv
FNDA:247,_ZN5Nexus3rpc20SharedMemoryRegistryC2Ev
FNDA:51,_ZN5Nexus3rpc20SharedMemoryRegistry19forceRemoveRegistryEv
FNDA:1552,_ZNK5Nexus3rpc20SharedMemoryRegistry16getCurrentTimeMsEv
FNDA:242,_ZN5Nexus3rpc20SharedMemoryRegistry10initializeEv
FNDA:246,_ZN5Nexus3rpc20SharedMemoryRegistryD2Ev
FNDA:1741,_ZNK5Nexus3rpc20SharedMemoryRegistry14findEntryIndexERKNSt7__cxx1112basic_stringIcSt11char_traitsIcESaIcEEE
FNDA:1981,_ZN5Nexus3rpc20SharedMemoryRegistry17writeAtomicStringEPSt6atomicImERKNSt7__cxx1112basic_stringIcSt11char_traitsIcESaIcEEEm
FNDA:256,_ZN5Nexus3rpc20SharedMemoryRegistry17cleanupStaleNodesEm
FNDA:951,_ZN5Nexus3rpc20SharedMemoryRegistry12registerNodeERKNSt7__cxx1112basic_stringIcSt11char_traitsIcESaIcEEES9_
FNDA:362,_ZN5Nexus3rpc20SharedMemoryRegistry15updateHeartbeatERKNSt7__cxx1112basic_stringIcSt11char_traitsIcESaIcEEE
FNDA:373,_ZNK5Nexus3rpc20SharedMemoryRegistry14isProcessAliveEi
FNDA:11258,_ZNK5Nexus3rpc20SharedMemoryRegistry11getAllNodesEv
FNDA:4,_ZNK5Nexus3rpc20SharedMemoryRegistry16amICleanupMasterEv
FNDA:223,_ZN5Nexus3rpc20SharedMemoryRegistry14unregisterNodeERKNSt7__cxx1112basic_stringIcSt11char_traitsIcESaIcEEE
FNDA:141526,_ZN5Nexus3rpc20SharedMemoryRegistry16readAtomicStringB5cxx11EPKSt6atomicImEm
FNF:20
FNH:19
DA:28,247
DA:29,247
DA:31,246
DA:32,246
DA:34,229
DA:35,229
DA:37,229
DA:39,1
DA:40,1
DA:43,229
DA:45,229
DA:46,1515
DA:47,1515
DA:48,3030
DA:49,229
DA:54,229
DA:55,229
DA:60,229
DA:61,229
DA:64,229
DA:65,229
DA:66,0
DA:70,229
DA:71,229
DA:72,229
DA:74,229
DA:75,229
DA:76,229
DA:79,229
DA:81,229
DA:83,122
DA:86,246
DA:88,242
DA:89,242
DA:90,2
DA:94,240
DA:95,240
DA:97,240
DA:99,116
DA:100,116
DA:101,0
DA:102,4
DA:107,116
DA:108,116
DA:109,2
DA:111,2
DA:112,0
DA:113,0
DA:114,0
DA:115,0
DA:117,2
DA:118,2
DA:119,114
DA:120,4
DA:123,4
DA:124,4
DA:125,4
DA:130,124
DA:131,0
DA:133,0
DA:134,0
DA:138,0
DA:139,0
DA:144,124
DA:145,124
DA:146,0
DA:149,0
DA:150,0
DA:151,0
DA:157,236
DA:158,236
DA:159,0
DA:160,0
DA:161,0
DA:165,0
DA:166,0
DA:168,0
DA:171,236
DA:173,236
DA:178,126
DA:179,126
DA:180,126
DA:181,126
DA:182,126
DA:185,126
DA:186,126
DA:187,126
DA:190,32382
DA:191,32256
DA:195,126
DA:198,32382
DA:199,32256
DA:201,290304
DA:202,258048
DA:203,258048
DA:205,32256
DA:206,32256
DA:211,126
DA:212,126
DA:216,126
DA:218,126
DA:221,110
DA:223,710
DA:225,704
DA:226,704
DA:228,104
DA:230,104
DA:232,0
DA:233,0
DA:234,0
DA:237,104
DA:239,208
DA:240,104
DA:243,104
DA:244,104
DA:247,1390
DA:248,1390
DA:249,2780
DA:251,104
DA:252,104
DA:257,104
DA:258,104
DA:260,0
DA:263,0
DA:268,104
DA:270,104
DA:271,104
DA:276,600
DA:279,110
DA:280,6
DA:284,6
DA:287,6
DA:288,6
DA:289,6
DA:290,6
DA:292,6
DA:293,6
DA:296,6
DA:297,4
DA:300,6
DA:303,208
DA:307,230
DA:308,230
DA:311,951
DA:312,951
DA:313,0
DA:316,951
DA:317,4
DA:320,947
DA:321,4
DA:322,4
DA:326,943
DA:327,943
DA:328,0
DA:329,0
DA:333,943
DA:334,943
DA:336,3
DA:339,3
DA:340,3
DA:341,3
DA:342,3
DA:343,3
DA:347,3
DA:350,3
DA:352,3
DA:353,3
DA:359,940
DA:360,76951
DA:361,76949
DA:362,76949
DA:365,153898
DA:366,938
DA:367,938
DA:371,940
DA:372,2
DA:373,2
DA:377,938
DA:380,938
DA:381,938
DA:382,938
DA:383,938
DA:384,938
DA:385,938
DA:389,938
DA:392,938
DA:395,938
DA:397,1876
DA:400,938
DA:401,943
DA:403,223
DA:404,223
DA:405,0
DA:409,223
DA:410,223
DA:411,0
DA:412,0
DA:415,223
DA:416,223
DA:417,5
DA:421,218
DA:424,218
DA:427,218
DA:430,218
DA:434,1962
DA:435,1744
DA:436,1744
DA:438,218
DA:439,218
DA:441,436
DA:444,218
DA:445,223
DA:447,362
DA:448,362
DA:449,0
DA:453,362
DA:454,362
DA:455,2
DA:456,2
DA:459,360
DA:460,360
DA:461,5
DA:465,355
DA:466,355
DA:469,355
DA:470,355
DA:473,355
DA:474,355
DA:476,0
DA:479,355
DA:480,362
DA:482,11258
DA:483,11258
DA:485,11258
DA:486,0
DA:490,11258
DA:491,11258
DA:492,0
DA:493,0
DA:496,2893306
DA:497,2882048
DA:499,2882048
DA:501,2882048
DA:502,2850041
DA:506,32007
DA:507,32007
DA:508,32007
DA:509,32007
DA:510,32007
DA:511,32007
DA:513,32007
DA:514,32007
DA:516,11258
DA:517,11258
DA:519,202
DA:520,202
DA:521,0
DA:525,202
DA:526,202
DA:527,0
DA:528,0
DA:531,202
DA:532,202
DA:533,59
DA:536,143
DA:539,143
DA:540,143
DA:541,143
DA:542,143
DA:543,143
DA:545,143
DA:546,202
DA:548,13
DA:549,13
DA:550,0
DA:554,13
DA:555,13
DA:556,0
DA:559,13
DA:560,13
DA:561,8
DA:565,5
DA:566,5
DA:567,13
DA:569,256
DA:570,256
DA:571,0
DA:575,256
DA:576,256
DA:577,0
DA:578,0
DA:581,256
DA:582,256
DA:584,65792
DA:585,65536
DA:587,65536
DA:589,65536
DA:590,65163
DA:594,373
DA:595,373
DA:601,373
DA:602,0
DA:608,373
DA:609,373
DA:610,373
DA:613,0
DA:616,373
DA:617,373
DA:619,373
DA:621,10
DA:624,10
DA:627,10
DA:628,10
DA:629,10
DA:630,15
DA:632,5
DA:635,10
DA:639,10
DA:640,10
DA:643,20
DA:645,0
DA:649,10
DA:652,10
DA:655,10
DA:656,10
DA:657,90
DA:658,80
DA:659,80
DA:663,10
DA:665,10
DA:666,10
DA:669,256
DA:670,256
DA:672,4
DA:673,4
DA:674,0
DA:678,8
DA:681,4
DA:682,4
DA:683,0
DA:686,4
DA:687,4
DA:688,0
DA:691,4
DA:692,4
DA:695,1028
DA:696,1024
DA:697,1024
DA:699,6
DA:700,6
DA:701,4
DA:708,4
DA:709,4
DA:711,135
DA:713,135
DA:714,135
DA:715,4
DA:719,131
DA:720,131
DA:721,0
DA:724,0
DA:725,0
DA:728,131
DA:733,131
DA:734,131
DA:736,131
DA:738,131
DA:739,2
DA:740,2
DA:741,2
DA:742,2
DA:745,129
DA:747,0
DA:748,0
DA:749,129
DA:750,0
DA:751,0
DA:752,0
DA:753,0
DA:758,258
DA:760,124
DA:765,124
DA:768,31868
DA:769,31744
DA:770,31744
DA:771,4
DA:776,31868
DA:777,31744
DA:778,31744
DA:779,720
DA:780,720
DA:781,720
DA:786,124
DA:791,124
DA:793,110
DA:794,110
DA:795,110
DA:796,110
DA:797,110
DA:800,14
DA:802,14
DA:803,14
DA:804,14
DA:806,124
DA:809,5
DA:811,5
DA:813,4
DA:814,4
DA:815,4
DA:816,4
DA:817,4
DA:818,4
DA:822,1
DA:823,1
DA:824,1
DA:825,1
DA:829,125
DA:832,51
DA:834,51
DA:835,51
DA:836,32
DA:837,32
DA:838,32
DA:841,0
DA:842,0
DA:846,19
DA:847,19
DA:848,0
DA:850,0
DA:851,0
DA:852,0
DA:853,0
DA:855,0
DA:858,19
DA:862,19
DA:863,19
DA:865,19
DA:867,19
DA:868,0
DA:869,0
DA:872,19
DA:874,17
DA:875,17
DA:876,17
DA:877,17
DA:878,17
DA:879,17
DA:880,17
DA:882,0
DA:885,2
DA:886,2
DA:887,2
DA:888,2
DA:894,1741
DA:895,262648
DA:896,261631
DA:898,261631
DA:900,261631
DA:901,184515
DA:905,77116
DA:907,77116
DA:908,724
DA:910,77116
DA:911,1017
DA:914,0
DA:915,1280
DA:917,0
DA:918,0
DA:921,1280
DA:922,1280
DA:923,1280
DA:924,272
DA:926,204
DA:927,204
DA:928,0
DA:930,476
DA:931,272
DA:932,272
DA:934,1856
DA:935,169
DA:936,169
DA:937,1856
DA:938,1856
DA:939,2025
DA:940,3712
DA:943,16829
DA:945,14848
DA:946,14973
DA:947,125
DA:948,1981
DA:949,250
DA:950,78174
DA:952,79299
DA:953,78174
DA:954,79174
DA:955,1000
DA:957,703691
DA:958,625392
DA:959,688744
DA:961,63352
DA:962,141526
DA:963,63352
DA:966,648342
DA:967,584990
DA:968,584990
DA:971,63352
DA:975,63352
DA:976,63352
DA:977,63352
LF:509
LH:434
end_of_record
TN:
SF:/home/fz296w/workspace/Nexus/Nexus/src/transport/LargeDataChannel.cpp
FN:69,_ZNK5Nexus3rpc16LargeDataChannel14calculateCRC32EPKhm
FN:78,_ZN5Nexus3rpc16LargeDataChannel6createERKNSt7__cxx1112basic_stringIcSt11char_traitsIcESaIcEEERKNS1_6ConfigE
FN:104,_ZN5Nexus3rpc16LargeDataChannelC2ERKNSt7__cxx1112basic_stringIcSt11char_traitsIcESaIcEEERKNS1_6ConfigE
FN:119,_ZN5Nexus3rpc16LargeDataChannelD2Ev
FN:168,_ZN5Nexus3rpc16LargeDataChannel10initializeEv
FN:261,_ZN5Nexus3rpc16LargeDataChannel5writeERKNSt7__cxx1112basic_stringIcSt11char_traitsIcESaIcEEEPKhm
FN:380,_ZN5Nexus3rpc16LargeDataChannel7tryReadERNS1_9DataBlockE
FN:455,_ZN5Nexus3rpc16LargeDataChannel12releaseBlockERKNS1_9DataBlockE
FN:470,_ZNK5Nexus3rpc16LargeDataChannel13validateBlockEPKNS0_15LargeDataHeaderEm
FN:503,_ZNK5Nexus3rpc16LargeDataChannel8getStatsEv
FN:519,_ZNK5Nexus3rpc16LargeDataChannel17getAvailableSpaceEv
FN:533,_ZNK5Nexus3rpc16LargeDataChannel8canWriteEm
FN:538,_ZN5Nexus3rpc16LargeDataChannel17setOverflowPolicyENS0_23LargeDataOverflowPolicyE
FN:547,_ZN5Nexus3rpc16LargeDataChannel19setOverflowCallbackESt8functionIFvRKNSt7__cxx1112basic_stringIcSt11char_traitsIcESaIcEEESA_mmEE
FN:553,_ZN5Nexus3rpc16LargeDataChannel23cleanupOrphanedChannelsEj
FN:568,_ZZN5Nexus3rpc16LargeDataChannel23cleanupOrphanedChannelsEjENKUliE_clEi
FN:715,_ZN5Nexus3rpc16LargeDataChannel14registerReaderEv
FN:742,_ZN5Nexus3rpc16LargeDataChannel16unregisterReaderEi
FN:759,_ZNK5Nexus3rpc16LargeDataChannel13getMinReadPosEv
FN:775,_ZN5Nexus3rpc16LargeDataChannel21updateReaderHeartbeatEi
FN:785,_ZN5Nexus3rpc16LargeDataChannel18cleanupDeadReadersEv
FN:796,_ZZN5Nexus3rpc16LargeDataChannel18cleanupDeadReadersEvENKUliE_clEi
FNDA:7,_ZN5Nexus3rpc16LargeDataChannel12releaseBlockERKNS1_9DataBlockE
FNDA:30,_ZN5Nexus3rpc16LargeDataChannelD2Ev
FNDA:0,_ZNK5Nexus3rpc16LargeDataChannel17getAvailableSpaceEv
FNDA:341,_ZN5Nexus3rpc16LargeDataChannel5writeERKNSt7__cxx1112basic_stringIcSt11char_traitsIcESaIcEEEPKhm
FNDA:17,_ZN5Nexus3rpc16LargeDataChannel16unregisterReaderEi
FNDA:0,_ZNK5Nexus3rpc16LargeDataChannel8canWriteEm
FNDA:358,_ZNK5Nexus3rpc16LargeDataChannel13getMinReadPosEv
FNDA:21,_ZN5Nexus3rpc16LargeDataChannel21updateReaderHeartbeatEi
FNDA:30,_ZN5Nexus3rpc16LargeDataChannel10initializeEv
FNDA:304,_ZNK5Nexus3rpc16LargeDataChannel14calculateCRC32EPKhm
FNDA:0,_ZNK5Nexus3rpc16LargeDataChannel8getStatsEv
FNDA:337,_ZN5Nexus3rpc16LargeDataChannel18cleanupDeadReadersEv
FNDA:0,_ZN5Nexus3rpc16LargeDataChannel17setOverflowPolicyENS0_23LargeDataOverflowPolicyE
FNDA:0,_ZN5Nexus3rpc16LargeDataChannel19setOverflowCallbackESt8functionIFvRKNSt7__cxx1112basic_stringIcSt11char_traitsIcESaIcEEESA_mmEE
FNDA:11,_ZNK5Nexus3rpc16LargeDataChannel13validateBlockEPKNS0_15LargeDataHeaderEm
FNDA:30,_ZN5Nexus3rpc16LargeDataChannel6createERKNSt7__cxx1112basic_stringIcSt11char_traitsIcESaIcEEERKNS1_6ConfigE
FNDA:17,_ZN5Nexus3rpc16LargeDataChannel14registerReaderEv
FNDA:4,_ZZN5Nexus3rpc16LargeDataChannel23cleanupOrphanedChannelsEjENKUliE_clEi
FNDA:30,_ZN5Nexus3rpc16LargeDataChannelC2ERKNSt7__cxx1112basic_stringIcSt11char_traitsIcESaIcEEERKNS1_6ConfigE
FNDA:2,_ZZN5Nexus3rpc16LargeDataChannel18cleanupDeadReadersEvENKUliE_clEi
FNDA:21,_ZN5Nexus3rpc16LargeDataChannel7tryReadERNS1_9DataBlockE
FNDA:11,_ZN5Nexus3rpc16LargeDataChannel23cleanupOrphanedChannelsEj
FNF:22
FNH:17
DA:69,304
DA:70,304
DA:71,308104
DA:72,307800
DA:74,304
DA:78,30
DA:80,30
DA:81,3
DA:83,3
DA:84,3
DA:85,3
DA:86,3
DA:87,0
DA:89,3
DA:91,3
DA:93,3
DA:95,30
DA:97,30
DA:98,0
DA:101,30
DA:102,30
DA:104,30
DA:105,30
DA:106,30
DA:107,30
DA:108,30
DA:109,30
DA:110,30
DA:111,30
DA:112,30
DA:113,30
DA:114,30
DA:115,30
DA:116,30
DA:117,30
DA:119,39
DA:121,30
DA:122,17
DA:126,60
DA:127,30
DA:129,60
DA:130,30
DA:133,30
DA:134,21
DA:137,21
DA:138,21
DA:139,21
DA:143,21
DA:144,21
DA:145,21
DA:149,21
DA:150,15
DA:152,6
DA:155,21
DA:160,9
DA:161,9
DA:163,9
DA:164,9
DA:166,51
DA:168,30
DA:170,30
DA:173,30
DA:174,30
DA:176,30
DA:179,30
DA:180,30
DA:181,0
DA:182,0
DA:187,30
DA:188,0
DA:189,0
DA:190,0
DA:191,0
DA:195,30
DA:197,30
DA:198,21
DA:199,0
DA:200,0
DA:201,0
DA:202,0
DA:207,30
DA:208,30
DA:209,30
DA:212,30
DA:214,30
DA:215,0
DA:216,0
DA:217,0
DA:218,0
DA:222,30
DA:223,30
DA:226,30
DA:227,21
DA:228,21
DA:229,21
DA:230,21
DA:231,21
DA:232,21
DA:234,21
DA:235,21
DA:238,357
DA:239,336
DA:240,336
DA:241,336
DA:242,336
DA:245,42
DA:246,21
DA:247,21
DA:248,21
DA:249,21
DA:252,9
DA:253,18
DA:254,9
DA:257,30
DA:258,30
DA:261,341
DA:262,341
DA:263,4
DA:264,4
DA:268,337
DA:271,337
DA:274,337
DA:275,337
DA:276,337
DA:279,337
DA:280,44
DA:281,34
DA:284,34
DA:285,34
DA:287,6
DA:290,6
DA:291,6
DA:294,6
DA:296,4
DA:297,4
DA:298,0
DA:300,0
DA:303,6
DA:305,4
DA:307,4
DA:308,4
DA:311,38
DA:315,293
DA:316,293
DA:319,293
DA:322,293
DA:325,293
DA:327,0
DA:328,0
DA:329,0
DA:330,0
DA:333,0
DA:334,0
DA:335,0
DA:337,0
DA:338,0
DA:339,0
DA:340,0
DA:341,0
DA:348,293
DA:349,293
DA:350,293
DA:351,293
DA:352,293
DA:353,293
DA:356,293
DA:357,293
DA:360,293
DA:367,293
DA:370,293
DA:373,293
DA:374,293
DA:376,293
DA:380,21
DA:382,21
DA:383,17
DA:384,17
DA:385,0
DA:386,0
DA:391,21
DA:394,21
DA:395,21
DA:399,21
DA:400,21
DA:402,0
DA:403,0
DA:404,0
DA:405,0
DA:409,21
DA:410,10
DA:417,11
DA:418,11
DA:421,11
DA:422,0
DA:426,11
DA:429,11
DA:431,11
DA:433,2
DA:435,0
DA:436,0
DA:439,2
DA:440,2
DA:441,2
DA:446,9
DA:447,9
DA:448,9
DA:449,9
DA:451,9
DA:455,7
DA:456,7
DA:457,0
DA:461,7
DA:462,7
DA:465,7
DA:466,7
DA:470,11
DA:473,11
DA:474,11
DA:475,0
DA:479,11
DA:480,0
DA:481,0
DA:485,11
DA:486,11
DA:487,0
DA:491,11
DA:492,11
DA:494,11
DA:495,2
DA:496,2
DA:499,9
DA:503,0
DA:505,0
DA:506,0
DA:507,0
DA:508,0
DA:510,0
DA:511,0
DA:512,0
DA:513,0
DA:515,0
DA:519,0
DA:520,0
DA:521,0
DA:523,0
DA:525,0
DA:526,0
DA:529,0
DA:533,0
DA:534,0
DA:538,0
DA:539,0
DA:540,0
DA:541,0
DA:542,0
DA:543,0
DA:544,0
DA:547,0
DA:548,0
DA:549,0
DA:550,0
DA:553,11
DA:554,11
DA:556,11
DA:557,11
DA:558,0
DA:559,0
DA:563,11
DA:564,11
DA:565,11
DA:568,4
DA:569,4
DA:570,0
DA:574,4
DA:575,2
DA:580,2
DA:583,242
DA:584,231
DA:587,231
DA:588,225
DA:592,6
DA:593,6
DA:594,0
DA:599,6
DA:600,0
DA:601,0
DA:604,6
DA:607,6
DA:608,6
DA:609,0
DA:610,0
DA:613,6
DA:614,6
DA:617,6
DA:618,6
DA:621,6
DA:622,6
DA:623,2
DA:624,2
DA:628,6
DA:629,4
DA:630,4
DA:633,4
DA:634,68
DA:635,64
DA:636,0
DA:637,0
DA:638,0
DA:639,0
DA:645,4
DA:646,2
DA:647,2
DA:652,6
DA:653,2
DA:654,2
DA:657,2
DA:658,2
DA:659,2
DA:660,0
DA:661,0
DA:662,0
DA:663,0
DA:664,0
DA:665,0
DA:671,2
DA:672,0
DA:673,0
DA:678,0
DA:679,0
DA:680,0
DA:685,6
DA:686,6
DA:688,6
DA:689,4
DA:690,4
DA:691,4
DA:692,8
DA:693,4
DA:695,0
DA:698,231
DA:700,11
DA:702,11
DA:703,8
DA:704,4
DA:706,7
DA:709,11
DA:715,17
DA:717,17
DA:718,17
DA:719,17
DA:723,17
DA:724,17
DA:725,17
DA:728,17
DA:730,34
DA:731,17
DA:733,17
DA:737,0
DA:738,0
DA:742,17
DA:743,17
DA:744,0
DA:748,17
DA:749,17
DA:752,17
DA:754,34
DA:755,17
DA:759,358
DA:760,358
DA:762,6086
DA:763,5728
DA:764,351
DA:765,351
DA:766,331
DA:771,358
DA:775,21
DA:776,21
DA:777,0
DA:780,21
DA:781,21
DA:785,337
DA:786,337
DA:790,337
DA:791,332
DA:793,5
DA:796,2
DA:797,2
DA:798,0
DA:800,2
DA:801,2
DA:803,0
DA:806,85
DA:807,80
DA:808,78
DA:811,2
DA:812,2
DA:815,2
DA:818,2
DA:820,2
DA:821,0
DA:822,0
DA:825,0
DA:826,0
LF:403
LH:295
end_of_record
TN:
SF:/home/fz296w/workspace/Nexus/Nexus/src/transport/SharedMemoryTransportV3.cpp
FN:73,_ZN5Nexus3rpcL16isControlMessageEPKhm
FN:88,_ZN5Nexus3rpc23SharedMemoryTransportV3C2Ev
FN:98,_ZN5Nexus3rpc23SharedMemoryTransportV3D2Ev
FN:221,_ZN5Nexus3rpc23SharedMemoryTransportV310initializeERKNSt7__cxx1112basic_stringIcSt11char_traitsIcESaIcEEERKNS1_6ConfigE
FN:286,_ZN5Nexus3rpc23SharedMemoryTransportV34sendERKNSt7__cxx1112basic_stringIcSt11char_traitsIcESaIcEEEPKhm
FN:445,_ZN5Nexus3rpc23SharedMemoryTransportV39broadcastEPKhm
FN:475,_ZN5Nexus3rpc23SharedMemoryTransportV318setReceiveCallbackESt8functionIFvPKhmRKNSt7__cxx1112basic_stringIcSt11char_traitsIcESaIcEEEEE
FN:479,_ZN5Nexus3rpc23SharedMemoryTransportV314startReceivingEv
FN:490,_ZZN5Nexus3rpc23SharedMemoryTransportV314startReceivingEvENKUlvE_clEv
FN:493,_ZZN5Nexus3rpc23SharedMemoryTransportV314startReceivingEvENKUlvE0_clEv
FN:498,_ZN5Nexus3rpc23SharedMemoryTransportV313stopReceivingEv
FN:552,_ZNK5Nexus3rpc23SharedMemoryTransportV313getLocalNodesB5cxx11Ev
FN:569,_ZNK5Nexus3rpc23SharedMemoryTransportV311isLocalNodeERKNSt7__cxx1112basic_stringIcSt11char_traitsIcESaIcEEE
FN:577,_ZNK5Nexus3rpc23SharedMemoryTransportV318getConnectionCountEv
FN:588,_ZN5Nexus3rpc23SharedMemoryTransportV317warmupConnectionsEv
FN:607,_ZNK5Nexus3rpc23SharedMemoryTransportV38getStatsEv
FN:642,_ZN5Nexus3rpc23SharedMemoryTransportV321cleanupOrphanedMemoryEv
FN:649,_ZZN5Nexus3rpc23SharedMemoryTransportV321cleanupOrphanedMemoryEvENKUliE_clEi
FN:775,_ZN5Nexus3rpc23SharedMemoryTransportV318getActiveNodeCountEv
FN:787,_ZN5Nexus3rpc23SharedMemoryTransportV320createMySharedMemoryEv
FN:884,_ZN5Nexus3rpc23SharedMemoryTransportV321destroyMySharedMemoryEv
FN:906,_ZN5Nexus3rpc23SharedMemoryTransportV313connectToNodeERKNSt7__cxx1112basic_stringIcSt11char_traitsIcESaIcEEE
FN:1049,_ZN5Nexus3rpc23SharedMemoryTransportV318disconnectFromNodeERKNSt7__cxx1112basic_stringIcSt11char_traitsIcESaIcEEE
FN:1076,_ZN5Nexus3rpc23SharedMemoryTransportV317findOrCreateQueueEPNS1_16NodeSharedMemoryERKNSt7__cxx1112basic_stringIcSt11char_traitsIcESaIcEEE
FN:1163,_ZN5Nexus3rpc23SharedMemoryTransportV311receiveLoopEv
FN:1172,_ZN5Nexus3rpc23SharedMemoryTransportV314receiveLoop_CVEv
FN:1236,_ZZN5Nexus3rpc23SharedMemoryTransportV314receiveLoop_CVEvENKUlvE_clEv
FN:1373,_ZN5Nexus3rpc23SharedMemoryTransportV321receiveLoop_SemaphoreEv
FN:1546,_ZN5Nexus3rpc23SharedMemoryTransportV313heartbeatLoopEv
FN:1657,_ZN5Nexus3rpc23SharedMemoryTransportV318cleanupStaleQueuesEv
FN:1677,_ZN5Nexus3rpc23SharedMemoryTransportV315generateShmNameB5cxx11Ev
FN:1685,_ZN5Nexus3rpc23SharedMemoryTransportV311addAccessorEi
FN:1693,_ZN5Nexus3rpc23SharedMemoryTransportV314removeAccessorEi
FN:1701,_ZN5Nexus3rpc23SharedMemoryTransportV317addAccessorToNodeEPNS1_10NodeHeaderEi
FN:1727,_ZN5Nexus3rpc23SharedMemoryTransportV322removeAccessorFromNodeEPNS1_10NodeHeaderEi
FN:1748,_ZN5Nexus3rpc23SharedMemoryTransportV318hasActiveAccessorsEPNS1_10NodeHeaderE
FNDA:250,_ZN5Nexus3rpc23SharedMemoryTransportV318cleanupStaleQueuesEv
FNDA:2,_ZN5Nexus3rpc23SharedMemoryTransportV318getActiveNodeCountEv
FNDA:14,_ZNK5Nexus3rpc23SharedMemoryTransportV318getConnectionCountEv
FNDA:0,_ZN5Nexus3rpc23SharedMemoryTransportV321destroyMySharedMemoryEv
FNDA:122,_ZN5Nexus3rpc23SharedMemoryTransportV317findOrCreateQueueEPNS1_16NodeSharedMemoryERKNSt7__cxx1112basic_stringIcSt11char_traitsIcESaIcEEE
FNDA:95,_ZN5Nexus3rpc23SharedMemoryTransportV318setReceiveCallbackESt8functionIFvPKhmRKNSt7__cxx1112basic_stringIcSt11char_traitsIcESaIcEEEEE
FNDA:289,_ZN5Nexus3rpc23SharedMemoryTransportV39broadcastEPKhm
FNDA:103,_ZN5Nexus3rpc23SharedMemoryTransportV313heartbeatLoopEv
FNDA:1283,_ZN5Nexus3rpcL16isControlMessageEPKhm
FNDA:181,_ZN5Nexus3rpc23SharedMemoryTransportV314removeAccessorEi
FNDA:146,_ZN5Nexus3rpc23SharedMemoryTransportV313connectToNodeERKNSt7__cxx1112basic_stringIcSt11char_traitsIcESaIcEEE
FNDA:185,_ZN5Nexus3rpc23SharedMemoryTransportV318hasActiveAccessorsEPNS1_10NodeHeaderE
FNDA:213,_ZN5Nexus3rpc23SharedMemoryTransportV313stopReceivingEv
FNDA:2,_ZN5Nexus3rpc23SharedMemoryTransportV321cleanupOrphanedMemoryEv
FNDA:4,_ZZN5Nexus3rpc23SharedMemoryTransportV321cleanupOrphanedMemoryEvENKUliE_clEi
FNDA:1294,_ZN5Nexus3rpc23SharedMemoryTransportV34sendERKNSt7__cxx1112basic_stringIcSt11char_traitsIcESaIcEEEPKhm
FNDA:188,_ZN5Nexus3rpc23SharedMemoryTransportV3C2Ev
FNDA:0,_ZN5Nexus3rpc23SharedMemoryTransportV311addAccessorEi
FNDA:1304,_ZZN5Nexus3rpc23SharedMemoryTransportV314receiveLoop_CVEvENKUlvE_clEv
FNDA:103,_ZN5Nexus3rpc23SharedMemoryTransportV314startReceivingEv
FNDA:4,_ZNK5Nexus3rpc23SharedMemoryTransportV311isLocalNodeERKNSt7__cxx1112basic_stringIcSt11char_traitsIcESaIcEEE
FNDA:26,_ZN5Nexus3rpc23SharedMemoryTransportV318disconnectFromNodeERKNSt7__cxx1112basic_stringIcSt11char_traitsIcESaIcEEE
FNDA:188,_ZN5Nexus3rpc23SharedMemoryTransportV3D2Ev
FNDA:199,_ZN5Nexus3rpc23SharedMemoryTransportV310initializeERKNSt7__cxx1112basic_stringIcSt11char_traitsIcESaIcEEERKNS1_6ConfigE
FNDA:0,_ZN5Nexus3rpc23SharedMemoryTransportV317addAccessorToNodeEPNS1_10NodeHeaderEi
FNDA:8,_ZNK5Nexus3rpc23SharedMemoryTransportV38getStatsEv
FNDA:181,_ZN5Nexus3rpc23SharedMemoryTransportV315generateShmNameB5cxx11Ev
FNDA:103,_ZN5Nexus3rpc23SharedMemoryTransportV311receiveLoopEv
FNDA:103,_ZZN5Nexus3rpc23SharedMemoryTransportV314startReceivingEvENKUlvE_clEv
FNDA:193,_ZN5Nexus3rpc23SharedMemoryTransportV322removeAccessorFromNodeEPNS1_10NodeHeaderEi
FNDA:10485,_ZNK5Nexus3rpc23SharedMemoryTransportV313getLocalNodesB5cxx11Ev
FNDA:2,_ZN5Nexus3rpc23SharedMemoryTransportV317warmupConnectionsEv
FNDA:101,_ZN5Nexus3rpc23SharedMemoryTransportV314receiveLoop_CVEv
FNDA:103,_ZZN5Nexus3rpc23SharedMemoryTransportV314startReceivingEvENKUlvE0_clEv
FNDA:2,_ZN5Nexus3rpc23SharedMemoryTransportV321receiveLoop_SemaphoreEv
FNDA:181,_ZN5Nexus3rpc23SharedMemoryTransportV320createMySharedMemoryEv
FNF:36
FNH:33
DA:73,1283
DA:74,1283
DA:75,59
DA:79,1224
DA:85,1224
DA:88,188
DA:89,188
DA:90,188
DA:92,188
DA:93,188
DA:94,188
DA:95,188
DA:96,188
DA:98,188
DA:99,188
DA:103,188
DA:105,188
DA:106,188
DA:108,288
DA:109,100
DA:112,100
DA:115,100
DA:116,100
DA:118,100
DA:119,100
DA:120,100
DA:121,100
DA:122,0
DA:123,0
DA:124,0
DA:127,100
DA:131,188
DA:132,188
DA:136,188
DA:137,288
DA:138,100
DA:139,100
DA:142,2254
DA:143,2221
DA:144,4442
DA:146,67
DA:147,134
DA:148,67
DA:149,67
DA:156,288
DA:157,100
DA:158,100
DA:160,100
DA:161,100
DA:164,188
DA:167,376
DA:168,188
DA:170,188
DA:171,181
DA:172,181
DA:174,14
DA:175,7
DA:179,188
DA:180,181
DA:181,181
DA:192,188
DA:194,188
DA:196,188
DA:197,181
DA:198,173
DA:201,188
DA:202,181
DA:203,181
DA:204,181
DA:206,188
DA:207,181
DA:208,181
DA:210,188
DA:211,173
DA:212,170
DA:214,3
DA:218,188
DA:219,188
DA:221,199
DA:222,199
DA:223,4
DA:226,195
DA:227,7
DA:228,7
DA:232,188
DA:233,14
DA:234,7
DA:235,7
DA:238,181
DA:239,181
DA:240,181
DA:243,181
DA:244,0
DA:245,0
DA:249,181
DA:252,181
DA:253,0
DA:254,0
DA:258,181
DA:259,0
DA:260,0
DA:261,0
DA:265,181
DA:267,181
DA:269,181
DA:270,181
DA:271,173
DA:272,8
DA:273,4
DA:274,4
DA:275,4
DA:278,362
DA:279,181
DA:280,181
DA:281,181
DA:283,181
DA:286,1294
DA:287,1294
DA:288,4
DA:291,1290
DA:292,7
DA:296,1283
DA:300,1283
DA:301,1283
DA:302,1283
DA:303,1185
DA:310,1185
DA:311,190
DA:312,190
DA:313,190
DA:315,995
DA:316,995
DA:317,995
DA:321,1185
DA:322,995
DA:323,995
DA:324,0
DA:325,0
DA:326,0
DA:332,1185
DA:333,1185
DA:334,1185
DA:335,1185
DA:338,1185
DA:339,0
DA:340,0
DA:341,0
DA:344,1185
DA:345,1185
DA:347,463
DA:349,463
DA:354,1185
DA:355,995
DA:356,995
DA:357,0
DA:361,0
DA:364,0
DA:365,0
DA:366,0
DA:367,0
DA:368,0
DA:372,1185
DA:374,1283
DA:377,196
DA:378,98
DA:380,98
DA:381,27
DA:382,27
DA:383,27
DA:386,71
DA:390,71
DA:391,71
DA:392,71
DA:393,71
DA:400,71
DA:401,30
DA:402,30
DA:403,30
DA:405,41
DA:406,41
DA:407,41
DA:410,71
DA:411,71
DA:412,71
DA:413,71
DA:416,71
DA:417,2
DA:418,2
DA:419,2
DA:422,69
DA:423,69
DA:425,67
DA:427,67
DA:431,0
DA:432,0
DA:433,0
DA:434,0
DA:437,71
DA:439,71
DA:441,0
DA:442,0
DA:445,289
DA:446,289
DA:447,0
DA:451,289
DA:452,289
DA:454,289
DA:456,668
DA:457,379
DA:458,286
DA:461,186
DA:462,93
DA:464,93
DA:465,89
DA:466,89
DA:468,4
DA:472,289
DA:473,289
DA:475,95
DA:476,95
DA:477,95
DA:479,103
DA:480,103
DA:481,0
DA:484,103
DA:487,103
DA:490,206
DA:493,206
DA:495,103
DA:498,213
DA:499,213
DA:500,110
DA:503,103
DA:506,103
DA:513,103
DA:514,103
DA:515,103
DA:519,103
DA:520,103
DA:521,103
DA:523,103
DA:524,103
DA:525,103
DA:528,0
DA:529,0
DA:533,103
DA:534,103
DA:535,103
DA:537,103
DA:539,103
DA:540,103
DA:541,103
DA:543,103
DA:547,103
DA:549,103
DA:552,10485
DA:553,10485
DA:555,10485
DA:556,2
DA:559,10483
DA:560,41392
DA:561,30909
DA:562,30909
DA:566,10483
DA:567,10483
DA:569,4
DA:570,4
DA:571,0
DA:574,4
DA:577,14
DA:578,14
DA:579,14
DA:580,24
DA:581,10
DA:582,10
DA:585,14
DA:586,14
DA:588,2
DA:589,2
DA:590,0
DA:593,2
DA:594,2
DA:596,4
DA:597,2
DA:598,0
DA:599,0
DA:604,2
DA:605,2
DA:607,8
DA:609,8
DA:610,8
DA:611,8
DA:612,8
DA:613,8
DA:614,8
DA:615,16
DA:618,8
DA:619,8
DA:620,8
DA:621,8
DA:622,6
DA:623,6
DA:624,12
DA:625,6
DA:627,12
DA:629,6
DA:630,6
DA:633,6
DA:634,6
DA:639,8
DA:642,2
DA:643,2
DA:645,2
DA:646,2
DA:649,4
DA:650,4
DA:651,0
DA:655,4
DA:656,4
DA:661,0
DA:669,2
DA:672,2
DA:673,2
DA:674,0
DA:675,0
DA:679,30
DA:680,28
DA:683,28
DA:684,24
DA:688,4
DA:689,4
DA:690,4
DA:691,0
DA:696,4
DA:697,0
DA:698,0
DA:701,4
DA:704,4
DA:705,4
DA:706,0
DA:707,0
DA:710,4
DA:711,4
DA:714,4
DA:717,8
DA:718,4
DA:722,4
DA:723,4
DA:728,4
DA:729,0
DA:730,0
DA:731,0
DA:732,4
DA:734,0
DA:735,0
DA:739,0
DA:740,0
DA:743,4
DA:744,4
DA:746,4
DA:747,0
DA:748,0
DA:749,0
DA:750,0
DA:751,0
DA:753,0
DA:756,28
DA:758,2
DA:761,2
DA:762,2
DA:765,2
DA:766,0
DA:767,0
DA:769,2
DA:772,2
DA:775,2
DA:777,2
DA:778,2
DA:779,0
DA:782,2
DA:783,2
DA:787,181
DA:789,181
DA:790,181
DA:792,3
DA:793,3
DA:794,3
DA:795,0
DA:796,0
DA:801,181
DA:802,181
DA:803,0
DA:804,0
DA:805,0
DA:806,0
DA:807,0
DA:815,181
DA:817,181
DA:818,0
DA:819,0
DA:820,0
DA:821,0
DA:822,0
DA:825,181
DA:828,181
DA:829,181
DA:830,181
DA:832,181
DA:834,181
DA:835,181
DA:836,181
DA:838,181
DA:839,181
DA:842,181
DA:843,11765
DA:844,11584
DA:849,181
DA:850,181
DA:853,181
DA:854,181
DA:856,181
DA:857,181
DA:859,181
DA:860,181
DA:863,11765
DA:864,11584
DA:866,104256
DA:867,92672
DA:870,11584
DA:871,11584
DA:873,11584
DA:874,11584
DA:877,181
DA:878,362
DA:879,181
DA:881,181
DA:884,0
DA:889,0
DA:890,0
DA:891,0
DA:892,0
DA:895,0
DA:896,0
DA:897,0
DA:900,0
DA:901,0
DA:902,0
DA:904,0
DA:906,146
DA:907,146
DA:910,146
DA:911,146
DA:912,0
DA:916,146
DA:917,146
DA:921,201
DA:922,190
DA:923,135
DA:924,135
DA:926,55
DA:928,44
DA:932,146
DA:933,11
DA:934,11
DA:938,135
DA:939,135
DA:940,135
DA:943,135
DA:944,135
DA:945,2
DA:946,2
DA:954,133
DA:955,133
DA:957,133
DA:958,0
DA:959,0
DA:960,0
DA:963,133
DA:966,133
DA:967,133
DA:968,0
DA:969,0
DA:970,0
DA:971,0
DA:975,133
DA:976,133
DA:978,0
DA:979,0
DA:980,0
DA:981,0
DA:986,133
DA:987,133
DA:989,22
DA:990,11
DA:991,11
DA:992,11
DA:995,11
DA:1000,122
DA:1001,121
DA:1002,170
DA:1003,171
DA:1004,342
DA:1006,122
DA:1007,122
DA:1008,244
DA:1009,122
DA:1010,122
DA:1014,121
DA:1015,0
DA:1019,121
DA:1020,122
DA:1021,10
DA:1024,10
DA:1025,10
DA:1026,10
DA:1027,20
DA:1029,10
DA:1030,10
DA:1035,10
DA:1036,10
DA:1037,10
DA:1040,112
DA:1042,112
DA:1044,112
DA:1046,112
DA:1047,146
DA:1049,26
DA:1050,26
DA:1052,26
DA:1053,26
DA:1054,14
DA:1057,12
DA:1060,12
DA:1061,12
DA:1062,12
DA:1064,12
DA:1067,12
DA:1068,12
DA:1071,12
DA:1073,12
DA:1074,26
DA:1076,122
DA:1080,122
DA:1081,212
DA:1082,100
DA:1084,200
DA:1086,100
DA:1087,100
DA:1088,10
DA:1090,100
DA:1094,112
DA:1095,112
DA:1096,10
DA:1097,10
DA:1101,139
DA:1102,139
DA:1103,139
DA:1105,278
DA:1108,102
DA:1111,102
DA:1113,4
DA:1114,0
DA:1115,0
DA:1116,102
DA:1118,4
DA:1119,4
DA:1125,4
DA:1127,4
DA:1130,98
DA:1131,98
DA:1132,98
DA:1133,98
DA:1139,98
DA:1141,196
DA:1142,98
DA:1145,98
DA:1146,98
DA:1147,98
DA:1151,102
DA:1153,204
DA:1154,204
DA:1156,102
DA:1160,0
DA:1163,103
DA:1164,103
DA:1165,2
DA:1167,101
DA:1169,103
DA:1172,101
DA:1173,101
DA:1179,101
DA:1180,101
DA:1181,101
DA:1184,101
DA:1186,3267
DA:1187,3166
DA:1189,0
DA:1190,493
DA:1195,3166
DA:1199,3166
DA:1201,1258
DA:1202,1925
DA:1203,3793
DA:1205,1908
DA:1206,1564
DA:1207,2659
DA:1208,183
DA:1209,1258
DA:1210,12465
DA:1211,12204
DA:1212,533
DA:1213,11671
DA:1214,46266
DA:1215,34084
DA:1217,34052
DA:1218,34254
DA:1219,46
DA:1220,46
DA:1221,204
DA:1222,19
DA:1223,540
DA:1226,867
DA:1227,34
DA:1228,34
DA:1229,1908
DA:1231,590
DA:1232,159
DA:1234,1417
DA:1235,159
DA:1236,318
DA:1237,652
DA:1238,159
DA:1239,493
DA:1240,493
DA:1241,2735
DA:1242,493
DA:1243,493
DA:1244,1750
DA:1246,765
DA:1247,3794
DA:1248,2044
DA:1249,2809
DA:1250,1991
DA:1252,1572
DA:1253,807
DA:1254,860
DA:1255,818
DA:1256,0
DA:1259,42
DA:1260,95
DA:1261,0
DA:1263,116
DA:1265,42
DA:1266,116
DA:1267,53
DA:1268,194
DA:1270,62
DA:1271,256
DA:1272,42
DA:1274,62
DA:1275,215
DA:1276,278
DA:1277,63
DA:1278,63
DA:1279,152
DA:1280,215
DA:1281,304
DA:1282,205
DA:1283,205
DA:1284,53
DA:1285,0
DA:1287,152
DA:1289,3835
DA:1290,2086
DA:1291,2086
DA:1292,1645
DA:1296,1971
DA:1297,1206
DA:1298,807
DA:1299,724
DA:1302,399
DA:1303,482
DA:1304,83
DA:1305,799
DA:1307,799
DA:1309,882
DA:1310,482
DA:1312,616
DA:1313,400
DA:1314,984
DA:1316,584
DA:1317,451
DA:1318,400
DA:1319,400
DA:1320,533
DA:1321,933
DA:1323,399
DA:1324,932
DA:1325,932
DA:1326,531
DA:1328,533
DA:1330,1833
DA:1331,1362
DA:1332,49
DA:1337,2078
DA:1338,1106
DA:1339,890
DA:1340,176
DA:1342,714
DA:1344,683
DA:1345,334
DA:1346,1662
DA:1347,209
DA:1349,1453
DA:1351,1313
DA:1352,1313
DA:1353,1996
DA:1354,1313
DA:1355,58
DA:1356,741
DA:1358,683
DA:1359,683
DA:1360,1996
DA:1361,1995
DA:1362,43
DA:1363,43
DA:1365,437
DA:1367,683
DA:1368,681
DA:1369,29
DA:1370,30
DA:1372,82
DA:1373,0
DA:1374,0
DA:1376,71
DA:1377,71
DA:1380,2
DA:1381,2
DA:1382,0
DA:1383,0
DA:1386,0
DA:1387,2
DA:1388,2
DA:1389,2
DA:1390,2
DA:1391,0
DA:1392,0
DA:1393,2
DA:1394,2
DA:1396,34
DA:1397,32
DA:1398,0
DA:1399,0
DA:1400,0
DA:1401,0
DA:1402,0
DA:1403,0
DA:1404,32
DA:1405,32
DA:1406,0
DA:1407,60
DA:1408,28
DA:1409,14
DA:1410,910
DA:1411,896
DA:1412,0
DA:1413,896
DA:1414,896
DA:1415,4
DA:1416,0
DA:1417,0
DA:1418,14
DA:1419,14
DA:1421,0
DA:1422,32
DA:1423,10
DA:1424,10
DA:1427,0
DA:1428,22
DA:1429,0
DA:1430,0
DA:1431,22
DA:1434,44
DA:1436,22
DA:1437,22
DA:1438,0
DA:1440,0
DA:1441,22
DA:1444,24
DA:1445,0
DA:1446,0
DA:1447,24
DA:1448,22
DA:1450,0
DA:1451,2
DA:1452,2
DA:1453,2
DA:1454,2
DA:1455,0
DA:1457,2
DA:1458,2
DA:1459,2
DA:1460,2
DA:1462,2
DA:1463,0
DA:1464,22
DA:1465,2
DA:1466,0
DA:1467,0
DA:1470,44
DA:1471,0
DA:1472,22
DA:1473,22
DA:1474,0
DA:1475,0
DA:1477,22
DA:1478,22
DA:1480,22
DA:1481,0
DA:1482,22
DA:1483,0
DA:1484,22
DA:1485,22
DA:1487,0
DA:1488,0
DA:1489,0
DA:1490,0
DA:1491,0
DA:1493,0
DA:1494,0
DA:1495,0
DA:1496,0
DA:1498,0
DA:1499,0
DA:1500,22
DA:1501,0
DA:1502,0
DA:1503,0
DA:1506,22
DA:1507,20
DA:1508,0
DA:1509,20
DA:1510,20
DA:1511,0
DA:1513,20
DA:1514,20
DA:1515,20
DA:1516,20
DA:1517,0
DA:1518,0
DA:1519,0
DA:1522,20
DA:1523,38
DA:1524,20
DA:1525,2
DA:1526,2
DA:1527,0
DA:1528,0
DA:1531,20
DA:1532,36
DA:1533,18
DA:1534,0
DA:1535,0
DA:1539,0
DA:1541,20
DA:1542,18
DA:1543,0
DA:1544,0
DA:1546,32
DA:1547,30
DA:1549,30
DA:1550,129
DA:1551,2
DA:1552,97
DA:1553,170
DA:1554,73
DA:1556,170
DA:1557,228
DA:1558,1
DA:1559,153
DA:1560,153
DA:1562,97
DA:1563,153
DA:1564,99
DA:1565,98
DA:1567,97
DA:1569,153
DA:1571,153
DA:1572,153
DA:1574,250
DA:1575,97
DA:1579,97
DA:1580,268
DA:1581,153
DA:1582,324
DA:1583,148
DA:1586,153
DA:1587,426
DA:1588,75
DA:1589,250
DA:1590,173
DA:1593,23
DA:1594,47
DA:1595,144
DA:1596,22
DA:1598,120
DA:1599,46
DA:1600,48
DA:1602,176
DA:1604,23
DA:1605,194
DA:1606,50
DA:1607,25
DA:1608,97
DA:1609,25
DA:1611,122
DA:1612,122
DA:1613,93
DA:1615,153
DA:1617,97
DA:1618,153
DA:1619,153
DA:1620,226
DA:1621,3
DA:1624,165
DA:1626,9
DA:1627,156
DA:1628,1
DA:1631,9
DA:1632,15
DA:1633,12
DA:1634,2
DA:1635,1
DA:1638,1
DA:1639,2
DA:1640,7
DA:1641,10
DA:1642,5
DA:1643,5
DA:1646,3
DA:1647,1
DA:1648,2
DA:1649,98
DA:1650,1
DA:1651,97
DA:1652,97
DA:1653,1
DA:1654,30
DA:1655,30
DA:1656,153
DA:1657,97
DA:1658,250
DA:1659,153
DA:1661,73
DA:1662,73
DA:1664,153
DA:1665,153
DA:1666,0
DA:1677,36
DA:1678,36
DA:1679,36
DA:1680,36
DA:1681,72
DA:1682,36
DA:1684,145
DA:1685,145
DA:1686,145
DA:1687,145
DA:1688,290
DA:1689,145
DA:1692,0
DA:1693,36
DA:1694,36
DA:1695,0
DA:1696,0
DA:1697,36
DA:1700,145
DA:1701,145
DA:1702,0
DA:1703,0
DA:1704,145
DA:1707,0
DA:1708,0
DA:1709,0
DA:1710,0
DA:1712,0
DA:1713,0
DA:1714,0
DA:1715,0
DA:1717,0
DA:1718,0
DA:1719,0
DA:1720,0
DA:1721,0
DA:1722,0
DA:1723,0
DA:1725,0
DA:1726,0
DA:1727,45
DA:1728,45
DA:1729,0
DA:1730,0
DA:1733,1778
DA:1734,1899
DA:1735,3650
DA:1736,0
DA:1737,18
DA:1738,36
DA:1739,36
DA:1740,7912
DA:1741,7773
DA:1742,15546
DA:1744,54
DA:1745,54
DA:1746,54
DA:1747,27
DA:1748,36
DA:1749,36
DA:1750,0
DA:1751,121
DA:1753,36
DA:1754,36
DA:1755,179
DA:1756,149
DA:1757,0
DA:1759,6
DA:1760,539
DA:1761,533
DA:1762,529
DA:1764,6
DA:1765,5
DA:1766,4
DA:1767,260
DA:1768,257
DA:1769,258
DA:1771,5
DA:1772,4
DA:1775,1
DA:1776,2
DA:1777,6
DA:1778,1
DA:1779,1
DA:1784,4
LF:1043
LH:848
end_of_record
TN:
SF:/home/fz296w/workspace/Nexus/Nexus/src/transport/UdpTransport.cpp
FN:17,_ZN5Nexus3rpc12UdpTransportC2Ev
FN:19,_ZN5Nexus3rpc12UdpTransportD2Ev
FN:23,_ZN5Nexus3rpc12UdpTransport10initializeEt
FN:99,_ZN5Nexus3rpc12UdpTransport8shutdownEv
FN:120,_ZN5Nexus3rpc12UdpTransport4sendEPKhmRKNSt7__cxx1112basic_stringIcSt11char_traitsIcESaIcEEEt
FN:145,_ZN5Nexus3rpc12UdpTransport9broadcastEPKhm
FN:149,_ZN5Nexus3rpc12UdpTransport18setReceiveCallbackESt8functionIFvPKhmRKNSt7__cxx1112basic_stringIcSt11char_traitsIcESaIcEEEEE
FN:154,_ZN5Nexus3rpc12UdpTransport13receiveThreadEv
FNDA:0,_ZN5Nexus3rpc12UdpTransport9broadcastEPKhm
FNDA:29,_ZN5Nexus3rpc12UdpTransport13receiveThreadEv
FNDA:24,_ZN5Nexus3rpc12UdpTransport18setReceiveCallbackESt8functionIFvPKhmRKNSt7__cxx1112basic_stringIcSt11char_traitsIcESaIcEEEEE
FNDA:49,_ZN5Nexus3rpc12UdpTransport8shutdownEv
FNDA:29,_ZN5Nexus3rpc12UdpTransportC2Ev
FNDA:29,_ZN5Nexus3rpc12UdpTransportD2Ev
FNDA:29,_ZN5Nexus3rpc12UdpTransport10initializeEt
FNDA:15990,_ZN5Nexus3rpc12UdpTransport4sendEPKhmRKNSt7__cxx1112basic_stringIcSt11char_traitsIcESaIcEEEt
FNF:8
FNH:7
DA:17,29
DA:19,29
DA:20,29
DA:21,29
DA:23,29
DA:24,29
DA:25,0
DA:29,29
DA:30,29
DA:31,0
DA:35,29
DA:36,29
DA:37,0
DA:38,0
DA:39,0
DA:68,29
DA:69,29
DA:70,29
DA:71,29
DA:73,29
DA:74,0
DA:75,0
DA:76,0
DA:80,29
DA:81,29
DA:82,29
DA:84,0
DA:88,29
DA:89,29
DA:92,29
DA:93,29
DA:94,29
DA:96,29
DA:99,49
DA:100,49
DA:101,20
DA:104,29
DA:107,29
DA:108,29
DA:112,29
DA:113,29
DA:114,29
DA:117,29
DA:120,15990
DA:121,15990
DA:122,0
DA:126,15990
DA:127,15990
DA:131,15990
DA:132,15990
DA:133,15990
DA:135,15990
DA:136,0
DA:140,15990
DA:142,15990
DA:143,15990
DA:145,0
DA:146,0
DA:149,24
DA:150,24
DA:151,24
DA:152,24
DA:154,29
DA:155,29
DA:156,29
DA:159,29
DA:161,4600
DA:163,4571
DA:164,4571
DA:166,4571
DA:169,11
DA:170,11
DA:174,11
DA:175,11
DA:176,11
DA:177,11
DA:179,11
DA:180,4571
DA:181,4560
DA:183,4560
DA:190,29
LF:81
LH:68
end_of_record
TN:
SF:/home/fz296w/workspace/Nexus/Nexus/src/utils/Logger.cpp
FN:8,_ZN5Nexus3rpc6Logger8instanceEv
FN:13,_ZN5Nexus3rpc6LoggerC2Ev
FN:30,_ZN5Nexus3rpc6Logger8setLevelENS1_5LevelE
FN:35,_ZNK5Nexus3rpc6Logger8getLevelEv
FN:40,_ZN5Nexus3rpc6Logger16setShowTimestampEb
FN:45,_ZN5Nexus3rpc6Logger16setShowComponentEb
FN:50,_ZNK5Nexus3rpc6Logger13levelToStringENS1_5LevelE
FN:65,_ZNK5Nexus3rpc6Logger12getTimestampB5cxx11Ev
FN:82,_ZN5Nexus3rpc6Logger3logENS1_5LevelERKNSt7__cxx1112basic_stringIcSt11char_traitsIcESaIcEEESA_
FNDA:8770,_ZN5Nexus3rpc6Logger3logENS1_5LevelERKNSt7__cxx1112basic_stringIcSt11char_traitsIcESaIcEEESA_
FNDA:2208,_ZNK5Nexus3rpc6Logger12getTimestampB5cxx11Ev
FNDA:6,_ZNK5Nexus3rpc6Logger8getLevelEv
FNDA:8,_ZN5Nexus3rpc6Logger8setLevelENS1_5LevelE
FNDA:8777,_ZN5Nexus3rpc6Logger8instanceEv
FNDA:2208,_ZNK5Nexus3rpc6Logger13levelToStringENS1_5LevelE
FNDA:0,_ZN5Nexus3rpc6Logger16setShowComponentEb
FNDA:12,_ZN5Nexus3rpc6LoggerC2Ev
FNDA:0,_ZN5Nexus3rpc6Logger16setShowTimestampEb
FNF:9
FNH:7
DA:8,8777
DA:9,8777
DA:10,8777
DA:13,12
DA:15,12
DA:16,0
DA:17,0
DA:18,0
DA:19,0
DA:20,0
DA:21,0
DA:22,0
DA:23,0
DA:24,0
DA:25,0
DA:26,0
DA:27,0
DA:28,12
DA:30,8
DA:31,8
DA:32,8
DA:33,8
DA:35,6
DA:36,6
DA:37,6
DA:38,6
DA:40,0
DA:41,0
DA:42,0
DA:43,0
DA:45,0
DA:46,0
DA:47,0
DA:48,0
DA:50,2208
DA:51,2208
DA:52,528
DA:53,528
DA:54,1503
DA:55,1503
DA:56,43
DA:57,43
DA:58,134
DA:59,134
DA:60,0
DA:61,0
DA:65,2208
DA:66,2208
DA:67,2208
DA:68,2208
DA:74,2208
DA:77,2208
DA:78,2208
DA:79,4416
DA:80,2208
DA:82,8770
DA:83,8770
DA:85,8772
DA:86,6564
DA:89,2208
DA:91,2208
DA:92,2208
DA:95,2208
DA:97,2208
DA:98,2208
DA:101,2208
DA:102,8772
LF:67
LH:45
end_of_record
TN:
SF:/home/fz296w/workspace/Nexus/Nexus/test_service_cleanup.cpp
FN:14,main
FNDA:1,main
FNF:1
FNH:1
DA:14,1
DA:15,1
DA:17,1
DA:20,1
DA:23,1
DA:24,1
DA:27,1
DA:28,1
DA:29,1
DA:30,1
DA:31,1
DA:33,1
DA:34,1
DA:35,1
DA:36,1
DA:38,1
DA:39,1
DA:40,1
DA:41,1
DA:43,1
DA:44,1
DA:45,1
DA:47,1
DA:49,2
DA:50,1
DA:52,4
DA:53,3
DA:57,1
DA:58,1
DA:61,1
DA:64,1
DA:65,2
DA:66,1
DA:68,1
DA:69,1
DA:70,1
DA:71,1
DA:73,0
DA:74,0
DA:75,0
DA:76,0
DA:78,0
DA:79,0
DA:81,1
LF:44
LH:38
end_of_record
