TN:
SF:/usr/include/c++/11/initializer_list
FN:71,_ZNKSt16initializer_listINSt7__cxx1112basic_stringIcSt11char_traitsIcESaIcEEEE4sizeEv
FNDA:0,_ZNKSt16initializer_listINSt7__cxx1112basic_stringIcSt11char_traitsIcESaIcEEEE4sizeEv
FN:75,_ZNKSt16initializer_listINSt7__cxx1112basic_stringIcSt11char_traitsIcESaIcEEEE5beginEv
FNDA:0,_ZNKSt16initializer_listINSt7__cxx1112basic_stringIcSt11char_traitsIcESaIcEEEE5beginEv
FN:79,_ZNKSt16initializer_listINSt7__cxx1112basic_stringIcSt11char_traitsIcESaIcEEEE3endEv
FNDA:0,_ZNKSt16initializer_listINSt7__cxx1112basic_stringIcSt11char_traitsIcESaIcEEEE3endEv
DA:71,0
DA:75,0
DA:79,0
end_of_record
SF:/usr/include/c++/11/bits/invoke.h
FN:60,_ZSt13__invoke_implIvRZ19testStressInProcessvEUlRKNSt7__cxx1112basic_stringIcSt11char_traitsIcESaIcEEES7_PKhmE1_JS7_S7_S9_mEET_St14__invoke_otherOT0_DpOT1_
FNDA:0,_ZSt13__invoke_implIvRZ19testStressInProcessvEUlRKNSt7__cxx1112basic_stringIcSt11char_traitsIcESaIcEEES7_PKhmE1_JS7_S7_S9_mEET_St14__invoke_otherOT0_DpOT1_
FN:60,_ZSt13__invoke_implIvRZ19testStressInProcessvEUlRKNSt7__cxx1112basic_stringIcSt11char_traitsIcESaIcEEES7_PKhmE0_JS7_S7_S9_mEET_St14__invoke_otherOT0_DpOT1_
FNDA:0,_ZSt13__invoke_implIvRZ19testStressInProcessvEUlRKNSt7__cxx1112basic_stringIcSt11char_traitsIcESaIcEEES7_PKhmE0_JS7_S7_S9_mEET_St14__invoke_otherOT0_DpOT1_
FN:60,_ZSt13__invoke_implIvRZ19testStressInProcessvEUlRKNSt7__cxx1112basic_stringIcSt11char_traitsIcESaIcEEES7_PKhmE_JS7_S7_S9_mEET_St14__invoke_otherOT0_DpOT1_
FNDA:0,_ZSt13__invoke_implIvRZ19testStressInProcessvEUlRKNSt7__cxx1112basic_stringIcSt11char_traitsIcESaIcEEES7_PKhmE_JS7_S7_S9_mEET_St14__invoke_otherOT0_DpOT1_
FN:60,_ZSt13__invoke_implIvRZ18testBasicInProcessvEUlRKNSt7__cxx1112basic_stringIcSt11char_traitsIcESaIcEEES7_PKhmE1_JS7_S7_S9_mEET_St14__invoke_otherOT0_DpOT1_
FNDA:0,_ZSt13__invoke_implIvRZ18testBasicInProcessvEUlRKNSt7__cxx1112basic_stringIcSt11char_traitsIcESaIcEEES7_PKhmE1_JS7_S7_S9_mEET_St14__invoke_otherOT0_DpOT1_
FN:60,_ZSt13__invoke_implIvRZ18testBasicInProcessvEUlRKNSt7__cxx1112basic_stringIcSt11char_traitsIcESaIcEEES7_PKhmE0_JS7_S7_S9_mEET_St14__invoke_otherOT0_DpOT1_
FNDA:0,_ZSt13__invoke_implIvRZ18testBasicInProcessvEUlRKNSt7__cxx1112basic_stringIcSt11char_traitsIcESaIcEEES7_PKhmE0_JS7_S7_S9_mEET_St14__invoke_otherOT0_DpOT1_
FN:60,_ZSt13__invoke_implIvRZ18testBasicInProcessvEUlRKNSt7__cxx1112basic_stringIcSt11char_traitsIcESaIcEEES7_PKhmE_JS7_S7_S9_mEET_St14__invoke_otherOT0_DpOT1_
FNDA:0,_ZSt13__invoke_implIvRZ18testBasicInProcessvEUlRKNSt7__cxx1112basic_stringIcSt11char_traitsIcESaIcEEES7_PKhmE_JS7_S7_S9_mEET_St14__invoke_otherOT0_DpOT1_
FN:149,_ZSt10__invoke_rIvRZ19testStressInProcessvEUlRKNSt7__cxx1112basic_stringIcSt11char_traitsIcESaIcEEES7_PKhmE1_JS7_S7_S9_mEENSt9enable_ifIXsrSt6__and_IJSt7is_voidIT_ESt14__is_invocableIT0_JDpT1_EEEE5valueESF_E4typeEOSI_DpOSJ_
FNDA:0,_ZSt10__invoke_rIvRZ19testStressInProcessvEUlRKNSt7__cxx1112basic_stringIcSt11char_traitsIcESaIcEEES7_PKhmE1_JS7_S7_S9_mEENSt9enable_ifIXsrSt6__and_IJSt7is_voidIT_ESt14__is_invocableIT0_JDpT1_EEEE5valueESF_E4typeEOSI_DpOSJ_
FN:149,_ZSt10__invoke_rIvRZ19testStressInProcessvEUlRKNSt7__cxx1112basic_stringIcSt11char_traitsIcESaIcEEES7_PKhmE0_JS7_S7_S9_mEENSt9enable_ifIXsrSt6__and_IJSt7is_voidIT_ESt14__is_invocableIT0_JDpT1_EEEE5valueESF_E4typeEOSI_DpOSJ_
FNDA:0,_ZSt10__invoke_rIvRZ19testStressInProcessvEUlRKNSt7__cxx1112basic_stringIcSt11char_traitsIcESaIcEEES7_PKhmE0_JS7_S7_S9_mEENSt9enable_ifIXsrSt6__and_IJSt7is_voidIT_ESt14__is_invocableIT0_JDpT1_EEEE5valueESF_E4typeEOSI_DpOSJ_
FN:149,_ZSt10__invoke_rIvRZ19testStressInProcessvEUlRKNSt7__cxx1112basic_stringIcSt11char_traitsIcESaIcEEES7_PKhmE_JS7_S7_S9_mEENSt9enable_ifIXsrSt6__and_IJSt7is_voidIT_ESt14__is_invocableIT0_JDpT1_EEEE5valueESF_E4typeEOSI_DpOSJ_
FNDA:0,_ZSt10__invoke_rIvRZ19testStressInProcessvEUlRKNSt7__cxx1112basic_stringIcSt11char_traitsIcESaIcEEES7_PKhmE_JS7_S7_S9_mEENSt9enable_ifIXsrSt6__and_IJSt7is_voidIT_ESt14__is_invocableIT0_JDpT1_EEEE5valueESF_E4typeEOSI_DpOSJ_
FN:149,_ZSt10__invoke_rIvRZ18testBasicInProcessvEUlRKNSt7__cxx1112basic_stringIcSt11char_traitsIcESaIcEEES7_PKhmE1_JS7_S7_S9_mEENSt9enable_ifIXsrSt6__and_IJSt7is_voidIT_ESt14__is_invocableIT0_JDpT1_EEEE5valueESF_E4typeEOSI_DpOSJ_
FNDA:0,_ZSt10__invoke_rIvRZ18testBasicInProcessvEUlRKNSt7__cxx1112basic_stringIcSt11char_traitsIcESaIcEEES7_PKhmE1_JS7_S7_S9_mEENSt9enable_ifIXsrSt6__and_IJSt7is_voidIT_ESt14__is_invocableIT0_JDpT1_EEEE5valueESF_E4typeEOSI_DpOSJ_
FN:149,_ZSt10__invoke_rIvRZ18testBasicInProcessvEUlRKNSt7__cxx1112basic_stringIcSt11char_traitsIcESaIcEEES7_PKhmE0_JS7_S7_S9_mEENSt9enable_ifIXsrSt6__and_IJSt7is_voidIT_ESt14__is_invocableIT0_JDpT1_EEEE5valueESF_E4typeEOSI_DpOSJ_
FNDA:0,_ZSt10__invoke_rIvRZ18testBasicInProcessvEUlRKNSt7__cxx1112basic_stringIcSt11char_traitsIcESaIcEEES7_PKhmE0_JS7_S7_S9_mEENSt9enable_ifIXsrSt6__and_IJSt7is_voidIT_ESt14__is_invocableIT0_JDpT1_EEEE5valueESF_E4typeEOSI_DpOSJ_
FN:149,_ZSt10__invoke_rIvRZ18testBasicInProcessvEUlRKNSt7__cxx1112basic_stringIcSt11char_traitsIcESaIcEEES7_PKhmE_JS7_S7_S9_mEENSt9enable_ifIXsrSt6__and_IJSt7is_voidIT_ESt14__is_invocableIT0_JDpT1_EEEE5valueESF_E4typeEOSI_DpOSJ_
FNDA:0,_ZSt10__invoke_rIvRZ18testBasicInProcessvEUlRKNSt7__cxx1112basic_stringIcSt11char_traitsIcESaIcEEES7_PKhmE_JS7_S7_S9_mEENSt9enable_ifIXsrSt6__and_IJSt7is_voidIT_ESt14__is_invocableIT0_JDpT1_EEEE5valueESF_E4typeEOSI_DpOSJ_
DA:60,0
DA:61,0
DA:60,0
DA:61,0
DA:60,0
DA:61,0
DA:60,0
DA:61,0
DA:60,0
DA:61,0
DA:60,0
DA:61,0
DA:149,0
DA:154,0
DA:156,0
DA:149,0
DA:154,0
DA:156,0
DA:149,0
DA:154,0
DA:156,0
DA:149,0
DA:154,0
DA:156,0
DA:149,0
DA:154,0
DA:156,0
DA:149,0
DA:154,0
DA:156,0
end_of_record
SF:/usr/include/c++/11/bits/stl_uninitialized.h
FN:85,_ZNSt20__uninitialized_copyILb0EE13__uninit_copyIPKNSt7__cxx1112basic_stringIcSt11char_traitsIcESaIcEEEPS7_EET0_T_SC_SB_
FNDA:0,_ZNSt20__uninitialized_copyILb0EE13__uninit_copyIPKNSt7__cxx1112basic_stringIcSt11char_traitsIcESaIcEEEPS7_EET0_T_SC_SB_
FN:126,_ZSt18uninitialized_copyIPKNSt7__cxx1112basic_stringIcSt11char_traitsIcESaIcEEEPS5_ET0_T_SA_S9_
FNDA:0,_ZSt18uninitialized_copyIPKNSt7__cxx1112basic_stringIcSt11char_traitsIcESaIcEEEPS5_ET0_T_SA_S9_
FN:331,_ZSt22__uninitialized_copy_aIPKNSt7__cxx1112basic_stringIcSt11char_traitsIcESaIcEEEPS5_S5_ET0_T_SA_S9_RSaIT1_E
FNDA:0,_ZSt22__uninitialized_copy_aIPKNSt7__cxx1112basic_stringIcSt11char_traitsIcESaIcEEEPS5_S5_ET0_T_SA_S9_RSaIT1_E
DA:85,0
DA:88,0
DA:91,0
DA:92,0
DA:93,0
DA:95,0
DA:97,0
DA:98,0
DA:126,0
DA:145,0
DA:151,0
DA:331,0
DA:333,0
end_of_record
SF:/usr/include/c++/11/ext/new_allocator.h
FN:79,_ZN9__gnu_cxx13new_allocatorINSt7__cxx1112basic_stringIcSt11char_traitsIcESaIcEEEEC2Ev
FNDA:0,_ZN9__gnu_cxx13new_allocatorINSt7__cxx1112basic_stringIcSt11char_traitsIcESaIcEEEEC2Ev
FN:79,_ZN9__gnu_cxx13new_allocatorIcEC2Ev
FNDA:0,_ZN9__gnu_cxx13new_allocatorIcEC2Ev
FN:82,_ZN9__gnu_cxx13new_allocatorINSt7__cxx1112basic_stringIcSt11char_traitsIcESaIcEEEEC2ERKS7_
FNDA:0,_ZN9__gnu_cxx13new_allocatorINSt7__cxx1112basic_stringIcSt11char_traitsIcESaIcEEEEC2ERKS7_
FN:82,_ZN9__gnu_cxx13new_allocatorIcEC2ERKS1_
FNDA:0,_ZN9__gnu_cxx13new_allocatorIcEC2ERKS1_
FN:89,_ZN9__gnu_cxx13new_allocatorINSt7__cxx1112basic_stringIcSt11char_traitsIcESaIcEEEED2Ev
FNDA:0,_ZN9__gnu_cxx13new_allocatorINSt7__cxx1112basic_stringIcSt11char_traitsIcESaIcEEEED2Ev
FN:89,_ZN9__gnu_cxx13new_allocatorIcED2Ev
FNDA:0,_ZN9__gnu_cxx13new_allocatorIcED2Ev
FN:103,_ZN9__gnu_cxx13new_allocatorINSt7__cxx1112basic_stringIcSt11char_traitsIcESaIcEEEE8allocateEmPKv
FNDA:0,_ZN9__gnu_cxx13new_allocatorINSt7__cxx1112basic_stringIcSt11char_traitsIcESaIcEEEE8allocateEmPKv
FN:132,_ZN9__gnu_cxx13new_allocatorINSt7__cxx1112basic_stringIcSt11char_traitsIcESaIcEEEE10deallocateEPS6_m
FNDA:0,_ZN9__gnu_cxx13new_allocatorINSt7__cxx1112basic_stringIcSt11char_traitsIcESaIcEEEE10deallocateEPS6_m
FN:154,_ZNK9__gnu_cxx13new_allocatorINSt7__cxx1112basic_stringIcSt11char_traitsIcESaIcEEEE8max_sizeEv
FNDA:0,_ZNK9__gnu_cxx13new_allocatorINSt7__cxx1112basic_stringIcSt11char_traitsIcESaIcEEEE8max_sizeEv
FN:197,_ZNK9__gnu_cxx13new_allocatorINSt7__cxx1112basic_stringIcSt11char_traitsIcESaIcEEEE11_M_max_sizeEv
FNDA:0,_ZNK9__gnu_cxx13new_allocatorINSt7__cxx1112basic_stringIcSt11char_traitsIcESaIcEEEE11_M_max_sizeEv
DA:79,0
DA:79,0
DA:82,0
DA:82,0
DA:89,0
DA:89,0
DA:103,0
DA:111,0
DA:115,0
DA:116,0
DA:117,0
DA:127,0
DA:132,0
DA:145,0
DA:150,0
DA:154,0
DA:155,0
DA:197,0
DA:200,0
end_of_record
SF:/usr/include/c++/11/bits/basic_string.h
FN:251,_ZNSt7__cxx1112basic_stringIcSt11char_traitsIcESaIcEE16_M_construct_auxIPcEEvT_S7_St12__false_type
FNDA:0,_ZNSt7__cxx1112basic_stringIcSt11char_traitsIcESaIcEE16_M_construct_auxIPcEEvT_S7_St12__false_type
FN:271,_ZNSt7__cxx1112basic_stringIcSt11char_traitsIcESaIcEE12_M_constructIPcEEvT_S7_
FNDA:0,_ZNSt7__cxx1112basic_stringIcSt11char_traitsIcESaIcEE12_M_constructIPcEEvT_S7_
FN:6194,_ZStplIcSt11char_traitsIcESaIcEENSt7__cxx1112basic_stringIT_T0_T1_EEPKS5_OS8_
FNDA:0,_ZStplIcSt11char_traitsIcESaIcEENSt7__cxx1112basic_stringIT_T0_T1_EEPKS5_OS8_
FN:6248,_ZSteqIcSt11char_traitsIcESaIcEEbRKNSt7__cxx1112basic_stringIT_T0_T1_EEPKS5_
FNDA:4,_ZSteqIcSt11char_traitsIcESaIcEEbRKNSt7__cxx1112basic_stringIT_T0_T1_EEPKS5_
FN:6660,_ZNSt7__cxx119to_stringEi
FNDA:0,_ZNSt7__cxx119to_stringEi
DA:251,0
DA:255,0
DA:256,0
DA:271,0
DA:274,0
DA:275,0
DA:6194,0
DA:6196,0
DA:6248,4
DA:6250,4
DA:6660,0
DA:6662,0
DA:6663,0
DA:6664,0
DA:6665,0
DA:6666,0
DA:6667,0
DA:6668,0
end_of_record
SF:/usr/include/c++/11/bits/allocator.h
FN:156,_ZNSaINSt7__cxx1112basic_stringIcSt11char_traitsIcESaIcEEEEC2Ev
FNDA:0,_ZNSaINSt7__cxx1112basic_stringIcSt11char_traitsIcESaIcEEEEC2Ev
FN:159,_ZNSaINSt7__cxx1112basic_stringIcSt11char_traitsIcESaIcEEEEC2ERKS5_
FNDA:0,_ZNSaINSt7__cxx1112basic_stringIcSt11char_traitsIcESaIcEEEEC2ERKS5_
FN:174,_ZNSaINSt7__cxx1112basic_stringIcSt11char_traitsIcESaIcEEEED2Ev
FNDA:0,_ZNSaINSt7__cxx1112basic_stringIcSt11char_traitsIcESaIcEEEED2Ev
DA:156,0
DA:159,0
DA:160,0
DA:174,0
end_of_record
SF:/usr/include/c++/11/bits/atomic_base.h
FN:104,_ZStanSt12memory_orderSt23__memory_order_modifier
FNDA:0,_ZStanSt12memory_orderSt23__memory_order_modifier
FN:347,_ZNKSt13__atomic_baseIiEcviEv
FNDA:0,_ZNKSt13__atomic_baseIiEcviEv
FN:354,_ZNSt13__atomic_baseIiEaSEi
FNDA:0,_ZNSt13__atomic_baseIiEaSEi
FN:368,_ZNSt13__atomic_baseIiEppEi
FNDA:0,_ZNSt13__atomic_baseIiEppEi
DA:104,0
DA:106,0
DA:347,0
DA:348,0
DA:354,0
DA:357,0
DA:368,0
DA:369,0
DA:459,0
DA:464,0
DA:465,0
DA:484,0
DA:488,0
DA:618,0
end_of_record
SF:/usr/include/c++/11/ext/atomicity.h
DA:52,0
DA:66,0
DA:84,0
DA:85,0
DA:86,0
DA:98,0
DA:99,0
DA:101,0
end_of_record
SF:/usr/include/c++/11/bits/move.h
FN:49,_ZSt11__addressofINSt7__cxx1112basic_stringIcSt11char_traitsIcESaIcEEEEPT_RS6_
FNDA:0,_ZSt11__addressofINSt7__cxx1112basic_stringIcSt11char_traitsIcESaIcEEEEPT_RS6_
FN:49,_ZSt11__addressofIKZ19testStressInProcessvEUlRKNSt7__cxx1112basic_stringIcSt11char_traitsIcESaIcEEES7_PKhmE1_EPT_RSC_
FNDA:0,_ZSt11__addressofIKZ19testStressInProcessvEUlRKNSt7__cxx1112basic_stringIcSt11char_traitsIcESaIcEEES7_PKhmE1_EPT_RSC_
FN:49,_ZSt11__addressofIKZ19testStressInProcessvEUlRKNSt7__cxx1112basic_stringIcSt11char_traitsIcESaIcEEES7_PKhmE0_EPT_RSC_
FNDA:0,_ZSt11__addressofIKZ19testStressInProcessvEUlRKNSt7__cxx1112basic_stringIcSt11char_traitsIcESaIcEEES7_PKhmE0_EPT_RSC_
FN:49,_ZSt11__addressofIKZ19testStressInProcessvEUlRKNSt7__cxx1112basic_stringIcSt11char_traitsIcESaIcEEES7_PKhmE_EPT_RSC_
FNDA:0,_ZSt11__addressofIKZ19testStressInProcessvEUlRKNSt7__cxx1112basic_stringIcSt11char_traitsIcESaIcEEES7_PKhmE_EPT_RSC_
FN:49,_ZSt11__addressofIKZ18testBasicInProcessvEUlRKNSt7__cxx1112basic_stringIcSt11char_traitsIcESaIcEEES7_PKhmE1_EPT_RSC_
FNDA:0,_ZSt11__addressofIKZ18testBasicInProcessvEUlRKNSt7__cxx1112basic_stringIcSt11char_traitsIcESaIcEEES7_PKhmE1_EPT_RSC_
FN:49,_ZSt11__addressofIKZ18testBasicInProcessvEUlRKNSt7__cxx1112basic_stringIcSt11char_traitsIcESaIcEEES7_PKhmE0_EPT_RSC_
FNDA:0,_ZSt11__addressofIKZ18testBasicInProcessvEUlRKNSt7__cxx1112basic_stringIcSt11char_traitsIcESaIcEEES7_PKhmE0_EPT_RSC_
FN:49,_ZSt11__addressofIKZ18testBasicInProcessvEUlRKNSt7__cxx1112basic_stringIcSt11char_traitsIcESaIcEEES7_PKhmE_EPT_RSC_
FNDA:0,_ZSt11__addressofIKZ18testBasicInProcessvEUlRKNSt7__cxx1112basic_stringIcSt11char_traitsIcESaIcEEES7_PKhmE_EPT_RSC_
FN:77,_ZSt7forwardIRKZ19testStressInProcessvEUlRKNSt7__cxx1112basic_stringIcSt11char_traitsIcESaIcEEES7_PKhmE0_EOT_RNSt16remove_referenceISD_E4typeE
FNDA:0,_ZSt7forwardIRKZ19testStressInProcessvEUlRKNSt7__cxx1112basic_stringIcSt11char_traitsIcESaIcEEES7_PKhmE0_EOT_RNSt16remove_referenceISD_E4typeE
FN:77,_ZSt7forwardIRZ18testBasicInProcessvEUlRKNSt7__cxx1112basic_stringIcSt11char_traitsIcESaIcEEES7_PKhmE_EOT_RNSt16remove_referenceISC_E4typeE
FNDA:0,_ZSt7forwardIRZ18testBasicInProcessvEUlRKNSt7__cxx1112basic_stringIcSt11char_traitsIcESaIcEEES7_PKhmE_EOT_RNSt16remove_referenceISC_E4typeE
FN:77,_ZSt7forwardIRZ18testBasicInProcessvEUlRKNSt7__cxx1112basic_stringIcSt11char_traitsIcESaIcEEES7_PKhmE0_EOT_RNSt16remove_referenceISC_E4typeE
FNDA:0,_ZSt7forwardIRZ18testBasicInProcessvEUlRKNSt7__cxx1112basic_stringIcSt11char_traitsIcESaIcEEES7_PKhmE0_EOT_RNSt16remove_referenceISC_E4typeE
FN:77,_ZSt7forwardIRZ18testBasicInProcessvEUlRKNSt7__cxx1112basic_stringIcSt11char_traitsIcESaIcEEES7_PKhmE1_EOT_RNSt16remove_referenceISC_E4typeE
FNDA:0,_ZSt7forwardIRZ18testBasicInProcessvEUlRKNSt7__cxx1112basic_stringIcSt11char_traitsIcESaIcEEES7_PKhmE1_EOT_RNSt16remove_referenceISC_E4typeE
FN:77,_ZSt7forwardIRZ19testStressInProcessvEUlRKNSt7__cxx1112basic_stringIcSt11char_traitsIcESaIcEEES7_PKhmE_EOT_RNSt16remove_referenceISC_E4typeE
FNDA:0,_ZSt7forwardIRZ19testStressInProcessvEUlRKNSt7__cxx1112basic_stringIcSt11char_traitsIcESaIcEEES7_PKhmE_EOT_RNSt16remove_referenceISC_E4typeE
FN:77,_ZSt7forwardIRZ19testStressInProcessvEUlRKNSt7__cxx1112basic_stringIcSt11char_traitsIcESaIcEEES7_PKhmE0_EOT_RNSt16remove_referenceISC_E4typeE
FNDA:0,_ZSt7forwardIRZ19testStressInProcessvEUlRKNSt7__cxx1112basic_stringIcSt11char_traitsIcESaIcEEES7_PKhmE0_EOT_RNSt16remove_referenceISC_E4typeE
FN:77,_ZSt7forwardIRZ19testStressInProcessvEUlRKNSt7__cxx1112basic_stringIcSt11char_traitsIcESaIcEEES7_PKhmE1_EOT_RNSt16remove_referenceISC_E4typeE
FNDA:0,_ZSt7forwardIRZ19testStressInProcessvEUlRKNSt7__cxx1112basic_stringIcSt11char_traitsIcESaIcEEES7_PKhmE1_EOT_RNSt16remove_referenceISC_E4typeE
FN:77,_ZSt7forwardIRKNSt7__cxx1112basic_stringIcSt11char_traitsIcESaIcEEEEOT_RNSt16remove_referenceIS8_E4typeE
FNDA:0,_ZSt7forwardIRKNSt7__cxx1112basic_stringIcSt11char_traitsIcESaIcEEEEOT_RNSt16remove_referenceIS8_E4typeE
FN:77,_ZSt7forwardIPKhEOT_RNSt16remove_referenceIS2_E4typeE
FNDA:0,_ZSt7forwardIPKhEOT_RNSt16remove_referenceIS2_E4typeE
FN:77,_ZSt7forwardImEOT_RNSt16remove_referenceIS0_E4typeE
FNDA:0,_ZSt7forwardImEOT_RNSt16remove_referenceIS0_E4typeE
FN:77,_ZSt7forwardIRKZ18testBasicInProcessvEUlRKNSt7__cxx1112basic_stringIcSt11char_traitsIcESaIcEEES7_PKhmE_EOT_RNSt16remove_referenceISD_E4typeE
FNDA:0,_ZSt7forwardIRKZ18testBasicInProcessvEUlRKNSt7__cxx1112basic_stringIcSt11char_traitsIcESaIcEEES7_PKhmE_EOT_RNSt16remove_referenceISD_E4typeE
FN:77,_ZSt7forwardIRKZ18testBasicInProcessvEUlRKNSt7__cxx1112basic_stringIcSt11char_traitsIcESaIcEEES7_PKhmE0_EOT_RNSt16remove_referenceISD_E4typeE
FNDA:0,_ZSt7forwardIRKZ18testBasicInProcessvEUlRKNSt7__cxx1112basic_stringIcSt11char_traitsIcESaIcEEES7_PKhmE0_EOT_RNSt16remove_referenceISD_E4typeE
FN:77,_ZSt7forwardIRKZ18testBasicInProcessvEUlRKNSt7__cxx1112basic_stringIcSt11char_traitsIcESaIcEEES7_PKhmE1_EOT_RNSt16remove_referenceISD_E4typeE
FNDA:0,_ZSt7forwardIRKZ18testBasicInProcessvEUlRKNSt7__cxx1112basic_stringIcSt11char_traitsIcESaIcEEES7_PKhmE1_EOT_RNSt16remove_referenceISD_E4typeE
FN:77,_ZSt7forwardIRKZ19testStressInProcessvEUlRKNSt7__cxx1112basic_stringIcSt11char_traitsIcESaIcEEES7_PKhmE_EOT_RNSt16remove_referenceISD_E4typeE
FNDA:0,_ZSt7forwardIRKZ19testStressInProcessvEUlRKNSt7__cxx1112basic_stringIcSt11char_traitsIcESaIcEEES7_PKhmE_EOT_RNSt16remove_referenceISD_E4typeE
FN:77,_ZSt7forwardIRKZ19testStressInProcessvEUlRKNSt7__cxx1112basic_stringIcSt11char_traitsIcESaIcEEES7_PKhmE1_EOT_RNSt16remove_referenceISD_E4typeE
FNDA:0,_ZSt7forwardIRKZ19testStressInProcessvEUlRKNSt7__cxx1112basic_stringIcSt11char_traitsIcESaIcEEES7_PKhmE1_EOT_RNSt16remove_referenceISD_E4typeE
FN:104,_ZSt4moveIRNSt7__cxx1112basic_stringIcSt11char_traitsIcESaIcEEEEONSt16remove_referenceIT_E4typeEOS8_
FNDA:0,_ZSt4moveIRNSt7__cxx1112basic_stringIcSt11char_traitsIcESaIcEEEEONSt16remove_referenceIT_E4typeEOS8_
FN:104,_ZSt4moveIRSaIcEEONSt16remove_referenceIT_E4typeEOS3_
FNDA:0,_ZSt4moveIRSaIcEEONSt16remove_referenceIT_E4typeEOS3_
DA:49,0
DA:50,0
DA:49,0
DA:50,0
DA:49,0
DA:50,0
DA:49,0
DA:50,0
DA:49,0
DA:50,0
DA:49,0
DA:50,0
DA:49,0
DA:50,0
DA:77,0
DA:78,0
DA:77,0
DA:78,0
DA:77,0
DA:78,0
DA:77,0
DA:78,0
DA:77,0
DA:78,0
DA:77,0
DA:78,0
DA:77,0
DA:78,0
DA:77,0
DA:78,0
DA:77,0
DA:78,0
DA:77,0
DA:78,0
DA:77,0
DA:78,0
DA:77,0
DA:78,0
DA:77,0
DA:78,0
DA:77,0
DA:78,0
DA:77,0
DA:78,0
DA:104,0
DA:105,0
DA:104,0
DA:105,0
end_of_record
SF:/usr/include/c++/11/chrono
FN:223,_ZNSt6chrono20__duration_cast_implINS_8durationIlSt5ratioILl1ELl1EEEES2_ILl1ELl1000EElLb1ELb0EE6__castIlS5_EES4_RKNS1_IT_T0_EE
FNDA:0,_ZNSt6chrono20__duration_cast_implINS_8durationIlSt5ratioILl1ELl1EEEES2_ILl1ELl1000EElLb1ELb0EE6__castIlS5_EES4_RKNS1_IT_T0_EE
FN:223,_ZNSt6chrono20__duration_cast_implINS_8durationIlSt5ratioILl1ELl1000000EEEES2_ILl1ELl1000EElLb1ELb0EE6__castIlS2_ILl1ELl1000000000EEEES4_RKNS1_IT_T0_EE
FNDA:0,_ZNSt6chrono20__duration_cast_implINS_8durationIlSt5ratioILl1ELl1000000EEEES2_ILl1ELl1000EElLb1ELb0EE6__castIlS2_ILl1ELl1000000000EEEES4_RKNS1_IT_T0_EE
FN:236,_ZNSt6chrono20__duration_cast_implINS_8durationIlSt5ratioILl1ELl1000000000EEEES2_ILl1000000ELl1EElLb0ELb1EE6__castIlS2_ILl1ELl1000EEEES4_RKNS1_IT_T0_EE
FNDA:0,_ZNSt6chrono20__duration_cast_implINS_8durationIlSt5ratioILl1ELl1000000000EEEES2_ILl1000000ELl1EElLb0ELb1EE6__castIlS2_ILl1ELl1000EEEES4_RKNS1_IT_T0_EE
FN:236,_ZNSt6chrono20__duration_cast_implINS_8durationIlSt5ratioILl1ELl1000EEEES2_ILl1000ELl1EElLb0ELb1EE6__castIlS2_ILl1ELl1EEEES4_RKNS1_IT_T0_EE
FNDA:0,_ZNSt6chrono20__duration_cast_implINS_8durationIlSt5ratioILl1ELl1000EEEES2_ILl1000ELl1EElLb0ELb1EE6__castIlS2_ILl1ELl1EEEES4_RKNS1_IT_T0_EE
FN:267,_ZNSt6chrono13duration_castINS_8durationIlSt5ratioILl1ELl1000EEEElS2_ILl1ELl1EEEENSt9enable_ifIXsrNS_13__is_durationIT_EE5valueES8_E4typeERKNS1_IT0_T1_EE
FNDA:0,_ZNSt6chrono13duration_castINS_8durationIlSt5ratioILl1ELl1000EEEElS2_ILl1ELl1EEEENSt9enable_ifIXsrNS_13__is_durationIT_EE5valueES8_E4typeERKNS1_IT0_T1_EE
FN:267,_ZNSt6chrono13duration_castINS_8durationIlSt5ratioILl1ELl1000000EEEElS2_ILl1ELl1000000000EEEENSt9enable_ifIXsrNS_13__is_durationIT_EE5valueES8_E4typeERKNS1_IT0_T1_EE
FNDA:0,_ZNSt6chrono13duration_castINS_8durationIlSt5ratioILl1ELl1000000EEEElS2_ILl1ELl1000000000EEEENSt9enable_ifIXsrNS_13__is_durationIT_EE5valueES8_E4typeERKNS1_IT0_T1_EE
FN:267,_ZNSt6chrono13duration_castINS_8durationIlSt5ratioILl1ELl1EEEElS2_ILl1ELl1000EEEENSt9enable_ifIXsrNS_13__is_durationIT_EE5valueES8_E4typeERKNS1_IT0_T1_EE
FNDA:0,_ZNSt6chrono13duration_castINS_8durationIlSt5ratioILl1ELl1EEEElS2_ILl1ELl1000EEEENSt9enable_ifIXsrNS_13__is_durationIT_EE5valueES8_E4typeERKNS1_IT0_T1_EE
FN:267,_ZNSt6chrono13duration_castINS_8durationIlSt5ratioILl1ELl1000000000EEEElS2_ILl1ELl1000EEEENSt9enable_ifIXsrNS_13__is_durationIT_EE5valueES8_E4typeERKNS1_IT0_T1_EE
FNDA:0,_ZNSt6chrono13duration_castINS_8durationIlSt5ratioILl1ELl1000000000EEEElS2_ILl1ELl1000EEEENSt9enable_ifIXsrNS_13__is_durationIT_EE5valueES8_E4typeERKNS1_IT0_T1_EE
FN:432,_ZNSt6chrono15duration_valuesIlE4zeroEv
FNDA:0,_ZNSt6chrono15duration_valuesIlE4zeroEv
FN:521,_ZNSt6chrono8durationIlSt5ratioILl1ELl1000EEEC2IlvEERKT_
FNDA:0,_ZNSt6chrono8durationIlSt5ratioILl1ELl1000EEEC2IlvEERKT_
FN:521,_ZNSt6chrono8durationIlSt5ratioILl1ELl1000000000EEEC1IlvEERKT_
FNDA:0,_ZNSt6chrono8durationIlSt5ratioILl1ELl1000000000EEEC1IlvEERKT_
FN:521,_ZNSt6chrono8durationIlSt5ratioILl1ELl1000000EEEC2IlvEERKT_
FNDA:0,_ZNSt6chrono8durationIlSt5ratioILl1ELl1000000EEEC2IlvEERKT_
FN:521,_ZNSt6chrono8durationIlSt5ratioILl1ELl1000EEEC2IivEERKT_
FNDA:0,_ZNSt6chrono8durationIlSt5ratioILl1ELl1000EEEC2IivEERKT_
FN:521,_ZNSt6chrono8durationIlSt5ratioILl1ELl1EEEC2IlvEERKT_
FNDA:0,_ZNSt6chrono8durationIlSt5ratioILl1ELl1EEEC2IlvEERKT_
FN:529,_ZNSt6chrono8durationIlSt5ratioILl1ELl1000EEEC2IlS1_ILl1ELl1EEvEERKNS0_IT_T0_EE
FNDA:0,_ZNSt6chrono8durationIlSt5ratioILl1ELl1000EEEC2IlS1_ILl1ELl1EEvEERKNS0_IT_T0_EE
FN:537,_ZNKSt6chrono8durationIlSt5ratioILl1ELl1000000000EEE5countEv
FNDA:0,_ZNKSt6chrono8durationIlSt5ratioILl1ELl1000000000EEE5countEv
FN:537,_ZNKSt6chrono8durationIlSt5ratioILl1ELl1000000EEE5countEv
FNDA:0,_ZNKSt6chrono8durationIlSt5ratioILl1ELl1000000EEE5countEv
FN:537,_ZNKSt6chrono8durationIlSt5ratioILl1ELl1EEE5countEv
FNDA:0,_ZNKSt6chrono8durationIlSt5ratioILl1ELl1EEE5countEv
FN:537,_ZNKSt6chrono8durationIlSt5ratioILl1ELl1000EEE5countEv
FNDA:0,_ZNKSt6chrono8durationIlSt5ratioILl1ELl1000EEE5countEv
FN:623,_ZNSt6chrono8durationIlSt5ratioILl1ELl1000EEE4zeroEv
FNDA:0,_ZNSt6chrono8durationIlSt5ratioILl1ELl1000EEE4zeroEv
FN:660,_ZNSt6chronomiIlSt5ratioILl1ELl1000000000EElS2_EENSt11common_typeIJNS_8durationIT_T0_EENS4_IT1_T2_EEEE4typeERKS7_RKSA_
FNDA:0,_ZNSt6chronomiIlSt5ratioILl1ELl1000000000EElS2_EENSt11common_typeIJNS_8durationIT_T0_EENS4_IT1_T2_EEEE4typeERKS7_RKSA_
FN:660,_ZNSt6chronomiIlSt5ratioILl1ELl1000EElS1_ILl1ELl1EEEENSt11common_typeIJNS_8durationIT_T0_EENS5_IT1_T2_EEEE4typeERKS8_RKSB_
FNDA:0,_ZNSt6chronomiIlSt5ratioILl1ELl1000EElS1_ILl1ELl1EEEENSt11common_typeIJNS_8durationIT_T0_EENS5_IT1_T2_EEEE4typeERKS8_RKSB_
FN:772,_ZNSt6chronoltIlSt5ratioILl1ELl1000EElS2_EEbRKNS_8durationIT_T0_EERKNS3_IT1_T2_EE
FNDA:0,_ZNSt6chronoltIlSt5ratioILl1ELl1000EElS2_EEbRKNS_8durationIT_T0_EERKNS3_IT1_T2_EE
FN:805,_ZNSt6chronoleIlSt5ratioILl1ELl1000EElS2_EEbRKNS_8durationIT_T0_EERKNS3_IT1_T2_EE
FNDA:0,_ZNSt6chronoleIlSt5ratioILl1ELl1000EElS2_EEbRKNS_8durationIT_T0_EERKNS3_IT1_T2_EE
FN:898,_ZNKSt6chrono10time_pointINS_3_V212system_clockENS_8durationIlSt5ratioILl1ELl1000000000EEEEE16time_since_epochEv
FNDA:0,_ZNKSt6chrono10time_pointINS_3_V212system_clockENS_8durationIlSt5ratioILl1ELl1000000000EEEEE16time_since_epochEv
FN:1042,_ZNSt6chronomiINS_3_V212system_clockENS_8durationIlSt5ratioILl1ELl1000000000EEEES6_EENSt11common_typeIJT0_T1_EE4typeERKNS_10time_pointIT_S8_EERKNSC_ISD_S9_EE
FNDA:0,_ZNSt6chronomiINS_3_V212system_clockENS_8durationIlSt5ratioILl1ELl1000000000EEEES6_EENSt11common_typeIJT0_T1_EE4typeERKNS_10time_pointIT_S8_EERKNSC_ISD_S9_EE
DA:223,0
DA:226,0
DA:227,0
DA:223,0
DA:226,0
DA:227,0
DA:236,0
DA:239,0
DA:240,0
DA:236,0
DA:239,0
DA:240,0
DA:267,0
DA:276,0
DA:267,0
DA:276,0
DA:267,0
DA:276,0
DA:267,0
DA:276,0
DA:432,0
DA:433,0
DA:521,0
DA:522,0
DA:521,0
DA:522,0
DA:521,0
DA:522,0
DA:521,0
DA:522,0
DA:521,0
DA:522,0
DA:529,0
DA:530,0
DA:537,0
DA:538,0
DA:537,0
DA:538,0
DA:537,0
DA:538,0
DA:537,0
DA:538,0
DA:623,0
DA:624,0
DA:660,0
DA:666,0
DA:660,0
DA:666,0
DA:772,0
DA:778,0
DA:805,0
DA:807,0
DA:898,0
DA:899,0
DA:1042,0
DA:1044,0
end_of_record
SF:/usr/include/c++/11/bits/charconv.h
FN:47,_ZNSt8__detail14__to_chars_lenIjEEjT_i
FNDA:0,_ZNSt8__detail14__to_chars_lenIjEEjT_i
FN:72,_ZNSt8__detail18__to_chars_10_implIjEEvPcjT_
FNDA:0,_ZNSt8__detail18__to_chars_10_implIjEEvPcjT_
DA:47,0
DA:52,0
DA:53,0
DA:54,0
DA:55,0
DA:58,0
DA:59,0
DA:60,0
DA:61,0
DA:62,0
DA:63,0
DA:72,0
DA:83,0
DA:84,0
DA:86,0
DA:87,0
DA:88,0
DA:89,0
DA:90,0
DA:92,0
DA:94,0
DA:95,0
DA:96,0
DA:99,0
DA:100,0
end_of_record
SF:/usr/include/c++/11/iostream
end_of_record
SF:/usr/include/c++/11/bits/shared_ptr.h
end_of_record
SF:/usr/include/c++/11/bits/basic_string.tcc
FN:206,_ZNSt7__cxx1112basic_stringIcSt11char_traitsIcESaIcEE12_M_constructIPcEEvT_S7_St20forward_iterator_tag
FNDA:0,_ZNSt7__cxx1112basic_stringIcSt11char_traitsIcESaIcEE12_M_constructIPcEEvT_S7_St20forward_iterator_tag
FN:206,_ZNSt7__cxx1112basic_stringIcSt11char_traitsIcESaIcEE12_M_constructIPKcEEvT_S8_St20forward_iterator_tag
FNDA:0,_ZNSt7__cxx1112basic_stringIcSt11char_traitsIcESaIcEE12_M_constructIPKcEEvT_S8_St20forward_iterator_tag
DA:206,0
DA:211,0
DA:212,0
DA:215,0
DA:217,0
DA:219,0
DA:220,0
DA:225,0
DA:226,0
DA:228,0
DA:229,0
DA:232,0
DA:233,0
DA:206,0
DA:211,0
DA:212,0
DA:215,0
DA:217,0
DA:219,0
DA:220,0
DA:225,0
DA:226,0
DA:228,0
DA:229,0
DA:232,0
DA:233,0
end_of_record
SF:/usr/include/c++/11/ext/type_traits.h
FN:152,_ZN9__gnu_cxx17__is_null_pointerIcEEbPT_
FNDA:0,_ZN9__gnu_cxx17__is_null_pointerIcEEbPT_
FN:152,_ZN9__gnu_cxx17__is_null_pointerIKcEEbPT_
FNDA:0,_ZN9__gnu_cxx17__is_null_pointerIKcEEbPT_
DA:152,0
DA:153,0
DA:152,0
DA:153,0
end_of_record
SF:/usr/include/c++/11/bits/stl_vector.h
FN:97,_ZNSt12_Vector_baseINSt7__cxx1112basic_stringIcSt11char_traitsIcESaIcEEESaIS5_EE17_Vector_impl_dataC2Ev
FNDA:0,_ZNSt12_Vector_baseINSt7__cxx1112basic_stringIcSt11char_traitsIcESaIcEEESaIS5_EE17_Vector_impl_dataC2Ev
FN:136,_ZNSt12_Vector_baseINSt7__cxx1112basic_stringIcSt11char_traitsIcESaIcEEESaIS5_EE12_Vector_implC2ERKS6_
FNDA:0,_ZNSt12_Vector_baseINSt7__cxx1112basic_stringIcSt11char_traitsIcESaIcEEESaIS5_EE12_Vector_implC2ERKS6_
FN:276,_ZNSt12_Vector_baseINSt7__cxx1112basic_stringIcSt11char_traitsIcESaIcEEESaIS5_EE19_M_get_Tp_allocatorEv
FNDA:0,_ZNSt12_Vector_baseINSt7__cxx1112basic_stringIcSt11char_traitsIcESaIcEEESaIS5_EE19_M_get_Tp_allocatorEv
FN:293,_ZNSt12_Vector_baseINSt7__cxx1112basic_stringIcSt11char_traitsIcESaIcEEESaIS5_EEC2ERKS6_
FNDA:0,_ZNSt12_Vector_baseINSt7__cxx1112basic_stringIcSt11char_traitsIcESaIcEEESaIS5_EEC2ERKS6_
FN:333,_ZNSt12_Vector_baseINSt7__cxx1112basic_stringIcSt11char_traitsIcESaIcEEESaIS5_EED2Ev
FNDA:0,_ZNSt12_Vector_baseINSt7__cxx1112basic_stringIcSt11char_traitsIcESaIcEEESaIS5_EED2Ev
FN:343,_ZNSt12_Vector_baseINSt7__cxx1112basic_stringIcSt11char_traitsIcESaIcEEESaIS5_EE11_M_allocateEm
FNDA:0,_ZNSt12_Vector_baseINSt7__cxx1112basic_stringIcSt11char_traitsIcESaIcEEESaIS5_EE11_M_allocateEm
FN:350,_ZNSt12_Vector_baseINSt7__cxx1112basic_stringIcSt11char_traitsIcESaIcEEESaIS5_EE13_M_deallocateEPS5_m
FNDA:0,_ZNSt12_Vector_baseINSt7__cxx1112basic_stringIcSt11char_traitsIcESaIcEEESaIS5_EE13_M_deallocateEPS5_m
FN:625,_ZNSt6vectorINSt7__cxx1112basic_stringIcSt11char_traitsIcESaIcEEESaIS5_EEC2ESt16initializer_listIS5_ERKS6_
FNDA:0,_ZNSt6vectorINSt7__cxx1112basic_stringIcSt11char_traitsIcESaIcEEESaIS5_EEC2ESt16initializer_listIS5_ERKS6_
FN:678,_ZNSt6vectorINSt7__cxx1112basic_stringIcSt11char_traitsIcESaIcEEESaIS5_EED2Ev
FNDA:0,_ZNSt6vectorINSt7__cxx1112basic_stringIcSt11char_traitsIcESaIcEEESaIS5_EED2Ev
FN:1577,_ZNSt6vectorINSt7__cxx1112basic_stringIcSt11char_traitsIcESaIcEEESaIS5_EE19_M_range_initializeIPKS5_EEvT_SB_St20forward_iterator_tag
FNDA:0,_ZNSt6vectorINSt7__cxx1112basic_stringIcSt11char_traitsIcESaIcEEESaIS5_EE19_M_range_initializeIPKS5_EEvT_SB_St20forward_iterator_tag
FN:1767,_ZNSt6vectorINSt7__cxx1112basic_stringIcSt11char_traitsIcESaIcEEESaIS5_EE17_S_check_init_lenEmRKS6_
FNDA:0,_ZNSt6vectorINSt7__cxx1112basic_stringIcSt11char_traitsIcESaIcEEESaIS5_EE17_S_check_init_lenEmRKS6_
FN:1776,_ZNSt6vectorINSt7__cxx1112basic_stringIcSt11char_traitsIcESaIcEEESaIS5_EE11_S_max_sizeERKS6_
FNDA:0,_ZNSt6vectorINSt7__cxx1112basic_stringIcSt11char_traitsIcESaIcEEESaIS5_EE11_S_max_sizeERKS6_
DA:97,0
DA:98,0
DA:99,0
DA:136,0
DA:137,0
DA:138,0
DA:276,0
DA:277,0
DA:293,0
DA:294,0
DA:333,0
DA:335,0
DA:336,0
DA:337,0
DA:343,0
DA:346,0
DA:350,0
DA:353,0
DA:354,0
DA:355,0
DA:625,0
DA:627,0
DA:629,0
DA:630,0
DA:631,0
DA:678,0
DA:680,0
DA:681,0
DA:683,0
DA:1577,0
DA:1580,0
DA:1582,0
DA:1583,0
DA:1584,0
DA:1585,0
DA:1587,0
DA:1588,0
DA:1767,0
DA:1769,0
DA:1770,0
DA:1772,0
DA:1776,0
DA:1781,0
DA:1783,0
DA:1784,0
end_of_record
SF:/usr/include/c++/11/bits/this_thread_sleep.h
FN:70,_ZNSt11this_thread9sleep_forIlSt5ratioILl1ELl1000EEEEvRKNSt6chrono8durationIT_T0_EE
FNDA:0,_ZNSt11this_thread9sleep_forIlSt5ratioILl1ELl1000EEEEvRKNSt6chrono8durationIT_T0_EE
DA:70,0
DA:72,0
DA:73,0
DA:74,0
DA:75,0
DA:77,0
DA:79,0
DA:80,0
DA:82,0
end_of_record
SF:/usr/include/c++/11/new
FN:174,_ZnwmPv
FNDA:0,_ZnwmPv
FN:180,_ZdlPvS_
FNDA:0,_ZdlPvS_
DA:174,0
DA:175,0
DA:180,0
end_of_record
SF:/usr/include/c++/11/bits/char_traits.h
FN:393,_ZNSt11char_traitsIcE6lengthEPKc
FNDA:0,_ZNSt11char_traitsIcE6lengthEPKc
FN:429,_ZNSt11char_traitsIcE4copyEPcPKcm
FNDA:0,_ZNSt11char_traitsIcE4copyEPcPKcm
DA:393,0
DA:399,0
DA:429,0
DA:431,0
DA:432,0
DA:437,0
end_of_record
SF:/usr/include/c++/11/bits/stl_algobase.h
FN:230,_ZSt3minImERKT_S2_S2_
FNDA:0,_ZSt3minImERKT_S2_S2_
DA:230,0
DA:235,0
DA:236,0
DA:237,0
end_of_record
SF:/usr/include/c++/11/bits/stl_construct.h
FN:109,_ZSt10_ConstructINSt7__cxx1112basic_stringIcSt11char_traitsIcESaIcEEEJRKS5_EEvPT_DpOT0_
FNDA:0,_ZSt10_ConstructINSt7__cxx1112basic_stringIcSt11char_traitsIcESaIcEEEJRKS5_EEvPT_DpOT0_
FN:146,_ZSt8_DestroyINSt7__cxx1112basic_stringIcSt11char_traitsIcESaIcEEEEvPT_
FNDA:0,_ZSt8_DestroyINSt7__cxx1112basic_stringIcSt11char_traitsIcESaIcEEEEvPT_
FN:160,_ZNSt12_Destroy_auxILb0EE9__destroyIPNSt7__cxx1112basic_stringIcSt11char_traitsIcESaIcEEEEEvT_S9_
FNDA:0,_ZNSt12_Destroy_auxILb0EE9__destroyIPNSt7__cxx1112basic_stringIcSt11char_traitsIcESaIcEEEEEvT_S9_
FN:182,_ZSt8_DestroyIPNSt7__cxx1112basic_stringIcSt11char_traitsIcESaIcEEEEvT_S7_
FNDA:0,_ZSt8_DestroyIPNSt7__cxx1112basic_stringIcSt11char_traitsIcESaIcEEEEvT_S7_
DA:109,0
DA:119,0
DA:120,0
DA:146,0
DA:151,0
DA:153,0
DA:160,0
DA:162,0
DA:163,0
DA:164,0
DA:182,0
DA:196,0
DA:197,0
end_of_record
SF:/usr/include/c++/11/bits/stl_iterator_base_funcs.h
FN:98,_ZSt10__distanceIPcENSt15iterator_traitsIT_E15difference_typeES2_S2_St26random_access_iterator_tag
FNDA:0,_ZSt10__distanceIPcENSt15iterator_traitsIT_E15difference_typeES2_S2_St26random_access_iterator_tag
FN:98,_ZSt10__distanceIPKNSt7__cxx1112basic_stringIcSt11char_traitsIcESaIcEEEENSt15iterator_traitsIT_E15difference_typeES9_S9_St26random_access_iterator_tag
FNDA:0,_ZSt10__distanceIPKNSt7__cxx1112basic_stringIcSt11char_traitsIcESaIcEEEENSt15iterator_traitsIT_E15difference_typeES9_S9_St26random_access_iterator_tag
FN:98,_ZSt10__distanceIPKcENSt15iterator_traitsIT_E15difference_typeES3_S3_St26random_access_iterator_tag
FNDA:0,_ZSt10__distanceIPKcENSt15iterator_traitsIT_E15difference_typeES3_S3_St26random_access_iterator_tag
FN:138,_ZSt8distanceIPcENSt15iterator_traitsIT_E15difference_typeES2_S2_
FNDA:0,_ZSt8distanceIPcENSt15iterator_traitsIT_E15difference_typeES2_S2_
FN:138,_ZSt8distanceIPKNSt7__cxx1112basic_stringIcSt11char_traitsIcESaIcEEEENSt15iterator_traitsIT_E15difference_typeES9_S9_
FNDA:0,_ZSt8distanceIPKNSt7__cxx1112basic_stringIcSt11char_traitsIcESaIcEEEENSt15iterator_traitsIT_E15difference_typeES9_S9_
FN:138,_ZSt8distanceIPKcENSt15iterator_traitsIT_E15difference_typeES3_S3_
FNDA:0,_ZSt8distanceIPKcENSt15iterator_traitsIT_E15difference_typeES3_S3_
DA:98,0
DA:104,0
DA:98,0
DA:104,0
DA:98,0
DA:104,0
DA:138,0
DA:141,0
DA:142,0
DA:138,0
DA:141,0
DA:142,0
DA:138,0
DA:141,0
DA:142,0
end_of_record
SF:/usr/include/c++/11/ext/alloc_traits.h
FN:97,_ZN9__gnu_cxx14__alloc_traitsISaIcEcE17_S_select_on_copyERKS1_
FNDA:0,_ZN9__gnu_cxx14__alloc_traitsISaIcEcE17_S_select_on_copyERKS1_
DA:97,0
DA:98,0
end_of_record
SF:/usr/include/c++/11/bits/std_function.h
FN:85,_ZNSt9_Any_data9_M_accessEv
FNDA:0,_ZNSt9_Any_data9_M_accessEv
FN:86,_ZNKSt9_Any_data9_M_accessEv
FNDA:0,_ZNKSt9_Any_data9_M_accessEv
FN:90,_ZNSt9_Any_data9_M_accessIZ19testStressInProcessvEUlRKNSt7__cxx1112basic_stringIcSt11char_traitsIcESaIcEEES8_PKhmE1_EERT_v
FNDA:0,_ZNSt9_Any_data9_M_accessIZ19testStressInProcessvEUlRKNSt7__cxx1112basic_stringIcSt11char_traitsIcESaIcEEES8_PKhmE1_EERT_v
FN:90,_ZNSt9_Any_data9_M_accessIPZ19testStressInProcessvEUlRKNSt7__cxx1112basic_stringIcSt11char_traitsIcESaIcEEES8_PKhmE1_EERT_v
FNDA:0,_ZNSt9_Any_data9_M_accessIPZ19testStressInProcessvEUlRKNSt7__cxx1112basic_stringIcSt11char_traitsIcESaIcEEES8_PKhmE1_EERT_v
FN:90,_ZNSt9_Any_data9_M_accessIPZ19testStressInProcessvEUlRKNSt7__cxx1112basic_stringIcSt11char_traitsIcESaIcEEES8_PKhmE0_EERT_v
FNDA:0,_ZNSt9_Any_data9_M_accessIPZ19testStressInProcessvEUlRKNSt7__cxx1112basic_stringIcSt11char_traitsIcESaIcEEES8_PKhmE0_EERT_v
FN:90,_ZNSt9_Any_data9_M_accessIPZ19testStressInProcessvEUlRKNSt7__cxx1112basic_stringIcSt11char_traitsIcESaIcEEES8_PKhmE_EERT_v
FNDA:0,_ZNSt9_Any_data9_M_accessIPZ19testStressInProcessvEUlRKNSt7__cxx1112basic_stringIcSt11char_traitsIcESaIcEEES8_PKhmE_EERT_v
FN:90,_ZNSt9_Any_data9_M_accessIPZ18testBasicInProcessvEUlRKNSt7__cxx1112basic_stringIcSt11char_traitsIcESaIcEEES8_PKhmE1_EERT_v
FNDA:0,_ZNSt9_Any_data9_M_accessIPZ18testBasicInProcessvEUlRKNSt7__cxx1112basic_stringIcSt11char_traitsIcESaIcEEES8_PKhmE1_EERT_v
FN:90,_ZNSt9_Any_data9_M_accessIPZ18testBasicInProcessvEUlRKNSt7__cxx1112basic_stringIcSt11char_traitsIcESaIcEEES8_PKhmE0_EERT_v
FNDA:0,_ZNSt9_Any_data9_M_accessIPZ18testBasicInProcessvEUlRKNSt7__cxx1112basic_stringIcSt11char_traitsIcESaIcEEES8_PKhmE0_EERT_v
FN:90,_ZNSt9_Any_data9_M_accessIZ18testBasicInProcessvEUlRKNSt7__cxx1112basic_stringIcSt11char_traitsIcESaIcEEES8_PKhmE_EERT_v
FNDA:0,_ZNSt9_Any_data9_M_accessIZ18testBasicInProcessvEUlRKNSt7__cxx1112basic_stringIcSt11char_traitsIcESaIcEEES8_PKhmE_EERT_v
FN:90,_ZNSt9_Any_data9_M_accessIZ18testBasicInProcessvEUlRKNSt7__cxx1112basic_stringIcSt11char_traitsIcESaIcEEES8_PKhmE0_EERT_v
FNDA:0,_ZNSt9_Any_data9_M_accessIZ18testBasicInProcessvEUlRKNSt7__cxx1112basic_stringIcSt11char_traitsIcESaIcEEES8_PKhmE0_EERT_v
FN:90,_ZNSt9_Any_data9_M_accessIPZ18testBasicInProcessvEUlRKNSt7__cxx1112basic_stringIcSt11char_traitsIcESaIcEEES8_PKhmE_EERT_v
FNDA:0,_ZNSt9_Any_data9_M_accessIPZ18testBasicInProcessvEUlRKNSt7__cxx1112basic_stringIcSt11char_traitsIcESaIcEEES8_PKhmE_EERT_v
FN:90,_ZNSt9_Any_data9_M_accessIPKSt9type_infoEERT_v
FNDA:0,_ZNSt9_Any_data9_M_accessIPKSt9type_infoEERT_v
FN:90,_ZNSt9_Any_data9_M_accessIZ19testStressInProcessvEUlRKNSt7__cxx1112basic_stringIcSt11char_traitsIcESaIcEEES8_PKhmE0_EERT_v
FNDA:0,_ZNSt9_Any_data9_M_accessIZ19testStressInProcessvEUlRKNSt7__cxx1112basic_stringIcSt11char_traitsIcESaIcEEES8_PKhmE0_EERT_v
FN:90,_ZNSt9_Any_data9_M_accessIZ18testBasicInProcessvEUlRKNSt7__cxx1112basic_stringIcSt11char_traitsIcESaIcEEES8_PKhmE1_EERT_v
FNDA:0,_ZNSt9_Any_data9_M_accessIZ18testBasicInProcessvEUlRKNSt7__cxx1112basic_stringIcSt11char_traitsIcESaIcEEES8_PKhmE1_EERT_v
FN:90,_ZNSt9_Any_data9_M_accessIZ19testStressInProcessvEUlRKNSt7__cxx1112basic_stringIcSt11char_traitsIcESaIcEEES8_PKhmE_EERT_v
FNDA:0,_ZNSt9_Any_data9_M_accessIZ19testStressInProcessvEUlRKNSt7__cxx1112basic_stringIcSt11char_traitsIcESaIcEEES8_PKhmE_EERT_v
FN:95,_ZNKSt9_Any_data9_M_accessIZ18testBasicInProcessvEUlRKNSt7__cxx1112basic_stringIcSt11char_traitsIcESaIcEEES8_PKhmE0_EERKT_v
FNDA:0,_ZNKSt9_Any_data9_M_accessIZ18testBasicInProcessvEUlRKNSt7__cxx1112basic_stringIcSt11char_traitsIcESaIcEEES8_PKhmE0_EERKT_v
FN:95,_ZNKSt9_Any_data9_M_accessIZ18testBasicInProcessvEUlRKNSt7__cxx1112basic_stringIcSt11char_traitsIcESaIcEEES8_PKhmE_EERKT_v
FNDA:0,_ZNKSt9_Any_data9_M_accessIZ18testBasicInProcessvEUlRKNSt7__cxx1112basic_stringIcSt11char_traitsIcESaIcEEES8_PKhmE_EERKT_v
FN:95,_ZNKSt9_Any_data9_M_accessIZ18testBasicInProcessvEUlRKNSt7__cxx1112basic_stringIcSt11char_traitsIcESaIcEEES8_PKhmE1_EERKT_v
FNDA:0,_ZNKSt9_Any_data9_M_accessIZ18testBasicInProcessvEUlRKNSt7__cxx1112basic_stringIcSt11char_traitsIcESaIcEEES8_PKhmE1_EERKT_v
FN:95,_ZNKSt9_Any_data9_M_accessIZ19testStressInProcessvEUlRKNSt7__cxx1112basic_stringIcSt11char_traitsIcESaIcEEES8_PKhmE_EERKT_v
FNDA:0,_ZNKSt9_Any_data9_M_accessIZ19testStressInProcessvEUlRKNSt7__cxx1112basic_stringIcSt11char_traitsIcESaIcEEES8_PKhmE_EERKT_v
FN:95,_ZNKSt9_Any_data9_M_accessIZ19testStressInProcessvEUlRKNSt7__cxx1112basic_stringIcSt11char_traitsIcESaIcEEES8_PKhmE0_EERKT_v
FNDA:0,_ZNKSt9_Any_data9_M_accessIZ19testStressInProcessvEUlRKNSt7__cxx1112basic_stringIcSt11char_traitsIcESaIcEEES8_PKhmE0_EERKT_v
FN:95,_ZNKSt9_Any_data9_M_accessIZ19testStressInProcessvEUlRKNSt7__cxx1112basic_stringIcSt11char_traitsIcESaIcEEES8_PKhmE1_EERKT_v
FNDA:0,_ZNKSt9_Any_data9_M_accessIZ19testStressInProcessvEUlRKNSt7__cxx1112basic_stringIcSt11char_traitsIcESaIcEEES8_PKhmE1_EERKT_v
FN:134,_ZNSt14_Function_base13_Base_managerIZ19testStressInProcessvEUlRKNSt7__cxx1112basic_stringIcSt11char_traitsIcESaIcEEES8_PKhmE0_E14_M_get_pointerERKSt9_Any_data
FNDA:0,_ZNSt14_Function_base13_Base_managerIZ19testStressInProcessvEUlRKNSt7__cxx1112basic_stringIcSt11char_traitsIcESaIcEEES8_PKhmE0_E14_M_get_pointerERKSt9_Any_data
FN:134,_ZNSt14_Function_base13_Base_managerIZ18testBasicInProcessvEUlRKNSt7__cxx1112basic_stringIcSt11char_traitsIcESaIcEEES8_PKhmE_E14_M_get_pointerERKSt9_Any_data
FNDA:0,_ZNSt14_Function_base13_Base_managerIZ18testBasicInProcessvEUlRKNSt7__cxx1112basic_stringIcSt11char_traitsIcESaIcEEES8_PKhmE_E14_M_get_pointerERKSt9_Any_data
FN:134,_ZNSt14_Function_base13_Base_managerIZ19testStressInProcessvEUlRKNSt7__cxx1112basic_stringIcSt11char_traitsIcESaIcEEES8_PKhmE1_E14_M_get_pointerERKSt9_Any_data
FNDA:0,_ZNSt14_Function_base13_Base_managerIZ19testStressInProcessvEUlRKNSt7__cxx1112basic_stringIcSt11char_traitsIcESaIcEEES8_PKhmE1_E14_M_get_pointerERKSt9_Any_data
FN:134,_ZNSt14_Function_base13_Base_managerIZ19testStressInProcessvEUlRKNSt7__cxx1112basic_stringIcSt11char_traitsIcESaIcEEES8_PKhmE_E14_M_get_pointerERKSt9_Any_data
FNDA:0,_ZNSt14_Function_base13_Base_managerIZ19testStressInProcessvEUlRKNSt7__cxx1112basic_stringIcSt11char_traitsIcESaIcEEES8_PKhmE_E14_M_get_pointerERKSt9_Any_data
FN:134,_ZNSt14_Function_base13_Base_managerIZ18testBasicInProcessvEUlRKNSt7__cxx1112basic_stringIcSt11char_traitsIcESaIcEEES8_PKhmE1_E14_M_get_pointerERKSt9_Any_data
FNDA:0,_ZNSt14_Function_base13_Base_managerIZ18testBasicInProcessvEUlRKNSt7__cxx1112basic_stringIcSt11char_traitsIcESaIcEEES8_PKhmE1_E14_M_get_pointerERKSt9_Any_data
FN:134,_ZNSt14_Function_base13_Base_managerIZ18testBasicInProcessvEUlRKNSt7__cxx1112basic_stringIcSt11char_traitsIcESaIcEEES8_PKhmE0_E14_M_get_pointerERKSt9_Any_data
FNDA:0,_ZNSt14_Function_base13_Base_managerIZ18testBasicInProcessvEUlRKNSt7__cxx1112basic_stringIcSt11char_traitsIcESaIcEEES8_PKhmE0_E14_M_get_pointerERKSt9_Any_data
FN:150,_ZNSt14_Function_base13_Base_managerIZ18testBasicInProcessvEUlRKNSt7__cxx1112basic_stringIcSt11char_traitsIcESaIcEEES8_PKhmE1_E9_M_createIRSB_EEvRSt9_Any_dataOT_St17integral_constantIbLb1EE
FNDA:0,_ZNSt14_Function_base13_Base_managerIZ18testBasicInProcessvEUlRKNSt7__cxx1112basic_stringIcSt11char_traitsIcESaIcEEES8_PKhmE1_E9_M_createIRSB_EEvRSt9_Any_dataOT_St17integral_constantIbLb1EE
FN:150,_ZNSt14_Function_base13_Base_managerIZ19testStressInProcessvEUlRKNSt7__cxx1112basic_stringIcSt11char_traitsIcESaIcEEES8_PKhmE1_E9_M_createIRKSB_EEvRSt9_Any_dataOT_St17integral_constantIbLb1EE
FNDA:0,_ZNSt14_Function_base13_Base_managerIZ19testStressInProcessvEUlRKNSt7__cxx1112basic_stringIcSt11char_traitsIcESaIcEEES8_PKhmE1_E9_M_createIRKSB_EEvRSt9_Any_dataOT_St17integral_constantIbLb1EE
FN:150,_ZNSt14_Function_base13_Base_managerIZ18testBasicInProcessvEUlRKNSt7__cxx1112basic_stringIcSt11char_traitsIcESaIcEEES8_PKhmE_E9_M_createIRSB_EEvRSt9_Any_dataOT_St17integral_constantIbLb1EE
FNDA:0,_ZNSt14_Function_base13_Base_managerIZ18testBasicInProcessvEUlRKNSt7__cxx1112basic_stringIcSt11char_traitsIcESaIcEEES8_PKhmE_E9_M_createIRSB_EEvRSt9_Any_dataOT_St17integral_constantIbLb1EE
FN:150,_ZNSt14_Function_base13_Base_managerIZ18testBasicInProcessvEUlRKNSt7__cxx1112basic_stringIcSt11char_traitsIcESaIcEEES8_PKhmE_E9_M_createIRKSB_EEvRSt9_Any_dataOT_St17integral_constantIbLb1EE
FNDA:0,_ZNSt14_Function_base13_Base_managerIZ18testBasicInProcessvEUlRKNSt7__cxx1112basic_stringIcSt11char_traitsIcESaIcEEES8_PKhmE_E9_M_createIRKSB_EEvRSt9_Any_dataOT_St17integral_constantIbLb1EE
FN:150,_ZNSt14_Function_base13_Base_managerIZ19testStressInProcessvEUlRKNSt7__cxx1112basic_stringIcSt11char_traitsIcESaIcEEES8_PKhmE0_E9_M_createIRKSB_EEvRSt9_Any_dataOT_St17integral_constantIbLb1EE
FNDA:0,_ZNSt14_Function_base13_Base_managerIZ19testStressInProcessvEUlRKNSt7__cxx1112basic_stringIcSt11char_traitsIcESaIcEEES8_PKhmE0_E9_M_createIRKSB_EEvRSt9_Any_dataOT_St17integral_constantIbLb1EE
FN:150,_ZNSt14_Function_base13_Base_managerIZ19testStressInProcessvEUlRKNSt7__cxx1112basic_stringIcSt11char_traitsIcESaIcEEES8_PKhmE1_E9_M_createIRSB_EEvRSt9_Any_dataOT_St17integral_constantIbLb1EE
FNDA:0,_ZNSt14_Function_base13_Base_managerIZ19testStressInProcessvEUlRKNSt7__cxx1112basic_stringIcSt11char_traitsIcESaIcEEES8_PKhmE1_E9_M_createIRSB_EEvRSt9_Any_dataOT_St17integral_constantIbLb1EE
FN:150,_ZNSt14_Function_base13_Base_managerIZ19testStressInProcessvEUlRKNSt7__cxx1112basic_stringIcSt11char_traitsIcESaIcEEES8_PKhmE_E9_M_createIRKSB_EEvRSt9_Any_dataOT_St17integral_constantIbLb1EE
FNDA:0,_ZNSt14_Function_base13_Base_managerIZ19testStressInProcessvEUlRKNSt7__cxx1112basic_stringIcSt11char_traitsIcESaIcEEES8_PKhmE_E9_M_createIRKSB_EEvRSt9_Any_dataOT_St17integral_constantIbLb1EE
FN:150,_ZNSt14_Function_base13_Base_managerIZ18testBasicInProcessvEUlRKNSt7__cxx1112basic_stringIcSt11char_traitsIcESaIcEEES8_PKhmE1_E9_M_createIRKSB_EEvRSt9_Any_dataOT_St17integral_constantIbLb1EE
FNDA:0,_ZNSt14_Function_base13_Base_managerIZ18testBasicInProcessvEUlRKNSt7__cxx1112basic_stringIcSt11char_traitsIcESaIcEEES8_PKhmE1_E9_M_createIRKSB_EEvRSt9_Any_dataOT_St17integral_constantIbLb1EE
FN:150,_ZNSt14_Function_base13_Base_managerIZ19testStressInProcessvEUlRKNSt7__cxx1112basic_stringIcSt11char_traitsIcESaIcEEES8_PKhmE0_E9_M_createIRSB_EEvRSt9_Any_dataOT_St17integral_constantIbLb1EE
FNDA:0,_ZNSt14_Function_base13_Base_managerIZ19testStressInProcessvEUlRKNSt7__cxx1112basic_stringIcSt11char_traitsIcESaIcEEES8_PKhmE0_E9_M_createIRSB_EEvRSt9_Any_dataOT_St17integral_constantIbLb1EE
FN:150,_ZNSt14_Function_base13_Base_managerIZ18testBasicInProcessvEUlRKNSt7__cxx1112basic_stringIcSt11char_traitsIcESaIcEEES8_PKhmE0_E9_M_createIRKSB_EEvRSt9_Any_dataOT_St17integral_constantIbLb1EE
FNDA:0,_ZNSt14_Function_base13_Base_managerIZ18testBasicInProcessvEUlRKNSt7__cxx1112basic_stringIcSt11char_traitsIcESaIcEEES8_PKhmE0_E9_M_createIRKSB_EEvRSt9_Any_dataOT_St17integral_constantIbLb1EE
FN:150,_ZNSt14_Function_base13_Base_managerIZ18testBasicInProcessvEUlRKNSt7__cxx1112basic_stringIcSt11char_traitsIcESaIcEEES8_PKhmE0_E9_M_createIRSB_EEvRSt9_Any_dataOT_St17integral_constantIbLb1EE
FNDA:0,_ZNSt14_Function_base13_Base_managerIZ18testBasicInProcessvEUlRKNSt7__cxx1112basic_stringIcSt11char_traitsIcESaIcEEES8_PKhmE0_E9_M_createIRSB_EEvRSt9_Any_dataOT_St17integral_constantIbLb1EE
FN:150,_ZNSt14_Function_base13_Base_managerIZ19testStressInProcessvEUlRKNSt7__cxx1112basic_stringIcSt11char_traitsIcESaIcEEES8_PKhmE_E9_M_createIRSB_EEvRSt9_Any_dataOT_St17integral_constantIbLb1EE
FNDA:0,_ZNSt14_Function_base13_Base_managerIZ19testStressInProcessvEUlRKNSt7__cxx1112basic_stringIcSt11char_traitsIcESaIcEEES8_PKhmE_E9_M_createIRSB_EEvRSt9_Any_dataOT_St17integral_constantIbLb1EE
FN:166,_ZNSt14_Function_base13_Base_managerIZ19testStressInProcessvEUlRKNSt7__cxx1112basic_stringIcSt11char_traitsIcESaIcEEES8_PKhmE1_E10_M_destroyERSt9_Any_dataSt17integral_constantIbLb1EE
FNDA:0,_ZNSt14_Function_base13_Base_managerIZ19testStressInProcessvEUlRKNSt7__cxx1112basic_stringIcSt11char_traitsIcESaIcEEES8_PKhmE1_E10_M_destroyERSt9_Any_dataSt17integral_constantIbLb1EE
FN:166,_ZNSt14_Function_base13_Base_managerIZ19testStressInProcessvEUlRKNSt7__cxx1112basic_stringIcSt11char_traitsIcESaIcEEES8_PKhmE0_E10_M_destroyERSt9_Any_dataSt17integral_constantIbLb1EE
FNDA:0,_ZNSt14_Function_base13_Base_managerIZ19testStressInProcessvEUlRKNSt7__cxx1112basic_stringIcSt11char_traitsIcESaIcEEES8_PKhmE0_E10_M_destroyERSt9_Any_dataSt17integral_constantIbLb1EE
FN:166,_ZNSt14_Function_base13_Base_managerIZ19testStressInProcessvEUlRKNSt7__cxx1112basic_stringIcSt11char_traitsIcESaIcEEES8_PKhmE_E10_M_destroyERSt9_Any_dataSt17integral_constantIbLb1EE
FNDA:0,_ZNSt14_Function_base13_Base_managerIZ19testStressInProcessvEUlRKNSt7__cxx1112basic_stringIcSt11char_traitsIcESaIcEEES8_PKhmE_E10_M_destroyERSt9_Any_dataSt17integral_constantIbLb1EE
FN:166,_ZNSt14_Function_base13_Base_managerIZ18testBasicInProcessvEUlRKNSt7__cxx1112basic_stringIcSt11char_traitsIcESaIcEEES8_PKhmE1_E10_M_destroyERSt9_Any_dataSt17integral_constantIbLb1EE
FNDA:0,_ZNSt14_Function_base13_Base_managerIZ18testBasicInProcessvEUlRKNSt7__cxx1112basic_stringIcSt11char_traitsIcESaIcEEES8_PKhmE1_E10_M_destroyERSt9_Any_dataSt17integral_constantIbLb1EE
FN:166,_ZNSt14_Function_base13_Base_managerIZ18testBasicInProcessvEUlRKNSt7__cxx1112basic_stringIcSt11char_traitsIcESaIcEEES8_PKhmE0_E10_M_destroyERSt9_Any_dataSt17integral_constantIbLb1EE
FNDA:0,_ZNSt14_Function_base13_Base_managerIZ18testBasicInProcessvEUlRKNSt7__cxx1112basic_stringIcSt11char_traitsIcESaIcEEES8_PKhmE0_E10_M_destroyERSt9_Any_dataSt17integral_constantIbLb1EE
FN:166,_ZNSt14_Function_base13_Base_managerIZ18testBasicInProcessvEUlRKNSt7__cxx1112basic_stringIcSt11char_traitsIcESaIcEEES8_PKhmE_E10_M_destroyERSt9_Any_dataSt17integral_constantIbLb1EE
FNDA:0,_ZNSt14_Function_base13_Base_managerIZ18testBasicInProcessvEUlRKNSt7__cxx1112basic_stringIcSt11char_traitsIcESaIcEEES8_PKhmE_E10_M_destroyERSt9_Any_dataSt17integral_constantIbLb1EE
FN:180,_ZNSt14_Function_base13_Base_managerIZ18testBasicInProcessvEUlRKNSt7__cxx1112basic_stringIcSt11char_traitsIcESaIcEEES8_PKhmE_E10_M_managerERSt9_Any_dataRKSD_St18_Manager_operation
FNDA:0,_ZNSt14_Function_base13_Base_managerIZ18testBasicInProcessvEUlRKNSt7__cxx1112basic_stringIcSt11char_traitsIcESaIcEEES8_PKhmE_E10_M_managerERSt9_Any_dataRKSD_St18_Manager_operation
FN:180,_ZNSt14_Function_base13_Base_managerIZ18testBasicInProcessvEUlRKNSt7__cxx1112basic_stringIcSt11char_traitsIcESaIcEEES8_PKhmE1_E10_M_managerERSt9_Any_dataRKSD_St18_Manager_operation
FNDA:0,_ZNSt14_Function_base13_Base_managerIZ18testBasicInProcessvEUlRKNSt7__cxx1112basic_stringIcSt11char_traitsIcESaIcEEES8_PKhmE1_E10_M_managerERSt9_Any_dataRKSD_St18_Manager_operation
FN:180,_ZNSt14_Function_base13_Base_managerIZ18testBasicInProcessvEUlRKNSt7__cxx1112basic_stringIcSt11char_traitsIcESaIcEEES8_PKhmE0_E10_M_managerERSt9_Any_dataRKSD_St18_Manager_operation
FNDA:0,_ZNSt14_Function_base13_Base_managerIZ18testBasicInProcessvEUlRKNSt7__cxx1112basic_stringIcSt11char_traitsIcESaIcEEES8_PKhmE0_E10_M_managerERSt9_Any_dataRKSD_St18_Manager_operation
FN:180,_ZNSt14_Function_base13_Base_managerIZ19testStressInProcessvEUlRKNSt7__cxx1112basic_stringIcSt11char_traitsIcESaIcEEES8_PKhmE_E10_M_managerERSt9_Any_dataRKSD_St18_Manager_operation
FNDA:0,_ZNSt14_Function_base13_Base_managerIZ19testStressInProcessvEUlRKNSt7__cxx1112basic_stringIcSt11char_traitsIcESaIcEEES8_PKhmE_E10_M_managerERSt9_Any_dataRKSD_St18_Manager_operation
FN:180,_ZNSt14_Function_base13_Base_managerIZ19testStressInProcessvEUlRKNSt7__cxx1112basic_stringIcSt11char_traitsIcESaIcEEES8_PKhmE0_E10_M_managerERSt9_Any_dataRKSD_St18_Manager_operation
FNDA:0,_ZNSt14_Function_base13_Base_managerIZ19testStressInProcessvEUlRKNSt7__cxx1112basic_stringIcSt11char_traitsIcESaIcEEES8_PKhmE0_E10_M_managerERSt9_Any_dataRKSD_St18_Manager_operation
FN:180,_ZNSt14_Function_base13_Base_managerIZ19testStressInProcessvEUlRKNSt7__cxx1112basic_stringIcSt11char_traitsIcESaIcEEES8_PKhmE1_E10_M_managerERSt9_Any_dataRKSD_St18_Manager_operation
FNDA:0,_ZNSt14_Function_base13_Base_managerIZ19testStressInProcessvEUlRKNSt7__cxx1112basic_stringIcSt11char_traitsIcESaIcEEES8_PKhmE1_E10_M_managerERSt9_Any_dataRKSD_St18_Manager_operation
FN:211,_ZNSt14_Function_base13_Base_managerIZ18testBasicInProcessvEUlRKNSt7__cxx1112basic_stringIcSt11char_traitsIcESaIcEEES8_PKhmE1_E15_M_init_functorIRSB_EEvRSt9_Any_dataOT_
FNDA:0,_ZNSt14_Function_base13_Base_managerIZ18testBasicInProcessvEUlRKNSt7__cxx1112basic_stringIcSt11char_traitsIcESaIcEEES8_PKhmE1_E15_M_init_functorIRSB_EEvRSt9_Any_dataOT_
FN:211,_ZNSt14_Function_base13_Base_managerIZ18testBasicInProcessvEUlRKNSt7__cxx1112basic_stringIcSt11char_traitsIcESaIcEEES8_PKhmE_E15_M_init_functorIRKSB_EEvRSt9_Any_dataOT_
FNDA:0,_ZNSt14_Function_base13_Base_managerIZ18testBasicInProcessvEUlRKNSt7__cxx1112basic_stringIcSt11char_traitsIcESaIcEEES8_PKhmE_E15_M_init_functorIRKSB_EEvRSt9_Any_dataOT_
FN:211,_ZNSt14_Function_base13_Base_managerIZ18testBasicInProcessvEUlRKNSt7__cxx1112basic_stringIcSt11char_traitsIcESaIcEEES8_PKhmE0_E15_M_init_functorIRSB_EEvRSt9_Any_dataOT_
FNDA:0,_ZNSt14_Function_base13_Base_managerIZ18testBasicInProcessvEUlRKNSt7__cxx1112basic_stringIcSt11char_traitsIcESaIcEEES8_PKhmE0_E15_M_init_functorIRSB_EEvRSt9_Any_dataOT_
FN:211,_ZNSt14_Function_base13_Base_managerIZ18testBasicInProcessvEUlRKNSt7__cxx1112basic_stringIcSt11char_traitsIcESaIcEEES8_PKhmE_E15_M_init_functorIRSB_EEvRSt9_Any_dataOT_
FNDA:0,_ZNSt14_Function_base13_Base_managerIZ18testBasicInProcessvEUlRKNSt7__cxx1112basic_stringIcSt11char_traitsIcESaIcEEES8_PKhmE_E15_M_init_functorIRSB_EEvRSt9_Any_dataOT_
FN:211,_ZNSt14_Function_base13_Base_managerIZ19testStressInProcessvEUlRKNSt7__cxx1112basic_stringIcSt11char_traitsIcESaIcEEES8_PKhmE_E15_M_init_functorIRSB_EEvRSt9_Any_dataOT_
FNDA:0,_ZNSt14_Function_base13_Base_managerIZ19testStressInProcessvEUlRKNSt7__cxx1112basic_stringIcSt11char_traitsIcESaIcEEES8_PKhmE_E15_M_init_functorIRSB_EEvRSt9_Any_dataOT_
FN:211,_ZNSt14_Function_base13_Base_managerIZ19testStressInProcessvEUlRKNSt7__cxx1112basic_stringIcSt11char_traitsIcESaIcEEES8_PKhmE0_E15_M_init_functorIRSB_EEvRSt9_Any_dataOT_
FNDA:0,_ZNSt14_Function_base13_Base_managerIZ19testStressInProcessvEUlRKNSt7__cxx1112basic_stringIcSt11char_traitsIcESaIcEEES8_PKhmE0_E15_M_init_functorIRSB_EEvRSt9_Any_dataOT_
FN:211,_ZNSt14_Function_base13_Base_managerIZ19testStressInProcessvEUlRKNSt7__cxx1112basic_stringIcSt11char_traitsIcESaIcEEES8_PKhmE0_E15_M_init_functorIRKSB_EEvRSt9_Any_dataOT_
FNDA:0,_ZNSt14_Function_base13_Base_managerIZ19testStressInProcessvEUlRKNSt7__cxx1112basic_stringIcSt11char_traitsIcESaIcEEES8_PKhmE0_E15_M_init_functorIRKSB_EEvRSt9_Any_dataOT_
FN:211,_ZNSt14_Function_base13_Base_managerIZ18testBasicInProcessvEUlRKNSt7__cxx1112basic_stringIcSt11char_traitsIcESaIcEEES8_PKhmE0_E15_M_init_functorIRKSB_EEvRSt9_Any_dataOT_
FNDA:0,_ZNSt14_Function_base13_Base_managerIZ18testBasicInProcessvEUlRKNSt7__cxx1112basic_stringIcSt11char_traitsIcESaIcEEES8_PKhmE0_E15_M_init_functorIRKSB_EEvRSt9_Any_dataOT_
FN:211,_ZNSt14_Function_base13_Base_managerIZ18testBasicInProcessvEUlRKNSt7__cxx1112basic_stringIcSt11char_traitsIcESaIcEEES8_PKhmE1_E15_M_init_functorIRKSB_EEvRSt9_Any_dataOT_
FNDA:0,_ZNSt14_Function_base13_Base_managerIZ18testBasicInProcessvEUlRKNSt7__cxx1112basic_stringIcSt11char_traitsIcESaIcEEES8_PKhmE1_E15_M_init_functorIRKSB_EEvRSt9_Any_dataOT_
FN:211,_ZNSt14_Function_base13_Base_managerIZ19testStressInProcessvEUlRKNSt7__cxx1112basic_stringIcSt11char_traitsIcESaIcEEES8_PKhmE_E15_M_init_functorIRKSB_EEvRSt9_Any_dataOT_
FNDA:0,_ZNSt14_Function_base13_Base_managerIZ19testStressInProcessvEUlRKNSt7__cxx1112basic_stringIcSt11char_traitsIcESaIcEEES8_PKhmE_E15_M_init_functorIRKSB_EEvRSt9_Any_dataOT_
FN:211,_ZNSt14_Function_base13_Base_managerIZ19testStressInProcessvEUlRKNSt7__cxx1112basic_stringIcSt11char_traitsIcESaIcEEES8_PKhmE1_E15_M_init_functorIRSB_EEvRSt9_Any_dataOT_
FNDA:0,_ZNSt14_Function_base13_Base_managerIZ19testStressInProcessvEUlRKNSt7__cxx1112basic_stringIcSt11char_traitsIcESaIcEEES8_PKhmE1_E15_M_init_functorIRSB_EEvRSt9_Any_dataOT_
FN:211,_ZNSt14_Function_base13_Base_managerIZ19testStressInProcessvEUlRKNSt7__cxx1112basic_stringIcSt11char_traitsIcESaIcEEES8_PKhmE1_E15_M_init_functorIRKSB_EEvRSt9_Any_dataOT_
FNDA:0,_ZNSt14_Function_base13_Base_managerIZ19testStressInProcessvEUlRKNSt7__cxx1112basic_stringIcSt11char_traitsIcESaIcEEES8_PKhmE1_E15_M_init_functorIRKSB_EEvRSt9_Any_dataOT_
FN:235,_ZNSt14_Function_base13_Base_managerIZ19testStressInProcessvEUlRKNSt7__cxx1112basic_stringIcSt11char_traitsIcESaIcEEES8_PKhmE1_E21_M_not_empty_functionISB_EEbRKT_
FNDA:0,_ZNSt14_Function_base13_Base_managerIZ19testStressInProcessvEUlRKNSt7__cxx1112basic_stringIcSt11char_traitsIcESaIcEEES8_PKhmE1_E21_M_not_empty_functionISB_EEbRKT_
FN:235,_ZNSt14_Function_base13_Base_managerIZ19testStressInProcessvEUlRKNSt7__cxx1112basic_stringIcSt11char_traitsIcESaIcEEES8_PKhmE_E21_M_not_empty_functionISB_EEbRKT_
FNDA:0,_ZNSt14_Function_base13_Base_managerIZ19testStressInProcessvEUlRKNSt7__cxx1112basic_stringIcSt11char_traitsIcESaIcEEES8_PKhmE_E21_M_not_empty_functionISB_EEbRKT_
FN:235,_ZNSt14_Function_base13_Base_managerIZ19testStressInProcessvEUlRKNSt7__cxx1112basic_stringIcSt11char_traitsIcESaIcEEES8_PKhmE0_E21_M_not_empty_functionISB_EEbRKT_
FNDA:0,_ZNSt14_Function_base13_Base_managerIZ19testStressInProcessvEUlRKNSt7__cxx1112basic_stringIcSt11char_traitsIcESaIcEEES8_PKhmE0_E21_M_not_empty_functionISB_EEbRKT_
FN:235,_ZNSt14_Function_base13_Base_managerIZ18testBasicInProcessvEUlRKNSt7__cxx1112basic_stringIcSt11char_traitsIcESaIcEEES8_PKhmE1_E21_M_not_empty_functionISB_EEbRKT_
FNDA:0,_ZNSt14_Function_base13_Base_managerIZ18testBasicInProcessvEUlRKNSt7__cxx1112basic_stringIcSt11char_traitsIcESaIcEEES8_PKhmE1_E21_M_not_empty_functionISB_EEbRKT_
FN:235,_ZNSt14_Function_base13_Base_managerIZ18testBasicInProcessvEUlRKNSt7__cxx1112basic_stringIcSt11char_traitsIcESaIcEEES8_PKhmE0_E21_M_not_empty_functionISB_EEbRKT_
FNDA:0,_ZNSt14_Function_base13_Base_managerIZ18testBasicInProcessvEUlRKNSt7__cxx1112basic_stringIcSt11char_traitsIcESaIcEEES8_PKhmE0_E21_M_not_empty_functionISB_EEbRKT_
FN:235,_ZNSt14_Function_base13_Base_managerIZ18testBasicInProcessvEUlRKNSt7__cxx1112basic_stringIcSt11char_traitsIcESaIcEEES8_PKhmE_E21_M_not_empty_functionISB_EEbRKT_
FNDA:0,_ZNSt14_Function_base13_Base_managerIZ18testBasicInProcessvEUlRKNSt7__cxx1112basic_stringIcSt11char_traitsIcESaIcEEES8_PKhmE_E21_M_not_empty_functionISB_EEbRKT_
FN:239,_ZNSt14_Function_baseC2Ev
FNDA:0,_ZNSt14_Function_baseC2Ev
FN:241,_ZNSt14_Function_baseD2Ev
FNDA:0,_ZNSt14_Function_baseD2Ev
FN:267,_ZNSt17_Function_handlerIFvRKNSt7__cxx1112basic_stringIcSt11char_traitsIcESaIcEEES7_PKhmEZ19testStressInProcessvEUlS7_S7_S9_mE1_E10_M_managerERSt9_Any_dataRKSD_St18_Manager_operation
FNDA:0,_ZNSt17_Function_handlerIFvRKNSt7__cxx1112basic_stringIcSt11char_traitsIcESaIcEEES7_PKhmEZ19testStressInProcessvEUlS7_S7_S9_mE1_E10_M_managerERSt9_Any_dataRKSD_St18_Manager_operation
FN:267,_ZNSt17_Function_handlerIFvRKNSt7__cxx1112basic_stringIcSt11char_traitsIcESaIcEEES7_PKhmEZ18testBasicInProcessvEUlS7_S7_S9_mE1_E10_M_managerERSt9_Any_dataRKSD_St18_Manager_operation
FNDA:0,_ZNSt17_Function_handlerIFvRKNSt7__cxx1112basic_stringIcSt11char_traitsIcESaIcEEES7_PKhmEZ18testBasicInProcessvEUlS7_S7_S9_mE1_E10_M_managerERSt9_Any_dataRKSD_St18_Manager_operation
FN:267,_ZNSt17_Function_handlerIFvRKNSt7__cxx1112basic_stringIcSt11char_traitsIcESaIcEEES7_PKhmEZ19testStressInProcessvEUlS7_S7_S9_mE0_E10_M_managerERSt9_Any_dataRKSD_St18_Manager_operation
FNDA:0,_ZNSt17_Function_handlerIFvRKNSt7__cxx1112basic_stringIcSt11char_traitsIcESaIcEEES7_PKhmEZ19testStressInProcessvEUlS7_S7_S9_mE0_E10_M_managerERSt9_Any_dataRKSD_St18_Manager_operation
FN:267,_ZNSt17_Function_handlerIFvRKNSt7__cxx1112basic_stringIcSt11char_traitsIcESaIcEEES7_PKhmEZ18testBasicInProcessvEUlS7_S7_S9_mE0_E10_M_managerERSt9_Any_dataRKSD_St18_Manager_operation
FNDA:0,_ZNSt17_Function_handlerIFvRKNSt7__cxx1112basic_stringIcSt11char_traitsIcESaIcEEES7_PKhmEZ18testBasicInProcessvEUlS7_S7_S9_mE0_E10_M_managerERSt9_Any_dataRKSD_St18_Manager_operation
FN:267,_ZNSt17_Function_handlerIFvRKNSt7__cxx1112basic_stringIcSt11char_traitsIcESaIcEEES7_PKhmEZ18testBasicInProcessvEUlS7_S7_S9_mE_E10_M_managerERSt9_Any_dataRKSD_St18_Manager_operation
FNDA:0,_ZNSt17_Function_handlerIFvRKNSt7__cxx1112basic_stringIcSt11char_traitsIcESaIcEEES7_PKhmEZ18testBasicInProcessvEUlS7_S7_S9_mE_E10_M_managerERSt9_Any_dataRKSD_St18_Manager_operation
FN:267,_ZNSt17_Function_handlerIFvRKNSt7__cxx1112basic_stringIcSt11char_traitsIcESaIcEEES7_PKhmEZ19testStressInProcessvEUlS7_S7_S9_mE_E10_M_managerERSt9_Any_dataRKSD_St18_Manager_operation
FNDA:0,_ZNSt17_Function_handlerIFvRKNSt7__cxx1112basic_stringIcSt11char_traitsIcESaIcEEES7_PKhmEZ19testStressInProcessvEUlS7_S7_S9_mE_E10_M_managerERSt9_Any_dataRKSD_St18_Manager_operation
FN:288,_ZNSt17_Function_handlerIFvRKNSt7__cxx1112basic_stringIcSt11char_traitsIcESaIcEEES7_PKhmEZ18testBasicInProcessvEUlS7_S7_S9_mE_E9_M_invokeERKSt9_Any_dataS7_S7_OS9_Om
FNDA:0,_ZNSt17_Function_handlerIFvRKNSt7__cxx1112basic_stringIcSt11char_traitsIcESaIcEEES7_PKhmEZ18testBasicInProcessvEUlS7_S7_S9_mE_E9_M_invokeERKSt9_Any_dataS7_S7_OS9_Om
FN:288,_ZNSt17_Function_handlerIFvRKNSt7__cxx1112basic_stringIcSt11char_traitsIcESaIcEEES7_PKhmEZ19testStressInProcessvEUlS7_S7_S9_mE0_E9_M_invokeERKSt9_Any_dataS7_S7_OS9_Om
FNDA:0,_ZNSt17_Function_handlerIFvRKNSt7__cxx1112basic_stringIcSt11char_traitsIcESaIcEEES7_PKhmEZ19testStressInProcessvEUlS7_S7_S9_mE0_E9_M_invokeERKSt9_Any_dataS7_S7_OS9_Om
FN:288,_ZNSt17_Function_handlerIFvRKNSt7__cxx1112basic_stringIcSt11char_traitsIcESaIcEEES7_PKhmEZ19testStressInProcessvEUlS7_S7_S9_mE1_E9_M_invokeERKSt9_Any_dataS7_S7_OS9_Om
FNDA:0,_ZNSt17_Function_handlerIFvRKNSt7__cxx1112basic_stringIcSt11char_traitsIcESaIcEEES7_PKhmEZ19testStressInProcessvEUlS7_S7_S9_mE1_E9_M_invokeERKSt9_Any_dataS7_S7_OS9_Om
FN:288,_ZNSt17_Function_handlerIFvRKNSt7__cxx1112basic_stringIcSt11char_traitsIcESaIcEEES7_PKhmEZ18testBasicInProcessvEUlS7_S7_S9_mE0_E9_M_invokeERKSt9_Any_dataS7_S7_OS9_Om
FNDA:0,_ZNSt17_Function_handlerIFvRKNSt7__cxx1112basic_stringIcSt11char_traitsIcESaIcEEES7_PKhmEZ18testBasicInProcessvEUlS7_S7_S9_mE0_E9_M_invokeERKSt9_Any_dataS7_S7_OS9_Om
FN:288,_ZNSt17_Function_handlerIFvRKNSt7__cxx1112basic_stringIcSt11char_traitsIcESaIcEEES7_PKhmEZ18testBasicInProcessvEUlS7_S7_S9_mE1_E9_M_invokeERKSt9_Any_dataS7_S7_OS9_Om
FNDA:0,_ZNSt17_Function_handlerIFvRKNSt7__cxx1112basic_stringIcSt11char_traitsIcESaIcEEES7_PKhmEZ18testBasicInProcessvEUlS7_S7_S9_mE1_E9_M_invokeERKSt9_Any_dataS7_S7_OS9_Om
FN:288,_ZNSt17_Function_handlerIFvRKNSt7__cxx1112basic_stringIcSt11char_traitsIcESaIcEEES7_PKhmEZ19testStressInProcessvEUlS7_S7_S9_mE_E9_M_invokeERKSt9_Any_dataS7_S7_OS9_Om
FNDA:0,_ZNSt17_Function_handlerIFvRKNSt7__cxx1112basic_stringIcSt11char_traitsIcESaIcEEES7_PKhmEZ19testStressInProcessvEUlS7_S7_S9_mE_E9_M_invokeERKSt9_Any_dataS7_S7_OS9_Om
FN:435,_ZNSt8functionIFvRKNSt7__cxx1112basic_stringIcSt11char_traitsIcESaIcEEES7_PKhmEEC2IRZ19testStressInProcessvEUlS7_S7_S9_mE1_vEEOT_
FNDA:0,_ZNSt8functionIFvRKNSt7__cxx1112basic_stringIcSt11char_traitsIcESaIcEEES7_PKhmEEC2IRZ19testStressInProcessvEUlS7_S7_S9_mE1_vEEOT_
FN:435,_ZNSt8functionIFvRKNSt7__cxx1112basic_stringIcSt11char_traitsIcESaIcEEES7_PKhmEEC2IRZ19testStressInProcessvEUlS7_S7_S9_mE0_vEEOT_
FNDA:0,_ZNSt8functionIFvRKNSt7__cxx1112basic_stringIcSt11char_traitsIcESaIcEEES7_PKhmEEC2IRZ19testStressInProcessvEUlS7_S7_S9_mE0_vEEOT_
FN:435,_ZNSt8functionIFvRKNSt7__cxx1112basic_stringIcSt11char_traitsIcESaIcEEES7_PKhmEEC2IRZ19testStressInProcessvEUlS7_S7_S9_mE_vEEOT_
FNDA:0,_ZNSt8functionIFvRKNSt7__cxx1112basic_stringIcSt11char_traitsIcESaIcEEES7_PKhmEEC2IRZ19testStressInProcessvEUlS7_S7_S9_mE_vEEOT_
FN:435,_ZNSt8functionIFvRKNSt7__cxx1112basic_stringIcSt11char_traitsIcESaIcEEES7_PKhmEEC2IRZ18testBasicInProcessvEUlS7_S7_S9_mE1_vEEOT_
FNDA:0,_ZNSt8functionIFvRKNSt7__cxx1112basic_stringIcSt11char_traitsIcESaIcEEES7_PKhmEEC2IRZ18testBasicInProcessvEUlS7_S7_S9_mE1_vEEOT_
FN:435,_ZNSt8functionIFvRKNSt7__cxx1112basic_stringIcSt11char_traitsIcESaIcEEES7_PKhmEEC2IRZ18testBasicInProcessvEUlS7_S7_S9_mE0_vEEOT_
FNDA:0,_ZNSt8functionIFvRKNSt7__cxx1112basic_stringIcSt11char_traitsIcESaIcEEES7_PKhmEEC2IRZ18testBasicInProcessvEUlS7_S7_S9_mE0_vEEOT_
FN:435,_ZNSt8functionIFvRKNSt7__cxx1112basic_stringIcSt11char_traitsIcESaIcEEES7_PKhmEEC2IRZ18testBasicInProcessvEUlS7_S7_S9_mE_vEEOT_
FNDA:0,_ZNSt8functionIFvRKNSt7__cxx1112basic_stringIcSt11char_traitsIcESaIcEEES7_PKhmEEC2IRZ18testBasicInProcessvEUlS7_S7_S9_mE_vEEOT_
DA:85,0
DA:86,0
DA:90,0
DA:91,0
DA:90,0
DA:91,0
DA:90,0
DA:91,0
DA:90,0
DA:91,0
DA:90,0
DA:91,0
DA:90,0
DA:91,0
DA:90,0
DA:91,0
DA:90,0
DA:91,0
DA:90,0
DA:91,0
DA:90,0
DA:91,0
DA:90,0
DA:91,0
DA:90,0
DA:91,0
DA:90,0
DA:91,0
DA:95,0
DA:96,0
DA:95,0
DA:96,0
DA:95,0
DA:96,0
DA:95,0
DA:96,0
DA:95,0
DA:96,0
DA:95,0
DA:96,0
DA:134,0
DA:138,0
DA:139,0
DA:134,0
DA:138,0
DA:139,0
DA:134,0
DA:138,0
DA:139,0
DA:134,0
DA:138,0
DA:139,0
DA:134,0
DA:138,0
DA:139,0
DA:134,0
DA:138,0
DA:139,0
DA:150,0
DA:152,0
DA:153,0
DA:150,0
DA:152,0
DA:153,0
DA:150,0
DA:152,0
DA:153,0
DA:150,0
DA:152,0
DA:153,0
DA:150,0
DA:152,0
DA:153,0
DA:150,0
DA:152,0
DA:153,0
DA:150,0
DA:152,0
DA:153,0
DA:150,0
DA:152,0
DA:153,0
DA:150,0
DA:152,0
DA:153,0
DA:150,0
DA:152,0
DA:153,0
DA:150,0
DA:152,0
DA:153,0
DA:150,0
DA:152,0
DA:153,0
DA:166,0
DA:168,0
DA:169,0
DA:166,0
DA:168,0
DA:169,0
DA:166,0
DA:168,0
DA:169,0
DA:166,0
DA:168,0
DA:169,0
DA:166,0
DA:168,0
DA:169,0
DA:166,0
DA:168,0
DA:169,0
DA:180,0
DA:183,0
DA:185,0
DA:187,0
DA:191,0
DA:193,0
DA:194,0
DA:195,0
DA:197,0
DA:198,0
DA:199,0
DA:200,0
DA:202,0
DA:203,0
DA:204,0
DA:206,0
DA:180,0
DA:183,0
DA:185,0
DA:187,0
DA:191,0
DA:193,0
DA:194,0
DA:195,0
DA:197,0
DA:198,0
DA:199,0
DA:200,0
DA:202,0
DA:203,0
DA:204,0
DA:206,0
DA:180,0
DA:183,0
DA:185,0
DA:187,0
DA:191,0
DA:193,0
DA:194,0
DA:195,0
DA:197,0
DA:198,0
DA:199,0
DA:200,0
DA:202,0
DA:203,0
DA:204,0
DA:206,0
DA:180,0
DA:183,0
DA:185,0
DA:187,0
DA:191,0
DA:193,0
DA:194,0
DA:195,0
DA:197,0
DA:198,0
DA:199,0
DA:200,0
DA:202,0
DA:203,0
DA:204,0
DA:206,0
DA:180,0
DA:183,0
DA:185,0
DA:187,0
DA:191,0
DA:193,0
DA:194,0
DA:195,0
DA:197,0
DA:198,0
DA:199,0
DA:200,0
DA:202,0
DA:203,0
DA:204,0
DA:206,0
DA:180,0
DA:183,0
DA:185,0
DA:187,0
DA:191,0
DA:193,0
DA:194,0
DA:195,0
DA:197,0
DA:198,0
DA:199,0
DA:200,0
DA:202,0
DA:203,0
DA:204,0
DA:206,0
DA:211,0
DA:215,0
DA:216,0
DA:211,0
DA:215,0
DA:216,0
DA:211,0
DA:215,0
DA:216,0
DA:211,0
DA:215,0
DA:216,0
DA:211,0
DA:215,0
DA:216,0
DA:211,0
DA:215,0
DA:216,0
DA:211,0
DA:215,0
DA:216,0
DA:211,0
DA:215,0
DA:216,0
DA:211,0
DA:215,0
DA:216,0
DA:211,0
DA:215,0
DA:216,0
DA:211,0
DA:215,0
DA:216,0
DA:211,0
DA:215,0
DA:216,0
DA:235,0
DA:236,0
DA:235,0
DA:236,0
DA:235,0
DA:236,0
DA:235,0
DA:236,0
DA:235,0
DA:236,0
DA:235,0
DA:236,0
DA:239,0
DA:241,0
DA:243,0
DA:244,0
DA:245,0
DA:267,0
DA:270,0
DA:273,0
DA:274,0
DA:275,0
DA:277,0
DA:278,0
DA:279,0
DA:281,0
DA:282,0
DA:284,0
DA:267,0
DA:270,0
DA:273,0
DA:274,0
DA:275,0
DA:277,0
DA:278,0
DA:279,0
DA:281,0
DA:282,0
DA:284,0
DA:267,0
DA:270,0
DA:273,0
DA:274,0
DA:275,0
DA:277,0
DA:278,0
DA:279,0
DA:281,0
DA:282,0
DA:284,0
DA:267,0
DA:270,0
DA:273,0
DA:274,0
DA:275,0
DA:277,0
DA:278,0
DA:279,0
DA:281,0
DA:282,0
DA:284,0
DA:267,0
DA:270,0
DA:273,0
DA:274,0
DA:275,0
DA:277,0
DA:278,0
DA:279,0
DA:281,0
DA:282,0
DA:284,0
DA:267,0
DA:270,0
DA:273,0
DA:274,0
DA:275,0
DA:277,0
DA:278,0
DA:279,0
DA:281,0
DA:282,0
DA:284,0
DA:288,0
DA:290,0
DA:291,0
DA:288,0
DA:290,0
DA:291,0
DA:288,0
DA:290,0
DA:291,0
DA:288,0
DA:290,0
DA:291,0
DA:288,0
DA:290,0
DA:291,0
DA:288,0
DA:290,0
DA:291,0
DA:435,0
DA:437,0
DA:447,0
DA:449,0
DA:451,0
DA:452,0
DA:454,0
DA:435,0
DA:437,0
DA:447,0
DA:449,0
DA:451,0
DA:452,0
DA:454,0
DA:435,0
DA:437,0
DA:447,0
DA:449,0
DA:451,0
DA:452,0
DA:454,0
DA:435,0
DA:437,0
DA:447,0
DA:449,0
DA:451,0
DA:452,0
DA:454,0
DA:435,0
DA:437,0
DA:447,0
DA:449,0
DA:451,0
DA:452,0
DA:454,0
DA:435,0
DA:437,0
DA:447,0
DA:449,0
DA:451,0
DA:452,0
DA:454,0
end_of_record
SF:/usr/include/c++/11/bits/stl_iterator_base_types.h
FN:238,_ZSt19__iterator_categoryIPcENSt15iterator_traitsIT_E17iterator_categoryERKS2_
FNDA:0,_ZSt19__iterator_categoryIPcENSt15iterator_traitsIT_E17iterator_categoryERKS2_
FN:238,_ZSt19__iterator_categoryIPKNSt7__cxx1112basic_stringIcSt11char_traitsIcESaIcEEEENSt15iterator_traitsIT_E17iterator_categoryERKS9_
FNDA:0,_ZSt19__iterator_categoryIPKNSt7__cxx1112basic_stringIcSt11char_traitsIcESaIcEEEENSt15iterator_traitsIT_E17iterator_categoryERKS9_
FN:238,_ZSt19__iterator_categoryIPKcENSt15iterator_traitsIT_E17iterator_categoryERKS3_
FNDA:0,_ZSt19__iterator_categoryIPKcENSt15iterator_traitsIT_E17iterator_categoryERKS3_
DA:238,0
DA:239,0
DA:238,0
DA:239,0
DA:238,0
DA:239,0
end_of_record
SF:/home/fz296w/workspace/Nexus/Nexus/tests/integration/test_inprocess.cpp
FN:17,_Z18testBasicInProcessv
FNDA:0,_Z18testBasicInProcessv
FN:36,_ZZ18testBasicInProcessvENKUlRKNSt7__cxx1112basic_stringIcSt11char_traitsIcESaIcEEES6_PKhmE_clES6_S6_S8_m
FNDA:0,_ZZ18testBasicInProcessvENKUlRKNSt7__cxx1112basic_stringIcSt11char_traitsIcESaIcEEES6_PKhmE_clES6_S6_S8_m
FN:40,_ZZ18testBasicInProcessvENKUlRKNSt7__cxx1112basic_stringIcSt11char_traitsIcESaIcEEES6_PKhmE0_clES6_S6_S8_m
FNDA:0,_ZZ18testBasicInProcessvENKUlRKNSt7__cxx1112basic_stringIcSt11char_traitsIcESaIcEEES6_PKhmE0_clES6_S6_S8_m
FN:44,_ZZ18testBasicInProcessvENKUlRKNSt7__cxx1112basic_stringIcSt11char_traitsIcESaIcEEES6_PKhmE1_clES6_S6_S8_m
FNDA:0,_ZZ18testBasicInProcessvENKUlRKNSt7__cxx1112basic_stringIcSt11char_traitsIcESaIcEEES6_PKhmE1_clES6_S6_S8_m
FN:104,_Z19testStressInProcessv
FNDA:0,_Z19testStressInProcessv
FN:117,_ZZ19testStressInProcessvENKUlRKNSt7__cxx1112basic_stringIcSt11char_traitsIcESaIcEEES6_PKhmE_clES6_S6_S8_m
FNDA:0,_ZZ19testStressInProcessvENKUlRKNSt7__cxx1112basic_stringIcSt11char_traitsIcESaIcEEES6_PKhmE_clES6_S6_S8_m
FN:120,_ZZ19testStressInProcessvENKUlRKNSt7__cxx1112basic_stringIcSt11char_traitsIcESaIcEEES6_PKhmE0_clES6_S6_S8_m
FNDA:0,_ZZ19testStressInProcessvENKUlRKNSt7__cxx1112basic_stringIcSt11char_traitsIcESaIcEEES6_PKhmE0_clES6_S6_S8_m
FN:123,_ZZ19testStressInProcessvENKUlRKNSt7__cxx1112basic_stringIcSt11char_traitsIcESaIcEEES6_PKhmE1_clES6_S6_S8_m
FNDA:0,_ZZ19testStressInProcessvENKUlRKNSt7__cxx1112basic_stringIcSt11char_traitsIcESaIcEEES6_PKhmE1_clES6_S6_S8_m
FN:167,main
FNDA:1,main
DA:17,0
DA:18,0
DA:19,0
DA:20,0
DA:23,0
DA:24,0
DA:25,0
DA:27,0
DA:28,0
DA:29,0
DA:30,0
DA:32,0
DA:35,0
DA:36,0
DA:38,0
DA:39,0
DA:40,0
DA:42,0
DA:43,0
DA:44,0
DA:46,0
DA:47,0
DA:49,0
DA:50,0
DA:51,0
DA:52,0
DA:55,0
DA:56,0
DA:57,0
DA:60,0
DA:63,0
DA:64,0
DA:65,0
DA:66,0
DA:67,0
DA:68,0
DA:70,0
DA:74,0
DA:75,0
DA:76,0
DA:77,0
DA:78,0
DA:79,0
DA:80,0
DA:81,0
DA:82,0
DA:84,0
DA:88,0
DA:89,0
DA:90,0
DA:91,0
DA:92,0
DA:93,0
DA:94,0
DA:95,0
DA:96,0
DA:98,0
DA:101,0
DA:102,0
DA:104,0
DA:105,0
DA:106,0
DA:107,0
DA:109,0
DA:110,0
DA:111,0
DA:113,0
DA:114,0
DA:115,0
DA:117,0
DA:118,0
DA:119,0
DA:120,0
DA:121,0
DA:122,0
DA:123,0
DA:124,0
DA:125,0
DA:127,0
DA:128,0
DA:129,0
DA:131,0
DA:132,0
DA:134,0
DA:136,0
DA:137,0
DA:138,0
DA:139,0
DA:141,0
DA:142,0
DA:145,0
DA:147,0
DA:148,0
DA:149,0
DA:150,0
DA:151,0
DA:152,0
DA:153,0
DA:154,0
DA:156,0
DA:157,0
DA:158,0
DA:159,0
DA:160,0
DA:161,0
DA:163,0
DA:165,0
DA:167,1
DA:168,1
DA:169,1
DA:170,1
DA:173,1
DA:174,0
DA:177,1
DA:178,0
DA:181,1
DA:182,1
end_of_record
SF:/usr/include/c++/11/bits/shared_ptr_base.h
FN:161,_ZNSt16_Sp_counted_baseILN9__gnu_cxx12_Lock_policyE2EE10_M_releaseEv
FNDA:0,_ZNSt16_Sp_counted_baseILN9__gnu_cxx12_Lock_policyE2EE10_M_releaseEv
FN:702,_ZNSt14__shared_countILN9__gnu_cxx12_Lock_policyE2EED2Ev
FNDA:0,_ZNSt14__shared_countILN9__gnu_cxx12_Lock_policyE2EED2Ev
FN:984,_ZNKSt19__shared_ptr_accessIN5Nexus3rpc4NodeELN9__gnu_cxx12_Lock_policyE2ELb0ELb0EEptEv
FNDA:0,_ZNKSt19__shared_ptr_accessIN5Nexus3rpc4NodeELN9__gnu_cxx12_Lock_policyE2ELb0ELb0EEptEv
FN:992,_ZNKSt19__shared_ptr_accessIN5Nexus3rpc4NodeELN9__gnu_cxx12_Lock_policyE2ELb0ELb0EE6_M_getEv
FNDA:0,_ZNKSt19__shared_ptr_accessIN5Nexus3rpc4NodeELN9__gnu_cxx12_Lock_policyE2ELb0ELb0EE6_M_getEv
FN:1154,_ZNSt12__shared_ptrIN5Nexus3rpc4NodeELN9__gnu_cxx12_Lock_policyE2EED2Ev
FNDA:0,_ZNSt12__shared_ptrIN5Nexus3rpc4NodeELN9__gnu_cxx12_Lock_policyE2EED2Ev
FN:1295,_ZNKSt12__shared_ptrIN5Nexus3rpc4NodeELN9__gnu_cxx12_Lock_policyE2EE3getEv
FNDA:0,_ZNKSt12__shared_ptrIN5Nexus3rpc4NodeELN9__gnu_cxx12_Lock_policyE2EE3getEv
FN:1299,_ZNKSt12__shared_ptrIN5Nexus3rpc4NodeELN9__gnu_cxx12_Lock_policyE2EEcvbEv
FNDA:0,_ZNKSt12__shared_ptrIN5Nexus3rpc4NodeELN9__gnu_cxx12_Lock_policyE2EEcvbEv
DA:161,0
DA:165,0
DA:168,0
DA:180,0
DA:181,0
DA:184,0
DA:187,0
DA:702,0
DA:704,0
DA:705,0
DA:706,0
DA:984,0
DA:987,0
DA:992,0
DA:993,0
DA:1154,0
DA:1295,0
DA:1296,0
DA:1299,0
DA:1300,0
end_of_record
SF:/usr/include/c++/11/bits/alloc_traits.h
FN:463,_ZNSt16allocator_traitsISaINSt7__cxx1112basic_stringIcSt11char_traitsIcESaIcEEEEE8allocateERS6_m
FNDA:0,_ZNSt16allocator_traitsISaINSt7__cxx1112basic_stringIcSt11char_traitsIcESaIcEEEEE8allocateERS6_m
FN:495,_ZNSt16allocator_traitsISaINSt7__cxx1112basic_stringIcSt11char_traitsIcESaIcEEEEE10deallocateERS6_PS5_m
FNDA:0,_ZNSt16allocator_traitsISaINSt7__cxx1112basic_stringIcSt11char_traitsIcESaIcEEEEE10deallocateERS6_PS5_m
FN:547,_ZNSt16allocator_traitsISaINSt7__cxx1112basic_stringIcSt11char_traitsIcESaIcEEEEE8max_sizeERKS6_
FNDA:0,_ZNSt16allocator_traitsISaINSt7__cxx1112basic_stringIcSt11char_traitsIcESaIcEEEEE8max_sizeERKS6_
FN:562,_ZNSt16allocator_traitsISaIcEE37select_on_container_copy_constructionERKS0_
FNDA:0,_ZNSt16allocator_traitsISaIcEE37select_on_container_copy_constructionERKS0_
FN:845,_ZSt8_DestroyIPNSt7__cxx1112basic_stringIcSt11char_traitsIcESaIcEEES5_EvT_S7_RSaIT0_E
FNDA:0,_ZSt8_DestroyIPNSt7__cxx1112basic_stringIcSt11char_traitsIcESaIcEEES5_EvT_S7_RSaIT0_E
DA:463,0
DA:464,0
DA:495,0
DA:496,0
DA:547,0
DA:550,0
DA:562,0
DA:563,0
DA:845,0
DA:848,0
DA:849,0
end_of_record
TN:
SF:/home/fz296w/workspace/Nexus/Nexus/include/nexus/core/Node.h
FN:49,_ZNK5Nexus3rpc17ServiceDescriptor13getCapabilityB5cxx11Ev
FNDA:4,_ZNK5Nexus3rpc17ServiceDescriptor13getCapabilityB5cxx11Ev
DA:49,4
DA:50,4
DA:51,0
DA:53,8
end_of_record
SF:/usr/include/c++/11/bits/alloc_traits.h
FN:463,_ZNSt16allocator_traitsISaINSt7__cxx1112basic_stringIcSt11char_traitsIcESaIcEEEEE8allocateERS6_m
FNDA:3,_ZNSt16allocator_traitsISaINSt7__cxx1112basic_stringIcSt11char_traitsIcESaIcEEEEE8allocateERS6_m
FN:495,_ZNSt16allocator_traitsISaINSt7__cxx1112basic_stringIcSt11char_traitsIcESaIcEEEEE10deallocateERS6_PS5_m
FNDA:3,_ZNSt16allocator_traitsISaINSt7__cxx1112basic_stringIcSt11char_traitsIcESaIcEEEEE10deallocateERS6_PS5_m
FN:495,_ZNSt16allocator_traitsISaIN5Nexus3rpc17ServiceDescriptorEEE10deallocateERS3_PS2_m
FNDA:5,_ZNSt16allocator_traitsISaIN5Nexus3rpc17ServiceDescriptorEEE10deallocateERS3_PS2_m
FN:547,_ZNSt16allocator_traitsISaINSt7__cxx1112basic_stringIcSt11char_traitsIcESaIcEEEEE8max_sizeERKS6_
FNDA:6,_ZNSt16allocator_traitsISaINSt7__cxx1112basic_stringIcSt11char_traitsIcESaIcEEEEE8max_sizeERKS6_
FN:562,_ZNSt16allocator_traitsISaIcEE37select_on_container_copy_constructionERKS0_
FNDA:0,_ZNSt16allocator_traitsISaIcEE37select_on_container_copy_constructionERKS0_
FN:845,_ZSt8_DestroyIPN5Nexus3rpc17ServiceDescriptorES2_EvT_S4_RSaIT0_E
FNDA:9,_ZSt8_DestroyIPN5Nexus3rpc17ServiceDescriptorES2_EvT_S4_RSaIT0_E
FN:845,_ZSt8_DestroyIPNSt7__cxx1112basic_stringIcSt11char_traitsIcESaIcEEES5_EvT_S7_RSaIT0_E
FNDA:4,_ZSt8_DestroyIPNSt7__cxx1112basic_stringIcSt11char_traitsIcESaIcEEES5_EvT_S7_RSaIT0_E
DA:463,3
DA:464,3
DA:495,3
DA:496,3
DA:495,5
DA:496,5
DA:547,6
DA:550,6
DA:562,0
DA:563,0
DA:845,9
DA:848,9
DA:849,9
DA:845,4
DA:848,4
DA:849,4
end_of_record
SF:/usr/include/c++/11/bits/shared_ptr_base.h
FN:161,_ZNSt16_Sp_counted_baseILN9__gnu_cxx12_Lock_policyE2EE10_M_releaseEv
FNDA:5,_ZNSt16_Sp_counted_baseILN9__gnu_cxx12_Lock_policyE2EE10_M_releaseEv
FN:702,_ZNSt14__shared_countILN9__gnu_cxx12_Lock_policyE2EED2Ev
FNDA:8,_ZNSt14__shared_countILN9__gnu_cxx12_Lock_policyE2EED2Ev
FN:984,_ZNKSt19__shared_ptr_accessIN5Nexus3rpc4NodeELN9__gnu_cxx12_Lock_policyE2ELb0ELb0EEptEv
FNDA:4,_ZNKSt19__shared_ptr_accessIN5Nexus3rpc4NodeELN9__gnu_cxx12_Lock_policyE2ELb0ELb0EEptEv
FN:992,_ZNKSt19__shared_ptr_accessIN5Nexus3rpc4NodeELN9__gnu_cxx12_Lock_policyE2ELb0ELb0EE6_M_getEv
FNDA:4,_ZNKSt19__shared_ptr_accessIN5Nexus3rpc4NodeELN9__gnu_cxx12_Lock_policyE2ELb0ELb0EE6_M_getEv
FN:1154,_ZNSt12__shared_ptrIN5Nexus3rpc4NodeELN9__gnu_cxx12_Lock_policyE2EED2Ev
FNDA:1,_ZNSt12__shared_ptrIN5Nexus3rpc4NodeELN9__gnu_cxx12_Lock_policyE2EED2Ev
FN:1295,_ZNKSt12__shared_ptrIN5Nexus3rpc4NodeELN9__gnu_cxx12_Lock_policyE2EE3getEv
FNDA:4,_ZNKSt12__shared_ptrIN5Nexus3rpc4NodeELN9__gnu_cxx12_Lock_policyE2EE3getEv
DA:161,5
DA:165,10
DA:168,1
DA:180,1
DA:181,1
DA:184,1
DA:187,5
DA:702,8
DA:704,8
DA:705,5
DA:706,8
DA:984,4
DA:987,4
DA:992,4
DA:993,4
DA:1154,1
DA:1295,4
DA:1296,4
end_of_record
SF:/usr/include/c++/11/ext/alloc_traits.h
FN:97,_ZN9__gnu_cxx14__alloc_traitsISaIcEcE17_S_select_on_copyERKS1_
FNDA:0,_ZN9__gnu_cxx14__alloc_traitsISaIcEcE17_S_select_on_copyERKS1_
DA:97,0
DA:98,0
end_of_record
SF:/usr/include/c++/11/bits/stl_iterator_base_funcs.h
FN:98,_ZSt10__distanceIPcENSt15iterator_traitsIT_E15difference_typeES2_S2_St26random_access_iterator_tag
FNDA:0,_ZSt10__distanceIPcENSt15iterator_traitsIT_E15difference_typeES2_S2_St26random_access_iterator_tag
FN:98,_ZSt10__distanceIPKNSt7__cxx1112basic_stringIcSt11char_traitsIcESaIcEEEENSt15iterator_traitsIT_E15difference_typeES9_S9_St26random_access_iterator_tag
FNDA:0,_ZSt10__distanceIPKNSt7__cxx1112basic_stringIcSt11char_traitsIcESaIcEEEENSt15iterator_traitsIT_E15difference_typeES9_S9_St26random_access_iterator_tag
FN:98,_ZSt10__distanceIPKcENSt15iterator_traitsIT_E15difference_typeES3_S3_St26random_access_iterator_tag
FNDA:0,_ZSt10__distanceIPKcENSt15iterator_traitsIT_E15difference_typeES3_S3_St26random_access_iterator_tag
FN:138,_ZSt8distanceIPcENSt15iterator_traitsIT_E15difference_typeES2_S2_
FNDA:0,_ZSt8distanceIPcENSt15iterator_traitsIT_E15difference_typeES2_S2_
FN:138,_ZSt8distanceIPKNSt7__cxx1112basic_stringIcSt11char_traitsIcESaIcEEEENSt15iterator_traitsIT_E15difference_typeES9_S9_
FNDA:0,_ZSt8distanceIPKNSt7__cxx1112basic_stringIcSt11char_traitsIcESaIcEEEENSt15iterator_traitsIT_E15difference_typeES9_S9_
FN:138,_ZSt8distanceIPKcENSt15iterator_traitsIT_E15difference_typeES3_S3_
FNDA:0,_ZSt8distanceIPKcENSt15iterator_traitsIT_E15difference_typeES3_S3_
DA:98,0
DA:104,0
DA:98,0
DA:104,0
DA:98,0
DA:104,0
DA:138,0
DA:141,0
DA:142,0
DA:138,0
DA:141,0
DA:142,0
DA:138,0
DA:141,0
DA:142,0
end_of_record
SF:/usr/include/c++/11/bits/std_function.h
FN:85,_ZNSt9_Any_data9_M_accessEv
FNDA:12,_ZNSt9_Any_data9_M_accessEv
FN:86,_ZNKSt9_Any_data9_M_accessEv
FNDA:6,_ZNKSt9_Any_data9_M_accessEv
FN:90,_ZNSt9_Any_data9_M_accessIPKSt9type_infoEERT_v
FNDA:0,_ZNSt9_Any_data9_M_accessIPKSt9type_infoEERT_v
FN:90,_ZNSt9_Any_data9_M_accessIZ4mainEUlRKNSt7__cxx1112basic_stringIcSt11char_traitsIcESaIcEEES8_PKhmE_EERT_v
FNDA:0,_ZNSt9_Any_data9_M_accessIZ4mainEUlRKNSt7__cxx1112basic_stringIcSt11char_traitsIcESaIcEEES8_PKhmE_EERT_v
FN:90,_ZNSt9_Any_data9_M_accessIPPFvN5Nexus3rpc12ServiceEventERKNS2_17ServiceDescriptorEEEERT_v
FNDA:0,_ZNSt9_Any_data9_M_accessIPPFvN5Nexus3rpc12ServiceEventERKNS2_17ServiceDescriptorEEEERT_v
FN:90,_ZNSt9_Any_data9_M_accessIPZ4mainEUlRKNSt7__cxx1112basic_stringIcSt11char_traitsIcESaIcEEES8_PKhmE_EERT_v
FNDA:0,_ZNSt9_Any_data9_M_accessIPZ4mainEUlRKNSt7__cxx1112basic_stringIcSt11char_traitsIcESaIcEEES8_PKhmE_EERT_v
FN:90,_ZNSt9_Any_data9_M_accessIPFvN5Nexus3rpc12ServiceEventERKNS2_17ServiceDescriptorEEEERT_v
FNDA:3,_ZNSt9_Any_data9_M_accessIPFvN5Nexus3rpc12ServiceEventERKNS2_17ServiceDescriptorEEEERT_v
FN:95,_ZNKSt9_Any_data9_M_accessIZ4mainEUlRKNSt7__cxx1112basic_stringIcSt11char_traitsIcESaIcEEES8_PKhmE_EERKT_v
FNDA:0,_ZNKSt9_Any_data9_M_accessIZ4mainEUlRKNSt7__cxx1112basic_stringIcSt11char_traitsIcESaIcEEES8_PKhmE_EERKT_v
FN:95,_ZNKSt9_Any_data9_M_accessIPFvN5Nexus3rpc12ServiceEventERKNS2_17ServiceDescriptorEEEERKT_v
FNDA:3,_ZNKSt9_Any_data9_M_accessIPFvN5Nexus3rpc12ServiceEventERKNS2_17ServiceDescriptorEEEERKT_v
FN:134,_ZNSt14_Function_base13_Base_managerIZ4mainEUlRKNSt7__cxx1112basic_stringIcSt11char_traitsIcESaIcEEES8_PKhmE_E14_M_get_pointerERKSt9_Any_data
FNDA:0,_ZNSt14_Function_base13_Base_managerIZ4mainEUlRKNSt7__cxx1112basic_stringIcSt11char_traitsIcESaIcEEES8_PKhmE_E14_M_get_pointerERKSt9_Any_data
FN:134,_ZNSt14_Function_base13_Base_managerIPFvN5Nexus3rpc12ServiceEventERKNS2_17ServiceDescriptorEEE14_M_get_pointerERKSt9_Any_data
FNDA:3,_ZNSt14_Function_base13_Base_managerIPFvN5Nexus3rpc12ServiceEventERKNS2_17ServiceDescriptorEEE14_M_get_pointerERKSt9_Any_data
FN:150,_ZNSt14_Function_base13_Base_managerIZ4mainEUlRKNSt7__cxx1112basic_stringIcSt11char_traitsIcESaIcEEES8_PKhmE_E9_M_createIRKSB_EEvRSt9_Any_dataOT_St17integral_constantIbLb1EE
FNDA:0,_ZNSt14_Function_base13_Base_managerIZ4mainEUlRKNSt7__cxx1112basic_stringIcSt11char_traitsIcESaIcEEES8_PKhmE_E9_M_createIRKSB_EEvRSt9_Any_dataOT_St17integral_constantIbLb1EE
FN:150,_ZNSt14_Function_base13_Base_managerIPFvN5Nexus3rpc12ServiceEventERKNS2_17ServiceDescriptorEEE9_M_createIRS7_EEvRSt9_Any_dataOT_St17integral_constantIbLb1EE
FNDA:1,_ZNSt14_Function_base13_Base_managerIPFvN5Nexus3rpc12ServiceEventERKNS2_17ServiceDescriptorEEE9_M_createIRS7_EEvRSt9_Any_dataOT_St17integral_constantIbLb1EE
FN:150,_ZNSt14_Function_base13_Base_managerIZ4mainEUlRKNSt7__cxx1112basic_stringIcSt11char_traitsIcESaIcEEES8_PKhmE_E9_M_createISB_EEvRSt9_Any_dataOT_St17integral_constantIbLb1EE
FNDA:0,_ZNSt14_Function_base13_Base_managerIZ4mainEUlRKNSt7__cxx1112basic_stringIcSt11char_traitsIcESaIcEEES8_PKhmE_E9_M_createISB_EEvRSt9_Any_dataOT_St17integral_constantIbLb1EE
FN:150,_ZNSt14_Function_base13_Base_managerIPFvN5Nexus3rpc12ServiceEventERKNS2_17ServiceDescriptorEEE9_M_createIRKS8_EEvRSt9_Any_dataOT_St17integral_constantIbLb1EE
FNDA:2,_ZNSt14_Function_base13_Base_managerIPFvN5Nexus3rpc12ServiceEventERKNS2_17ServiceDescriptorEEE9_M_createIRKS8_EEvRSt9_Any_dataOT_St17integral_constantIbLb1EE
FN:166,_ZNSt14_Function_base13_Base_managerIPFvN5Nexus3rpc12ServiceEventERKNS2_17ServiceDescriptorEEE10_M_destroyERSt9_Any_dataSt17integral_constantIbLb1EE
FNDA:3,_ZNSt14_Function_base13_Base_managerIPFvN5Nexus3rpc12ServiceEventERKNS2_17ServiceDescriptorEEE10_M_destroyERSt9_Any_dataSt17integral_constantIbLb1EE
FN:166,_ZNSt14_Function_base13_Base_managerIZ4mainEUlRKNSt7__cxx1112basic_stringIcSt11char_traitsIcESaIcEEES8_PKhmE_E10_M_destroyERSt9_Any_dataSt17integral_constantIbLb1EE
FNDA:0,_ZNSt14_Function_base13_Base_managerIZ4mainEUlRKNSt7__cxx1112basic_stringIcSt11char_traitsIcESaIcEEES8_PKhmE_E10_M_destroyERSt9_Any_dataSt17integral_constantIbLb1EE
FN:180,_ZNSt14_Function_base13_Base_managerIPFvN5Nexus3rpc12ServiceEventERKNS2_17ServiceDescriptorEEE10_M_managerERSt9_Any_dataRKSA_St18_Manager_operation
FNDA:5,_ZNSt14_Function_base13_Base_managerIPFvN5Nexus3rpc12ServiceEventERKNS2_17ServiceDescriptorEEE10_M_managerERSt9_Any_dataRKSA_St18_Manager_operation
FN:180,_ZNSt14_Function_base13_Base_managerIZ4mainEUlRKNSt7__cxx1112basic_stringIcSt11char_traitsIcESaIcEEES8_PKhmE_E10_M_managerERSt9_Any_dataRKSD_St18_Manager_operation
FNDA:0,_ZNSt14_Function_base13_Base_managerIZ4mainEUlRKNSt7__cxx1112basic_stringIcSt11char_traitsIcESaIcEEES8_PKhmE_E10_M_managerERSt9_Any_dataRKSD_St18_Manager_operation
FN:211,_ZNSt14_Function_base13_Base_managerIPFvN5Nexus3rpc12ServiceEventERKNS2_17ServiceDescriptorEEE15_M_init_functorIRKS8_EEvRSt9_Any_dataOT_
FNDA:2,_ZNSt14_Function_base13_Base_managerIPFvN5Nexus3rpc12ServiceEventERKNS2_17ServiceDescriptorEEE15_M_init_functorIRKS8_EEvRSt9_Any_dataOT_
FN:211,_ZNSt14_Function_base13_Base_managerIPFvN5Nexus3rpc12ServiceEventERKNS2_17ServiceDescriptorEEE15_M_init_functorIRS7_EEvRSt9_Any_dataOT_
FNDA:1,_ZNSt14_Function_base13_Base_managerIPFvN5Nexus3rpc12ServiceEventERKNS2_17ServiceDescriptorEEE15_M_init_functorIRS7_EEvRSt9_Any_dataOT_
FN:211,_ZNSt14_Function_base13_Base_managerIZ4mainEUlRKNSt7__cxx1112basic_stringIcSt11char_traitsIcESaIcEEES8_PKhmE_E15_M_init_functorISB_EEvRSt9_Any_dataOT_
FNDA:0,_ZNSt14_Function_base13_Base_managerIZ4mainEUlRKNSt7__cxx1112basic_stringIcSt11char_traitsIcESaIcEEES8_PKhmE_E15_M_init_functorISB_EEvRSt9_Any_dataOT_
FN:211,_ZNSt14_Function_base13_Base_managerIZ4mainEUlRKNSt7__cxx1112basic_stringIcSt11char_traitsIcESaIcEEES8_PKhmE_E15_M_init_functorIRKSB_EEvRSt9_Any_dataOT_
FNDA:0,_ZNSt14_Function_base13_Base_managerIZ4mainEUlRKNSt7__cxx1112basic_stringIcSt11char_traitsIcESaIcEEES8_PKhmE_E15_M_init_functorIRKSB_EEvRSt9_Any_dataOT_
FN:225,_ZNSt14_Function_base13_Base_managerIPFvN5Nexus3rpc12ServiceEventERKNS2_17ServiceDescriptorEEE21_M_not_empty_functionIS7_EEbPT_
FNDA:1,_ZNSt14_Function_base13_Base_managerIPFvN5Nexus3rpc12ServiceEventERKNS2_17ServiceDescriptorEEE21_M_not_empty_functionIS7_EEbPT_
FN:235,_ZNSt14_Function_base13_Base_managerIZ4mainEUlRKNSt7__cxx1112basic_stringIcSt11char_traitsIcESaIcEEES8_PKhmE_E21_M_not_empty_functionISB_EEbRKT_
FNDA:0,_ZNSt14_Function_base13_Base_managerIZ4mainEUlRKNSt7__cxx1112basic_stringIcSt11char_traitsIcESaIcEEES8_PKhmE_E21_M_not_empty_functionISB_EEbRKT_
FN:239,_ZNSt14_Function_baseC2Ev
FNDA:10,_ZNSt14_Function_baseC2Ev
FN:241,_ZNSt14_Function_baseD2Ev
FNDA:10,_ZNSt14_Function_baseD2Ev
FN:267,_ZNSt17_Function_handlerIFvN5Nexus3rpc12ServiceEventERKNS1_17ServiceDescriptorEEPS6_E10_M_managerERSt9_Any_dataRKS9_St18_Manager_operation
FNDA:5,_ZNSt17_Function_handlerIFvN5Nexus3rpc12ServiceEventERKNS1_17ServiceDescriptorEEPS6_E10_M_managerERSt9_Any_dataRKS9_St18_Manager_operation
FN:267,_ZNSt17_Function_handlerIFvRKNSt7__cxx1112basic_stringIcSt11char_traitsIcESaIcEEES7_PKhmEZ4mainEUlS7_S7_S9_mE_E10_M_managerERSt9_Any_dataRKSD_St18_Manager_operation
FNDA:0,_ZNSt17_Function_handlerIFvRKNSt7__cxx1112basic_stringIcSt11char_traitsIcESaIcEEES7_PKhmEZ4mainEUlS7_S7_S9_mE_E10_M_managerERSt9_Any_dataRKSD_St18_Manager_operation
FN:288,_ZNSt17_Function_handlerIFvN5Nexus3rpc12ServiceEventERKNS1_17ServiceDescriptorEEPS6_E9_M_invokeERKSt9_Any_dataOS2_S5_
FNDA:1,_ZNSt17_Function_handlerIFvN5Nexus3rpc12ServiceEventERKNS1_17ServiceDescriptorEEPS6_E9_M_invokeERKSt9_Any_dataOS2_S5_
FN:288,_ZNSt17_Function_handlerIFvRKNSt7__cxx1112basic_stringIcSt11char_traitsIcESaIcEEES7_PKhmEZ4mainEUlS7_S7_S9_mE_E9_M_invokeERKSt9_Any_dataS7_S7_OS9_Om
FNDA:0,_ZNSt17_Function_handlerIFvRKNSt7__cxx1112basic_stringIcSt11char_traitsIcESaIcEEES7_PKhmEZ4mainEUlS7_S7_S9_mE_E9_M_invokeERKSt9_Any_dataS7_S7_OS9_Om
FN:435,_ZNSt8functionIFvRKNSt7__cxx1112basic_stringIcSt11char_traitsIcESaIcEEES7_PKhmEEC2IZ4mainEUlS7_S7_S9_mE_vEEOT_
FNDA:0,_ZNSt8functionIFvRKNSt7__cxx1112basic_stringIcSt11char_traitsIcESaIcEEES7_PKhmEEC2IZ4mainEUlS7_S7_S9_mE_vEEOT_
FN:435,_ZNSt8functionIFvN5Nexus3rpc12ServiceEventERKNS1_17ServiceDescriptorEEEC2IRS6_vEEOT_
FNDA:1,_ZNSt8functionIFvN5Nexus3rpc12ServiceEventERKNS1_17ServiceDescriptorEEEC2IRS6_vEEOT_
DA:85,12
DA:86,6
DA:90,0
DA:91,0
DA:90,3
DA:91,3
DA:90,0
DA:91,0
DA:90,0
DA:91,0
DA:90,0
DA:91,0
DA:95,0
DA:96,0
DA:95,3
DA:96,3
DA:134,0
DA:138,0
DA:139,0
DA:134,3
DA:138,3
DA:139,3
DA:150,0
DA:152,0
DA:153,0
DA:150,2
DA:152,2
DA:153,2
DA:150,0
DA:152,0
DA:153,0
DA:150,1
DA:152,1
DA:153,1
DA:166,0
DA:168,0
DA:169,0
DA:166,3
DA:168,3
DA:169,3
DA:180,0
DA:183,0
DA:185,0
DA:187,0
DA:191,0
DA:193,0
DA:194,0
DA:195,0
DA:197,0
DA:198,0
DA:199,0
DA:200,0
DA:202,0
DA:203,0
DA:204,0
DA:206,0
DA:180,5
DA:183,5
DA:185,0
DA:187,0
DA:191,0
DA:193,0
DA:194,0
DA:195,0
DA:197,2
DA:198,2
DA:199,2
DA:200,2
DA:202,3
DA:203,3
DA:204,3
DA:206,5
DA:211,0
DA:215,0
DA:216,0
DA:211,2
DA:215,2
DA:216,2
DA:211,0
DA:215,0
DA:216,0
DA:211,1
DA:215,1
DA:216,1
DA:225,1
DA:226,1
DA:235,0
DA:236,0
DA:239,10
DA:241,10
DA:243,10
DA:244,5
DA:245,10
DA:267,0
DA:270,0
DA:273,0
DA:274,0
DA:275,0
DA:277,0
DA:278,0
DA:279,0
DA:281,0
DA:282,0
DA:284,0
DA:267,5
DA:270,5
DA:273,0
DA:274,0
DA:275,0
DA:277,0
DA:278,0
DA:279,0
DA:281,5
DA:282,5
DA:284,5
DA:288,0
DA:290,0
DA:291,0
DA:288,1
DA:290,1
DA:291,1
DA:435,0
DA:437,0
DA:447,0
DA:449,0
DA:451,0
DA:452,0
DA:454,0
DA:435,1
DA:437,1
DA:447,1
DA:449,1
DA:451,1
DA:452,1
DA:454,1
end_of_record
SF:/usr/include/c++/11/bits/stl_iterator_base_types.h
FN:238,_ZSt19__iterator_categoryIPcENSt15iterator_traitsIT_E17iterator_categoryERKS2_
FNDA:0,_ZSt19__iterator_categoryIPcENSt15iterator_traitsIT_E17iterator_categoryERKS2_
FN:238,_ZSt19__iterator_categoryIPKNSt7__cxx1112basic_stringIcSt11char_traitsIcESaIcEEEENSt15iterator_traitsIT_E17iterator_categoryERKS9_
FNDA:0,_ZSt19__iterator_categoryIPKNSt7__cxx1112basic_stringIcSt11char_traitsIcESaIcEEEENSt15iterator_traitsIT_E17iterator_categoryERKS9_
FN:238,_ZSt19__iterator_categoryIPKcENSt15iterator_traitsIT_E17iterator_categoryERKS3_
FNDA:0,_ZSt19__iterator_categoryIPKcENSt15iterator_traitsIT_E17iterator_categoryERKS3_
DA:238,0
DA:239,0
DA:238,0
DA:239,0
DA:238,0
DA:239,0
end_of_record
SF:/usr/include/c++/11/bits/stl_algobase.h
FN:230,_ZSt3minImERKT_S2_S2_
FNDA:67,_ZSt3minImERKT_S2_S2_
DA:230,67
DA:235,67
DA:236,0
DA:237,67
end_of_record
SF:/usr/include/c++/11/bits/stl_construct.h
FN:109,_ZSt10_ConstructINSt7__cxx1112basic_stringIcSt11char_traitsIcESaIcEEEJRKS5_EEvPT_DpOT0_
FNDA:0,_ZSt10_ConstructINSt7__cxx1112basic_stringIcSt11char_traitsIcESaIcEEEJRKS5_EEvPT_DpOT0_
FN:146,_ZSt8_DestroyIN5Nexus3rpc17ServiceDescriptorEEvPT_
FNDA:5,_ZSt8_DestroyIN5Nexus3rpc17ServiceDescriptorEEvPT_
FN:146,_ZSt8_DestroyINSt7__cxx1112basic_stringIcSt11char_traitsIcESaIcEEEEvPT_
FNDA:3,_ZSt8_DestroyINSt7__cxx1112basic_stringIcSt11char_traitsIcESaIcEEEEvPT_
FN:160,_ZNSt12_Destroy_auxILb0EE9__destroyIPN5Nexus3rpc17ServiceDescriptorEEEvT_S6_
FNDA:9,_ZNSt12_Destroy_auxILb0EE9__destroyIPN5Nexus3rpc17ServiceDescriptorEEEvT_S6_
FN:160,_ZNSt12_Destroy_auxILb0EE9__destroyIPNSt7__cxx1112basic_stringIcSt11char_traitsIcESaIcEEEEEvT_S9_
FNDA:4,_ZNSt12_Destroy_auxILb0EE9__destroyIPNSt7__cxx1112basic_stringIcSt11char_traitsIcESaIcEEEEEvT_S9_
FN:182,_ZSt8_DestroyIPN5Nexus3rpc17ServiceDescriptorEEvT_S4_
FNDA:9,_ZSt8_DestroyIPN5Nexus3rpc17ServiceDescriptorEEvT_S4_
FN:182,_ZSt8_DestroyIPNSt7__cxx1112basic_stringIcSt11char_traitsIcESaIcEEEEvT_S7_
FNDA:4,_ZSt8_DestroyIPNSt7__cxx1112basic_stringIcSt11char_traitsIcESaIcEEEEvT_S7_
DA:109,0
DA:119,0
DA:120,0
DA:146,5
DA:151,5
DA:153,5
DA:146,3
DA:151,3
DA:153,3
DA:160,9
DA:162,14
DA:163,5
DA:164,9
DA:160,4
DA:162,7
DA:163,3
DA:164,4
DA:182,9
DA:196,9
DA:197,9
DA:182,4
DA:196,4
DA:197,4
end_of_record
SF:/usr/include/c++/11/bits/char_traits.h
FN:393,_ZNSt11char_traitsIcE6lengthEPKc
FNDA:0,_ZNSt11char_traitsIcE6lengthEPKc
FN:429,_ZNSt11char_traitsIcE4copyEPcPKcm
FNDA:0,_ZNSt11char_traitsIcE4copyEPcPKcm
DA:393,0
DA:399,0
DA:429,0
DA:431,0
DA:432,0
DA:437,0
end_of_record
SF:/usr/include/c++/11/bits/stl_vector.h
FN:97,_ZNSt12_Vector_baseINSt7__cxx1112basic_stringIcSt11char_traitsIcESaIcEEESaIS5_EE17_Vector_impl_dataC2Ev
FNDA:4,_ZNSt12_Vector_baseINSt7__cxx1112basic_stringIcSt11char_traitsIcESaIcEEESaIS5_EE17_Vector_impl_dataC2Ev
FN:136,_ZNSt12_Vector_baseINSt7__cxx1112basic_stringIcSt11char_traitsIcESaIcEEESaIS5_EE12_Vector_implC2ERKS6_
FNDA:0,_ZNSt12_Vector_baseINSt7__cxx1112basic_stringIcSt11char_traitsIcESaIcEEESaIS5_EE12_Vector_implC2ERKS6_
FN:276,_ZNSt12_Vector_baseIN5Nexus3rpc17ServiceDescriptorESaIS2_EE19_M_get_Tp_allocatorEv
FNDA:20,_ZNSt12_Vector_baseIN5Nexus3rpc17ServiceDescriptorESaIS2_EE19_M_get_Tp_allocatorEv
FN:276,_ZNSt12_Vector_baseINSt7__cxx1112basic_stringIcSt11char_traitsIcESaIcEEESaIS5_EE19_M_get_Tp_allocatorEv
FNDA:10,_ZNSt12_Vector_baseINSt7__cxx1112basic_stringIcSt11char_traitsIcESaIcEEESaIS5_EE19_M_get_Tp_allocatorEv
FN:293,_ZNSt12_Vector_baseINSt7__cxx1112basic_stringIcSt11char_traitsIcESaIcEEESaIS5_EEC2ERKS6_
FNDA:0,_ZNSt12_Vector_baseINSt7__cxx1112basic_stringIcSt11char_traitsIcESaIcEEESaIS5_EEC2ERKS6_
FN:333,_ZNSt12_Vector_baseIN5Nexus3rpc17ServiceDescriptorESaIS2_EED2Ev
FNDA:6,_ZNSt12_Vector_baseIN5Nexus3rpc17ServiceDescriptorESaIS2_EED2Ev
FN:333,_ZNSt12_Vector_baseINSt7__cxx1112basic_stringIcSt11char_traitsIcESaIcEEESaIS5_EED2Ev
FNDA:4,_ZNSt12_Vector_baseINSt7__cxx1112basic_stringIcSt11char_traitsIcESaIcEEESaIS5_EED2Ev
FN:343,_ZNSt12_Vector_baseINSt7__cxx1112basic_stringIcSt11char_traitsIcESaIcEEESaIS5_EE11_M_allocateEm
FNDA:3,_ZNSt12_Vector_baseINSt7__cxx1112basic_stringIcSt11char_traitsIcESaIcEEESaIS5_EE11_M_allocateEm
FN:350,_ZNSt12_Vector_baseINSt7__cxx1112basic_stringIcSt11char_traitsIcESaIcEEESaIS5_EE13_M_deallocateEPS5_m
FNDA:7,_ZNSt12_Vector_baseINSt7__cxx1112basic_stringIcSt11char_traitsIcESaIcEEESaIS5_EE13_M_deallocateEPS5_m
FN:350,_ZNSt12_Vector_baseIN5Nexus3rpc17ServiceDescriptorESaIS2_EE13_M_deallocateEPS2_m
FNDA:11,_ZNSt12_Vector_baseIN5Nexus3rpc17ServiceDescriptorESaIS2_EE13_M_deallocateEPS2_m
FN:625,_ZNSt6vectorINSt7__cxx1112basic_stringIcSt11char_traitsIcESaIcEEESaIS5_EEC2ESt16initializer_listIS5_ERKS6_
FNDA:0,_ZNSt6vectorINSt7__cxx1112basic_stringIcSt11char_traitsIcESaIcEEESaIS5_EEC2ESt16initializer_listIS5_ERKS6_
FN:678,_ZNSt6vectorIN5Nexus3rpc17ServiceDescriptorESaIS2_EED2Ev
FNDA:6,_ZNSt6vectorIN5Nexus3rpc17ServiceDescriptorESaIS2_EED2Ev
FN:678,_ZNSt6vectorINSt7__cxx1112basic_stringIcSt11char_traitsIcESaIcEEESaIS5_EED2Ev
FNDA:4,_ZNSt6vectorINSt7__cxx1112basic_stringIcSt11char_traitsIcESaIcEEESaIS5_EED2Ev
FN:811,_ZNSt6vectorINSt7__cxx1112basic_stringIcSt11char_traitsIcESaIcEEESaIS5_EE5beginEv
FNDA:8,_ZNSt6vectorINSt7__cxx1112basic_stringIcSt11char_traitsIcESaIcEEESaIS5_EE5beginEv
FN:811,_ZNSt6vectorIN5Nexus3rpc17ServiceDescriptorESaIS2_EE5beginEv
FNDA:14,_ZNSt6vectorIN5Nexus3rpc17ServiceDescriptorESaIS2_EE5beginEv
FN:829,_ZNSt6vectorINSt7__cxx1112basic_stringIcSt11char_traitsIcESaIcEEESaIS5_EE3endEv
FNDA:9,_ZNSt6vectorINSt7__cxx1112basic_stringIcSt11char_traitsIcESaIcEEESaIS5_EE3endEv
FN:829,_ZNSt6vectorIN5Nexus3rpc17ServiceDescriptorESaIS2_EE3endEv
FNDA:12,_ZNSt6vectorIN5Nexus3rpc17ServiceDescriptorESaIS2_EE3endEv
FN:918,_ZNKSt6vectorINSt7__cxx1112basic_stringIcSt11char_traitsIcESaIcEEESaIS5_EE4sizeEv
FNDA:14,_ZNKSt6vectorINSt7__cxx1112basic_stringIcSt11char_traitsIcESaIcEEESaIS5_EE4sizeEv
FN:918,_ZNKSt6vectorIN5Nexus3rpc17ServiceDescriptorESaIS2_EE4sizeEv
FNDA:22,_ZNKSt6vectorIN5Nexus3rpc17ServiceDescriptorESaIS2_EE4sizeEv
FN:1577,_ZNSt6vectorINSt7__cxx1112basic_stringIcSt11char_traitsIcESaIcEEESaIS5_EE19_M_range_initializeIPKS5_EEvT_SB_St20forward_iterator_tag
FNDA:0,_ZNSt6vectorINSt7__cxx1112basic_stringIcSt11char_traitsIcESaIcEEESaIS5_EE19_M_range_initializeIPKS5_EEvT_SB_St20forward_iterator_tag
FN:1767,_ZNSt6vectorINSt7__cxx1112basic_stringIcSt11char_traitsIcESaIcEEESaIS5_EE17_S_check_init_lenEmRKS6_
FNDA:0,_ZNSt6vectorINSt7__cxx1112basic_stringIcSt11char_traitsIcESaIcEEESaIS5_EE17_S_check_init_lenEmRKS6_
FN:1776,_ZNSt6vectorINSt7__cxx1112basic_stringIcSt11char_traitsIcESaIcEEESaIS5_EE11_S_max_sizeERKS6_
FNDA:6,_ZNSt6vectorINSt7__cxx1112basic_stringIcSt11char_traitsIcESaIcEEESaIS5_EE11_S_max_sizeERKS6_
DA:97,4
DA:98,4
DA:99,4
DA:136,0
DA:137,0
DA:138,0
DA:276,20
DA:277,20
DA:276,10
DA:277,10
DA:293,0
DA:294,0
DA:333,4
DA:335,4
DA:336,4
DA:337,4
DA:333,6
DA:335,6
DA:336,6
DA:337,6
DA:343,3
DA:346,3
DA:350,7
DA:353,7
DA:354,3
DA:355,7
DA:350,11
DA:353,11
DA:354,5
DA:355,11
DA:625,0
DA:627,0
DA:629,0
DA:630,0
DA:631,0
DA:678,6
DA:680,6
DA:681,6
DA:683,6
DA:678,4
DA:680,4
DA:681,4
DA:683,4
DA:811,8
DA:812,8
DA:811,14
DA:812,14
DA:829,9
DA:830,9
DA:829,12
DA:830,12
DA:918,14
DA:919,14
DA:918,22
DA:919,22
DA:1577,0
DA:1580,0
DA:1582,0
DA:1583,0
DA:1584,0
DA:1585,0
DA:1587,0
DA:1588,0
DA:1767,0
DA:1769,0
DA:1770,0
DA:1772,0
DA:1776,6
DA:1781,6
DA:1783,6
DA:1784,6
end_of_record
SF:/usr/include/c++/11/bits/this_thread_sleep.h
FN:70,_ZNSt11this_thread9sleep_forIlSt5ratioILl1ELl1000EEEEvRKNSt6chrono8durationIT_T0_EE
FNDA:6,_ZNSt11this_thread9sleep_forIlSt5ratioILl1ELl1000EEEEvRKNSt6chrono8durationIT_T0_EE
FN:70,_ZNSt11this_thread9sleep_forIlSt5ratioILl1ELl1EEEEvRKNSt6chrono8durationIT_T0_EE
FNDA:1,_ZNSt11this_thread9sleep_forIlSt5ratioILl1ELl1EEEEvRKNSt6chrono8durationIT_T0_EE
DA:70,6
DA:72,6
DA:73,0
DA:74,6
DA:75,6
DA:77,12
DA:79,6
DA:80,6
DA:82,6
DA:70,1
DA:72,1
DA:73,0
DA:74,1
DA:75,1
DA:77,2
DA:79,1
DA:80,1
DA:82,1
end_of_record
SF:/usr/include/c++/11/new
FN:174,_ZnwmPv
FNDA:61,_ZnwmPv
FN:180,_ZdlPvS_
FNDA:0,_ZdlPvS_
DA:174,61
DA:175,61
DA:180,0
end_of_record
SF:/usr/include/c++/11/bits/basic_string.tcc
FN:206,_ZNSt7__cxx1112basic_stringIcSt11char_traitsIcESaIcEE12_M_constructIPcEEvT_S7_St20forward_iterator_tag
FNDA:0,_ZNSt7__cxx1112basic_stringIcSt11char_traitsIcESaIcEE12_M_constructIPcEEvT_S7_St20forward_iterator_tag
FN:206,_ZNSt7__cxx1112basic_stringIcSt11char_traitsIcESaIcEE12_M_constructIPKcEEvT_S8_St20forward_iterator_tag
FNDA:0,_ZNSt7__cxx1112basic_stringIcSt11char_traitsIcESaIcEE12_M_constructIPKcEEvT_S8_St20forward_iterator_tag
DA:206,0
DA:211,0
DA:212,0
DA:215,0
DA:217,0
DA:219,0
DA:220,0
DA:225,0
DA:226,0
DA:228,0
DA:229,0
DA:232,0
DA:233,0
DA:206,0
DA:211,0
DA:212,0
DA:215,0
DA:217,0
DA:219,0
DA:220,0
DA:225,0
DA:226,0
DA:228,0
DA:229,0
DA:232,0
DA:233,0
end_of_record
SF:/usr/include/c++/11/bits/shared_ptr.h
end_of_record
SF:/usr/include/c++/11/ext/type_traits.h
FN:152,_ZN9__gnu_cxx17__is_null_pointerIcEEbPT_
FNDA:0,_ZN9__gnu_cxx17__is_null_pointerIcEEbPT_
FN:152,_ZN9__gnu_cxx17__is_null_pointerIKcEEbPT_
FNDA:0,_ZN9__gnu_cxx17__is_null_pointerIKcEEbPT_
DA:152,0
DA:153,0
DA:152,0
DA:153,0
end_of_record
SF:/usr/include/c++/11/iostream
end_of_record
SF:/usr/include/c++/11/bits/move.h
FN:49,_ZSt11__addressofIN5Nexus3rpc17ServiceDescriptorEEPT_RS3_
FNDA:8,_ZSt11__addressofIN5Nexus3rpc17ServiceDescriptorEEPT_RS3_
FN:49,_ZSt11__addressofINSt7__cxx1112basic_stringIcSt11char_traitsIcESaIcEEEEPT_RS6_
FNDA:6,_ZSt11__addressofINSt7__cxx1112basic_stringIcSt11char_traitsIcESaIcEEEEPT_RS6_
FN:49,_ZSt11__addressofIKZ4mainEUlRKNSt7__cxx1112basic_stringIcSt11char_traitsIcESaIcEEES7_PKhmE_EPT_RSC_
FNDA:0,_ZSt11__addressofIKZ4mainEUlRKNSt7__cxx1112basic_stringIcSt11char_traitsIcESaIcEEES7_PKhmE_EPT_RSC_
FN:49,_ZSt11__addressofIKPFvN5Nexus3rpc12ServiceEventERKNS1_17ServiceDescriptorEEEPT_RS9_
FNDA:3,_ZSt11__addressofIKPFvN5Nexus3rpc12ServiceEventERKNS1_17ServiceDescriptorEEEPT_RS9_
FN:77,_ZSt7forwardIRKZ4mainEUlRKNSt7__cxx1112basic_stringIcSt11char_traitsIcESaIcEEES7_PKhmE_EOT_RNSt16remove_referenceISD_E4typeE
FNDA:0,_ZSt7forwardIRKZ4mainEUlRKNSt7__cxx1112basic_stringIcSt11char_traitsIcESaIcEEES7_PKhmE_EOT_RNSt16remove_referenceISD_E4typeE
FN:77,_ZSt7forwardIRFvN5Nexus3rpc12ServiceEventERKNS1_17ServiceDescriptorEEEOT_RNSt16remove_referenceIS8_E4typeE
FNDA:3,_ZSt7forwardIRFvN5Nexus3rpc12ServiceEventERKNS1_17ServiceDescriptorEEEOT_RNSt16remove_referenceIS8_E4typeE
FN:77,_ZSt7forwardIZ4mainEUlRKNSt7__cxx1112basic_stringIcSt11char_traitsIcESaIcEEES7_PKhmE_EOT_RNSt16remove_referenceISB_E4typeE
FNDA:0,_ZSt7forwardIZ4mainEUlRKNSt7__cxx1112basic_stringIcSt11char_traitsIcESaIcEEES7_PKhmE_EOT_RNSt16remove_referenceISB_E4typeE
FN:77,_ZSt7forwardIN5Nexus3rpc12ServiceEventEEOT_RNSt16remove_referenceIS3_E4typeE
FNDA:4,_ZSt7forwardIN5Nexus3rpc12ServiceEventEEOT_RNSt16remove_referenceIS3_E4typeE
FN:77,_ZSt7forwardIRKN5Nexus3rpc17ServiceDescriptorEEOT_RNSt16remove_referenceIS5_E4typeE
FNDA:13,_ZSt7forwardIRKN5Nexus3rpc17ServiceDescriptorEEOT_RNSt16remove_referenceIS5_E4typeE
FN:77,_ZSt7forwardIRKNSt7__cxx1112basic_stringIcSt11char_traitsIcESaIcEEEEOT_RNSt16remove_referenceIS8_E4typeE
FNDA:16,_ZSt7forwardIRKNSt7__cxx1112basic_stringIcSt11char_traitsIcESaIcEEEEOT_RNSt16remove_referenceIS8_E4typeE
FN:77,_ZSt7forwardIPKhEOT_RNSt16remove_referenceIS2_E4typeE
FNDA:4,_ZSt7forwardIPKhEOT_RNSt16remove_referenceIS2_E4typeE
FN:77,_ZSt7forwardImEOT_RNSt16remove_referenceIS0_E4typeE
FNDA:16,_ZSt7forwardImEOT_RNSt16remove_referenceIS0_E4typeE
FN:77,_ZSt7forwardIRPFvN5Nexus3rpc12ServiceEventERKNS1_17ServiceDescriptorEEEOT_RNSt16remove_referenceIS9_E4typeE
FNDA:2,_ZSt7forwardIRPFvN5Nexus3rpc12ServiceEventERKNS1_17ServiceDescriptorEEEOT_RNSt16remove_referenceIS9_E4typeE
FN:77,_ZSt7forwardIRZ4mainEUlRKNSt7__cxx1112basic_stringIcSt11char_traitsIcESaIcEEES7_PKhmE_EOT_RNSt16remove_referenceISC_E4typeE
FNDA:0,_ZSt7forwardIRZ4mainEUlRKNSt7__cxx1112basic_stringIcSt11char_traitsIcESaIcEEES7_PKhmE_EOT_RNSt16remove_referenceISC_E4typeE
FN:77,_ZSt7forwardIRKPFvN5Nexus3rpc12ServiceEventERKNS1_17ServiceDescriptorEEEOT_RNSt16remove_referenceISA_E4typeE
FNDA:4,_ZSt7forwardIRKPFvN5Nexus3rpc12ServiceEventERKNS1_17ServiceDescriptorEEEOT_RNSt16remove_referenceISA_E4typeE
FN:104,_ZSt4moveIRNSt7__cxx1112basic_stringIcSt11char_traitsIcESaIcEEEEONSt16remove_referenceIT_E4typeEOS8_
FNDA:21,_ZSt4moveIRNSt7__cxx1112basic_stringIcSt11char_traitsIcESaIcEEEEONSt16remove_referenceIT_E4typeEOS8_
FN:104,_ZSt4moveIRSaIcEEONSt16remove_referenceIT_E4typeEOS3_
FNDA:0,_ZSt4moveIRSaIcEEONSt16remove_referenceIT_E4typeEOS3_
DA:49,8
DA:50,8
DA:49,6
DA:50,6
DA:49,0
DA:50,0
DA:49,3
DA:50,3
DA:77,0
DA:78,0
DA:77,4
DA:78,4
DA:77,0
DA:78,0
DA:77,2
DA:78,2
DA:77,16
DA:78,16
DA:77,4
DA:78,4
DA:77,16
DA:78,16
DA:77,13
DA:78,13
DA:77,4
DA:78,4
DA:77,0
DA:78,0
DA:77,3
DA:78,3
DA:104,21
DA:105,21
DA:104,0
DA:105,0
end_of_record
SF:/home/fz296w/workspace/Nexus/Nexus/tests/integration/test_cross_process_discovery.cpp
FN:23,_Z17printServiceEventN5Nexus3rpc12ServiceEventERKNS0_17ServiceDescriptorE
FNDA:1,_Z17printServiceEventN5Nexus3rpc12ServiceEventERKNS0_17ServiceDescriptorE
FN:47,main
FNDA:1,main
FN:68,_ZZ4mainENKUlRKNSt7__cxx1112basic_stringIcSt11char_traitsIcESaIcEEES6_PKhmE_clES6_S6_S8_m
FNDA:0,_ZZ4mainENKUlRKNSt7__cxx1112basic_stringIcSt11char_traitsIcESaIcEEES6_PKhmE_clES6_S6_S8_m
DA:23,1
DA:24,1
DA:26,1
DA:27,1
DA:28,0
DA:29,0
DA:30,0
DA:31,0
DA:32,0
DA:33,0
DA:34,1
DA:35,1
DA:36,1
DA:37,0
DA:38,0
DA:39,0
DA:42,1
DA:43,1
DA:44,1
DA:45,1
DA:47,1
DA:48,1
DA:49,0
DA:50,0
DA:53,1
DA:55,1
DA:56,0
DA:59,0
DA:62,0
DA:64,0
DA:67,0
DA:68,0
DA:70,0
DA:72,0
DA:75,0
DA:76,0
DA:78,0
DA:79,0
DA:80,0
DA:84,0
DA:87,1
DA:88,1
DA:91,1
DA:94,2
DA:97,1
DA:99,1
DA:102,1
DA:105,1
DA:106,2
DA:107,1
DA:108,2
DA:109,1
DA:110,1
DA:111,1
DA:115,1
DA:116,2
DA:117,1
DA:118,2
DA:119,1
DA:123,1
DA:124,2
DA:125,1
DA:126,1
DA:127,0
DA:128,0
DA:129,0
DA:132,1
DA:133,2
DA:134,1
DA:135,1
DA:136,1
DA:138,1
DA:139,0
DA:140,0
DA:142,1
DA:143,1
DA:146,1
DA:147,0
DA:148,0
DA:149,0
DA:153,1
end_of_record
SF:/usr/include/c++/11/chrono
FN:211,_ZNSt6chrono20__duration_cast_implINS_8durationIlSt5ratioILl1ELl1EEEES3_lLb1ELb1EE6__castIlS3_EES4_RKNS1_IT_T0_EE
FNDA:1,_ZNSt6chrono20__duration_cast_implINS_8durationIlSt5ratioILl1ELl1EEEES3_lLb1ELb1EE6__castIlS3_EES4_RKNS1_IT_T0_EE
FN:223,_ZNSt6chrono20__duration_cast_implINS_8durationIlSt5ratioILl1ELl1EEEES2_ILl1ELl1000EElLb1ELb0EE6__castIlS5_EES4_RKNS1_IT_T0_EE
FNDA:6,_ZNSt6chrono20__duration_cast_implINS_8durationIlSt5ratioILl1ELl1EEEES2_ILl1ELl1000EElLb1ELb0EE6__castIlS5_EES4_RKNS1_IT_T0_EE
FN:236,_ZNSt6chrono20__duration_cast_implINS_8durationIlSt5ratioILl1ELl1000000000EEEES2_ILl1000000ELl1EElLb0ELb1EE6__castIlS2_ILl1ELl1000EEEES4_RKNS1_IT_T0_EE
FNDA:10,_ZNSt6chrono20__duration_cast_implINS_8durationIlSt5ratioILl1ELl1000000000EEEES2_ILl1000000ELl1EElLb0ELb1EE6__castIlS2_ILl1ELl1000EEEES4_RKNS1_IT_T0_EE
FN:236,_ZNSt6chrono20__duration_cast_implINS_8durationIlSt5ratioILl1ELl1000EEEES2_ILl1000ELl1EElLb0ELb1EE6__castIlS2_ILl1ELl1EEEES4_RKNS1_IT_T0_EE
FNDA:6,_ZNSt6chrono20__duration_cast_implINS_8durationIlSt5ratioILl1ELl1000EEEES2_ILl1000ELl1EElLb0ELb1EE6__castIlS2_ILl1ELl1EEEES4_RKNS1_IT_T0_EE
FN:236,_ZNSt6chrono20__duration_cast_implINS_8durationIlSt5ratioILl1ELl1000000000EEEES2_ILl1000000000ELl1EElLb0ELb1EE6__castIlS2_ILl1ELl1EEEES4_RKNS1_IT_T0_EE
FNDA:3,_ZNSt6chrono20__duration_cast_implINS_8durationIlSt5ratioILl1ELl1000000000EEEES2_ILl1000000000ELl1EElLb0ELb1EE6__castIlS2_ILl1ELl1EEEES4_RKNS1_IT_T0_EE
FN:267,_ZNSt6chrono13duration_castINS_8durationIlSt5ratioILl1ELl1000EEEElS2_ILl1ELl1EEEENSt9enable_ifIXsrNS_13__is_durationIT_EE5valueES8_E4typeERKNS1_IT0_T1_EE
FNDA:6,_ZNSt6chrono13duration_castINS_8durationIlSt5ratioILl1ELl1000EEEElS2_ILl1ELl1EEEENSt9enable_ifIXsrNS_13__is_durationIT_EE5valueES8_E4typeERKNS1_IT0_T1_EE
FN:267,_ZNSt6chrono13duration_castINS_8durationIlSt5ratioILl1ELl1000000000EEEElS2_ILl1ELl1EEEENSt9enable_ifIXsrNS_13__is_durationIT_EE5valueES8_E4typeERKNS1_IT0_T1_EE
FNDA:3,_ZNSt6chrono13duration_castINS_8durationIlSt5ratioILl1ELl1000000000EEEElS2_ILl1ELl1EEEENSt9enable_ifIXsrNS_13__is_durationIT_EE5valueES8_E4typeERKNS1_IT0_T1_EE
FN:267,_ZNSt6chrono13duration_castINS_8durationIlSt5ratioILl1ELl1EEEElS3_EENSt9enable_ifIXsrNS_13__is_durationIT_EE5valueES7_E4typeERKNS1_IT0_T1_EE
FNDA:1,_ZNSt6chrono13duration_castINS_8durationIlSt5ratioILl1ELl1EEEElS3_EENSt9enable_ifIXsrNS_13__is_durationIT_EE5valueES7_E4typeERKNS1_IT0_T1_EE
FN:267,_ZNSt6chrono13duration_castINS_8durationIlSt5ratioILl1ELl1EEEElS2_ILl1ELl1000EEEENSt9enable_ifIXsrNS_13__is_durationIT_EE5valueES8_E4typeERKNS1_IT0_T1_EE
FNDA:6,_ZNSt6chrono13duration_castINS_8durationIlSt5ratioILl1ELl1EEEElS2_ILl1ELl1000EEEENSt9enable_ifIXsrNS_13__is_durationIT_EE5valueES8_E4typeERKNS1_IT0_T1_EE
FN:267,_ZNSt6chrono13duration_castINS_8durationIlSt5ratioILl1ELl1000000000EEEElS2_ILl1ELl1000EEEENSt9enable_ifIXsrNS_13__is_durationIT_EE5valueES8_E4typeERKNS1_IT0_T1_EE
FNDA:10,_ZNSt6chrono13duration_castINS_8durationIlSt5ratioILl1ELl1000000000EEEElS2_ILl1ELl1000EEEENSt9enable_ifIXsrNS_13__is_durationIT_EE5valueES8_E4typeERKNS1_IT0_T1_EE
FN:432,_ZNSt6chrono15duration_valuesIlE4zeroEv
FNDA:7,_ZNSt6chrono15duration_valuesIlE4zeroEv
FN:521,_ZNSt6chrono8durationIlSt5ratioILl1ELl1000000000EEEC1IlvEERKT_
FNDA:19,_ZNSt6chrono8durationIlSt5ratioILl1ELl1000000000EEEC1IlvEERKT_
FN:521,_ZNSt6chrono8durationIlSt5ratioILl1ELl1000EEEC2IlvEERKT_
FNDA:57,_ZNSt6chrono8durationIlSt5ratioILl1ELl1000EEEC2IlvEERKT_
FN:521,_ZNSt6chrono8durationIlSt5ratioILl1ELl1EEEC2IlvEERKT_
FNDA:26,_ZNSt6chrono8durationIlSt5ratioILl1ELl1EEEC2IlvEERKT_
FN:521,_ZNSt6chrono8durationIlSt5ratioILl1ELl1EEEC2IivEERKT_
FNDA:1,_ZNSt6chrono8durationIlSt5ratioILl1ELl1EEEC2IivEERKT_
FN:521,_ZNSt6chrono8durationIlSt5ratioILl1ELl1000EEEC2IivEERKT_
FNDA:6,_ZNSt6chrono8durationIlSt5ratioILl1ELl1000EEEC2IivEERKT_
FN:529,_ZNSt6chrono8durationIlSt5ratioILl1ELl1000EEEC2IlS1_ILl1ELl1EEvEERKNS0_IT_T0_EE
FNDA:6,_ZNSt6chrono8durationIlSt5ratioILl1ELl1000EEEC2IlS1_ILl1ELl1EEvEERKNS0_IT_T0_EE
FN:537,_ZNKSt6chrono8durationIlSt5ratioILl1ELl1EEE5countEv
FNDA:38,_ZNKSt6chrono8durationIlSt5ratioILl1ELl1EEE5countEv
FN:537,_ZNKSt6chrono8durationIlSt5ratioILl1ELl1000000000EEE5countEv
FNDA:72,_ZNKSt6chrono8durationIlSt5ratioILl1ELl1000000000EEE5countEv
FN:537,_ZNKSt6chrono8durationIlSt5ratioILl1ELl1000EEE5countEv
FNDA:85,_ZNKSt6chrono8durationIlSt5ratioILl1ELl1000EEE5countEv
FN:623,_ZNSt6chrono8durationIlSt5ratioILl1ELl1EEE4zeroEv
FNDA:1,_ZNSt6chrono8durationIlSt5ratioILl1ELl1EEE4zeroEv
FN:623,_ZNSt6chrono8durationIlSt5ratioILl1ELl1000EEE4zeroEv
FNDA:6,_ZNSt6chrono8durationIlSt5ratioILl1ELl1000EEE4zeroEv
FN:660,_ZNSt6chronomiIlSt5ratioILl1ELl1EElS2_EENSt11common_typeIJNS_8durationIT_T0_EENS4_IT1_T2_EEEE4typeERKS7_RKSA_
FNDA:1,_ZNSt6chronomiIlSt5ratioILl1ELl1EElS2_EENSt11common_typeIJNS_8durationIT_T0_EENS4_IT1_T2_EEEE4typeERKS7_RKSA_
FN:660,_ZNSt6chronomiIlSt5ratioILl1ELl1000EElS1_ILl1ELl1EEEENSt11common_typeIJNS_8durationIT_T0_EENS5_IT1_T2_EEEE4typeERKS8_RKSB_
FNDA:6,_ZNSt6chronomiIlSt5ratioILl1ELl1000EElS1_ILl1ELl1EEEENSt11common_typeIJNS_8durationIT_T0_EENS5_IT1_T2_EEEE4typeERKS8_RKSB_
FN:772,_ZNSt6chronoltIlSt5ratioILl1ELl1EElS2_EEbRKNS_8durationIT_T0_EERKNS3_IT1_T2_EE
FNDA:1,_ZNSt6chronoltIlSt5ratioILl1ELl1EElS2_EEbRKNS_8durationIT_T0_EERKNS3_IT1_T2_EE
FN:772,_ZNSt6chronoltIlSt5ratioILl1ELl1000EElS2_EEbRKNS_8durationIT_T0_EERKNS3_IT1_T2_EE
FNDA:6,_ZNSt6chronoltIlSt5ratioILl1ELl1000EElS2_EEbRKNS_8durationIT_T0_EERKNS3_IT1_T2_EE
FN:805,_ZNSt6chronoleIlSt5ratioILl1ELl1EElS2_EEbRKNS_8durationIT_T0_EERKNS3_IT1_T2_EE
FNDA:1,_ZNSt6chronoleIlSt5ratioILl1ELl1EElS2_EEbRKNS_8durationIT_T0_EERKNS3_IT1_T2_EE
FN:805,_ZNSt6chronoleIlSt5ratioILl1ELl1000EElS2_EEbRKNS_8durationIT_T0_EERKNS3_IT1_T2_EE
FNDA:6,_ZNSt6chronoleIlSt5ratioILl1ELl1000EElS2_EEbRKNS_8durationIT_T0_EERKNS3_IT1_T2_EE
DA:211,1
DA:214,1
DA:223,6
DA:226,12
DA:227,6
DA:236,6
DA:239,12
DA:240,6
DA:236,10
DA:239,20
DA:240,10
DA:236,3
DA:239,6
DA:240,3
DA:267,6
DA:276,6
DA:267,10
DA:276,10
DA:267,6
DA:276,6
DA:267,3
DA:276,3
DA:267,1
DA:276,1
DA:432,7
DA:433,7
DA:521,57
DA:522,57
DA:521,6
DA:522,6
DA:521,1
DA:522,1
DA:521,26
DA:522,26
DA:521,19
DA:522,19
DA:529,6
DA:530,6
DA:537,85
DA:538,85
DA:537,38
DA:538,38
DA:537,72
DA:538,72
DA:623,6
DA:624,6
DA:623,1
DA:624,1
DA:660,6
DA:666,6
DA:660,1
DA:666,1
DA:772,6
DA:778,6
DA:772,1
DA:778,1
DA:805,6
DA:807,6
DA:805,1
DA:807,1
end_of_record
SF:/usr/include/c++/11/ext/new_allocator.h
FN:79,_ZN9__gnu_cxx13new_allocatorINSt7__cxx1112basic_stringIcSt11char_traitsIcESaIcEEEEC2Ev
FNDA:4,_ZN9__gnu_cxx13new_allocatorINSt7__cxx1112basic_stringIcSt11char_traitsIcESaIcEEEEC2Ev
FN:79,_ZN9__gnu_cxx13new_allocatorIcEC2Ev
FNDA:0,_ZN9__gnu_cxx13new_allocatorIcEC2Ev
FN:82,_ZN9__gnu_cxx13new_allocatorIcEC2ERKS1_
FNDA:0,_ZN9__gnu_cxx13new_allocatorIcEC2ERKS1_
FN:82,_ZN9__gnu_cxx13new_allocatorINSt7__cxx1112basic_stringIcSt11char_traitsIcESaIcEEEEC2ERKS7_
FNDA:0,_ZN9__gnu_cxx13new_allocatorINSt7__cxx1112basic_stringIcSt11char_traitsIcESaIcEEEEC2ERKS7_
FN:89,_ZN9__gnu_cxx13new_allocatorIN5Nexus3rpc17ServiceDescriptorEED2Ev
FNDA:6,_ZN9__gnu_cxx13new_allocatorIN5Nexus3rpc17ServiceDescriptorEED2Ev
FN:89,_ZN9__gnu_cxx13new_allocatorINSt7__cxx1112basic_stringIcSt11char_traitsIcESaIcEEEED2Ev
FNDA:4,_ZN9__gnu_cxx13new_allocatorINSt7__cxx1112basic_stringIcSt11char_traitsIcESaIcEEEED2Ev
FN:89,_ZN9__gnu_cxx13new_allocatorIcED2Ev
FNDA:0,_ZN9__gnu_cxx13new_allocatorIcED2Ev
FN:103,_ZN9__gnu_cxx13new_allocatorINSt7__cxx1112basic_stringIcSt11char_traitsIcESaIcEEEE8allocateEmPKv
FNDA:3,_ZN9__gnu_cxx13new_allocatorINSt7__cxx1112basic_stringIcSt11char_traitsIcESaIcEEEE8allocateEmPKv
FN:132,_ZN9__gnu_cxx13new_allocatorINSt7__cxx1112basic_stringIcSt11char_traitsIcESaIcEEEE10deallocateEPS6_m
FNDA:3,_ZN9__gnu_cxx13new_allocatorINSt7__cxx1112basic_stringIcSt11char_traitsIcESaIcEEEE10deallocateEPS6_m
FN:132,_ZN9__gnu_cxx13new_allocatorIN5Nexus3rpc17ServiceDescriptorEE10deallocateEPS3_m
FNDA:5,_ZN9__gnu_cxx13new_allocatorIN5Nexus3rpc17ServiceDescriptorEE10deallocateEPS3_m
FN:154,_ZNK9__gnu_cxx13new_allocatorINSt7__cxx1112basic_stringIcSt11char_traitsIcESaIcEEEE8max_sizeEv
FNDA:6,_ZNK9__gnu_cxx13new_allocatorINSt7__cxx1112basic_stringIcSt11char_traitsIcESaIcEEEE8max_sizeEv
FN:197,_ZNK9__gnu_cxx13new_allocatorINSt7__cxx1112basic_stringIcSt11char_traitsIcESaIcEEEE11_M_max_sizeEv
FNDA:9,_ZNK9__gnu_cxx13new_allocatorINSt7__cxx1112basic_stringIcSt11char_traitsIcESaIcEEEE11_M_max_sizeEv
DA:79,4
DA:79,0
DA:82,0
DA:82,0
DA:89,6
DA:89,4
DA:89,0
DA:103,3
DA:111,3
DA:115,0
DA:116,0
DA:117,0
DA:127,3
DA:132,3
DA:145,3
DA:150,3
DA:132,5
DA:145,5
DA:150,5
DA:154,6
DA:155,6
DA:197,9
DA:200,9
end_of_record
SF:/usr/include/c++/11/bits/stl_uninitialized.h
FN:85,_ZNSt20__uninitialized_copyILb0EE13__uninit_copyIPKNSt7__cxx1112basic_stringIcSt11char_traitsIcESaIcEEEPS7_EET0_T_SC_SB_
FNDA:0,_ZNSt20__uninitialized_copyILb0EE13__uninit_copyIPKNSt7__cxx1112basic_stringIcSt11char_traitsIcESaIcEEEPS7_EET0_T_SC_SB_
FN:126,_ZSt18uninitialized_copyIPKNSt7__cxx1112basic_stringIcSt11char_traitsIcESaIcEEEPS5_ET0_T_SA_S9_
FNDA:0,_ZSt18uninitialized_copyIPKNSt7__cxx1112basic_stringIcSt11char_traitsIcESaIcEEEPS5_ET0_T_SA_S9_
FN:331,_ZSt22__uninitialized_copy_aIPKNSt7__cxx1112basic_stringIcSt11char_traitsIcESaIcEEEPS5_S5_ET0_T_SA_S9_RSaIT1_E
FNDA:0,_ZSt22__uninitialized_copy_aIPKNSt7__cxx1112basic_stringIcSt11char_traitsIcESaIcEEEPS5_S5_ET0_T_SA_S9_RSaIT1_E
DA:85,0
DA:88,0
DA:91,0
DA:92,0
DA:93,0
DA:95,0
DA:97,0
DA:98,0
DA:126,0
DA:145,0
DA:151,0
DA:331,0
DA:333,0
end_of_record
SF:/usr/include/c++/11/bits/basic_string.h
FN:251,_ZNSt7__cxx1112basic_stringIcSt11char_traitsIcESaIcEE16_M_construct_auxIPcEEvT_S7_St12__false_type
FNDA:0,_ZNSt7__cxx1112basic_stringIcSt11char_traitsIcESaIcEE16_M_construct_auxIPcEEvT_S7_St12__false_type
FN:271,_ZNSt7__cxx1112basic_stringIcSt11char_traitsIcESaIcEE12_M_constructIPcEEvT_S7_
FNDA:0,_ZNSt7__cxx1112basic_stringIcSt11char_traitsIcESaIcEE12_M_constructIPcEEvT_S7_
FN:6132,_ZStplIcSt11char_traitsIcESaIcEENSt7__cxx1112basic_stringIT_T0_T1_EERKS8_PKS5_
FNDA:4,_ZStplIcSt11char_traitsIcESaIcEENSt7__cxx1112basic_stringIT_T0_T1_EERKS8_PKS5_
FN:6160,_ZStplIcSt11char_traitsIcESaIcEENSt7__cxx1112basic_stringIT_T0_T1_EEOS8_RKS8_
FNDA:5,_ZStplIcSt11char_traitsIcESaIcEENSt7__cxx1112basic_stringIT_T0_T1_EEOS8_RKS8_
FN:6206,_ZStplIcSt11char_traitsIcESaIcEENSt7__cxx1112basic_stringIT_T0_T1_EEOS8_PKS5_
FNDA:9,_ZStplIcSt11char_traitsIcESaIcEENSt7__cxx1112basic_stringIT_T0_T1_EEOS8_PKS5_
FN:6248,_ZSteqIcSt11char_traitsIcESaIcEEbRKNSt7__cxx1112basic_stringIT_T0_T1_EEPKS5_
FNDA:2,_ZSteqIcSt11char_traitsIcESaIcEEbRKNSt7__cxx1112basic_stringIT_T0_T1_EEPKS5_
DA:251,0
DA:255,0
DA:256,0
DA:271,0
DA:274,0
DA:275,0
DA:6132,4
DA:6135,4
DA:6136,4
DA:6137,4
DA:6138,0
DA:6160,5
DA:6162,5
DA:6206,9
DA:6208,9
DA:6248,2
DA:6250,2
end_of_record
SF:/usr/include/c++/11/bits/allocator.h
FN:156,_ZNSaINSt7__cxx1112basic_stringIcSt11char_traitsIcESaIcEEEEC2Ev
FNDA:4,_ZNSaINSt7__cxx1112basic_stringIcSt11char_traitsIcESaIcEEEEC2Ev
FN:159,_ZNSaINSt7__cxx1112basic_stringIcSt11char_traitsIcESaIcEEEEC2ERKS5_
FNDA:0,_ZNSaINSt7__cxx1112basic_stringIcSt11char_traitsIcESaIcEEEEC2ERKS5_
FN:174,_ZNSaIN5Nexus3rpc17ServiceDescriptorEED2Ev
FNDA:6,_ZNSaIN5Nexus3rpc17ServiceDescriptorEED2Ev
FN:174,_ZNSaINSt7__cxx1112basic_stringIcSt11char_traitsIcESaIcEEEED2Ev
FNDA:4,_ZNSaINSt7__cxx1112basic_stringIcSt11char_traitsIcESaIcEEEED2Ev
DA:156,4
DA:159,0
DA:160,0
DA:174,6
DA:174,4
end_of_record
SF:/usr/include/c++/11/bits/atomic_base.h
FN:104,_ZStanSt12memory_orderSt23__memory_order_modifier
FNDA:4633,_ZStanSt12memory_orderSt23__memory_order_modifier
FN:347,_ZNKSt13__atomic_baseIiEcviEv
FNDA:1,_ZNKSt13__atomic_baseIiEcviEv
FN:368,_ZNSt13__atomic_baseIiEppEi
FNDA:1,_ZNSt13__atomic_baseIiEppEi
DA:104,4633
DA:106,4633
DA:347,1
DA:348,1
DA:368,1
DA:369,1
DA:484,2
DA:488,2
DA:618,1
end_of_record
SF:/usr/include/c++/11/ext/atomicity.h
DA:52,6
DA:66,3
DA:84,3
DA:85,3
DA:86,3
DA:98,6
DA:99,3
DA:101,3
end_of_record
SF:/usr/include/c++/11/initializer_list
FN:71,_ZNKSt16initializer_listINSt7__cxx1112basic_stringIcSt11char_traitsIcESaIcEEEE4sizeEv
FNDA:0,_ZNKSt16initializer_listINSt7__cxx1112basic_stringIcSt11char_traitsIcESaIcEEEE4sizeEv
FN:75,_ZNKSt16initializer_listINSt7__cxx1112basic_stringIcSt11char_traitsIcESaIcEEEE5beginEv
FNDA:0,_ZNKSt16initializer_listINSt7__cxx1112basic_stringIcSt11char_traitsIcESaIcEEEE5beginEv
FN:79,_ZNKSt16initializer_listINSt7__cxx1112basic_stringIcSt11char_traitsIcESaIcEEEE3endEv
FNDA:0,_ZNKSt16initializer_listINSt7__cxx1112basic_stringIcSt11char_traitsIcESaIcEEEE3endEv
DA:71,0
DA:75,0
DA:79,0
end_of_record
SF:/usr/include/c++/11/bits/stl_iterator.h
FN:1027,_ZN9__gnu_cxx17__normal_iteratorIPNSt7__cxx1112basic_stringIcSt11char_traitsIcESaIcEEESt6vectorIS6_SaIS6_EEEC2ERKS7_
FNDA:17,_ZN9__gnu_cxx17__normal_iteratorIPNSt7__cxx1112basic_stringIcSt11char_traitsIcESaIcEEESt6vectorIS6_SaIS6_EEEC2ERKS7_
FN:1027,_ZN9__gnu_cxx17__normal_iteratorIPN5Nexus3rpc17ServiceDescriptorESt6vectorIS3_SaIS3_EEEC2ERKS4_
FNDA:32,_ZN9__gnu_cxx17__normal_iteratorIPN5Nexus3rpc17ServiceDescriptorESt6vectorIS3_SaIS3_EEEC2ERKS4_
FN:1042,_ZNK9__gnu_cxx17__normal_iteratorIPNSt7__cxx1112basic_stringIcSt11char_traitsIcESaIcEEESt6vectorIS6_SaIS6_EEEdeEv
FNDA:3,_ZNK9__gnu_cxx17__normal_iteratorIPNSt7__cxx1112basic_stringIcSt11char_traitsIcESaIcEEESt6vectorIS6_SaIS6_EEEdeEv
FN:1042,_ZNK9__gnu_cxx17__normal_iteratorIPN5Nexus3rpc17ServiceDescriptorESt6vectorIS3_SaIS3_EEEdeEv
FNDA:5,_ZNK9__gnu_cxx17__normal_iteratorIPN5Nexus3rpc17ServiceDescriptorESt6vectorIS3_SaIS3_EEEdeEv
FN:1052,_ZN9__gnu_cxx17__normal_iteratorIPNSt7__cxx1112basic_stringIcSt11char_traitsIcESaIcEEESt6vectorIS6_SaIS6_EEEppEv
FNDA:3,_ZN9__gnu_cxx17__normal_iteratorIPNSt7__cxx1112basic_stringIcSt11char_traitsIcESaIcEEESt6vectorIS6_SaIS6_EEEppEv
FN:1052,_ZN9__gnu_cxx17__normal_iteratorIPN5Nexus3rpc17ServiceDescriptorESt6vectorIS3_SaIS3_EEEppEv
FNDA:5,_ZN9__gnu_cxx17__normal_iteratorIPN5Nexus3rpc17ServiceDescriptorESt6vectorIS3_SaIS3_EEEppEv
FN:1105,_ZNK9__gnu_cxx17__normal_iteratorIPNSt7__cxx1112basic_stringIcSt11char_traitsIcESaIcEEESt6vectorIS6_SaIS6_EEE4baseEv
FNDA:32,_ZNK9__gnu_cxx17__normal_iteratorIPNSt7__cxx1112basic_stringIcSt11char_traitsIcESaIcEEESt6vectorIS6_SaIS6_EEE4baseEv
FN:1105,_ZNK9__gnu_cxx17__normal_iteratorIPN5Nexus3rpc17ServiceDescriptorESt6vectorIS3_SaIS3_EEE4baseEv
FNDA:44,_ZNK9__gnu_cxx17__normal_iteratorIPN5Nexus3rpc17ServiceDescriptorESt6vectorIS3_SaIS3_EEE4baseEv
FN:1179,_ZN9__gnu_cxxneIPNSt7__cxx1112basic_stringIcSt11char_traitsIcESaIcEEESt6vectorIS6_SaIS6_EEEEbRKNS_17__normal_iteratorIT_T0_EESG_
FNDA:7,_ZN9__gnu_cxxneIPNSt7__cxx1112basic_stringIcSt11char_traitsIcESaIcEEESt6vectorIS6_SaIS6_EEEEbRKNS_17__normal_iteratorIT_T0_EESG_
FN:1179,_ZN9__gnu_cxxneIPN5Nexus3rpc17ServiceDescriptorESt6vectorIS3_SaIS3_EEEEbRKNS_17__normal_iteratorIT_T0_EESD_
FNDA:11,_ZN9__gnu_cxxneIPN5Nexus3rpc17ServiceDescriptorESt6vectorIS3_SaIS3_EEEEbRKNS_17__normal_iteratorIT_T0_EESD_
DA:1027,17
DA:1028,17
DA:1027,32
DA:1028,32
DA:1042,3
DA:1043,3
DA:1042,5
DA:1043,5
DA:1052,3
DA:1054,3
DA:1055,3
DA:1052,5
DA:1054,5
DA:1055,5
DA:1105,32
DA:1106,32
DA:1105,44
DA:1106,44
DA:1179,7
DA:1182,7
DA:1179,11
DA:1182,11
end_of_record
SF:/usr/include/c++/11/bits/invoke.h
FN:60,_ZSt13__invoke_implIvRZ4mainEUlRKNSt7__cxx1112basic_stringIcSt11char_traitsIcESaIcEEES7_PKhmE_JS7_S7_S9_mEET_St14__invoke_otherOT0_DpOT1_
FNDA:0,_ZSt13__invoke_implIvRZ4mainEUlRKNSt7__cxx1112basic_stringIcSt11char_traitsIcESaIcEEES7_PKhmE_JS7_S7_S9_mEET_St14__invoke_otherOT0_DpOT1_
FN:60,_ZSt13__invoke_implIvRPFvN5Nexus3rpc12ServiceEventERKNS1_17ServiceDescriptorEEJS2_S5_EET_St14__invoke_otherOT0_DpOT1_
FNDA:1,_ZSt13__invoke_implIvRPFvN5Nexus3rpc12ServiceEventERKNS1_17ServiceDescriptorEEJS2_S5_EET_St14__invoke_otherOT0_DpOT1_
FN:149,_ZSt10__invoke_rIvRZ4mainEUlRKNSt7__cxx1112basic_stringIcSt11char_traitsIcESaIcEEES7_PKhmE_JS7_S7_S9_mEENSt9enable_ifIXsrSt6__and_IJSt7is_voidIT_ESt14__is_invocableIT0_JDpT1_EEEE5valueESF_E4typeEOSI_DpOSJ_
FNDA:0,_ZSt10__invoke_rIvRZ4mainEUlRKNSt7__cxx1112basic_stringIcSt11char_traitsIcESaIcEEES7_PKhmE_JS7_S7_S9_mEENSt9enable_ifIXsrSt6__and_IJSt7is_voidIT_ESt14__is_invocableIT0_JDpT1_EEEE5valueESF_E4typeEOSI_DpOSJ_
FN:149,_ZSt10__invoke_rIvRPFvN5Nexus3rpc12ServiceEventERKNS1_17ServiceDescriptorEEJS2_S5_EENSt9enable_ifIXsrSt6__and_IJSt7is_voidIT_ESt14__is_invocableIT0_JDpT1_EEEE5valueESC_E4typeEOSF_DpOSG_
FNDA:1,_ZSt10__invoke_rIvRPFvN5Nexus3rpc12ServiceEventERKNS1_17ServiceDescriptorEEJS2_S5_EENSt9enable_ifIXsrSt6__and_IJSt7is_voidIT_ESt14__is_invocableIT0_JDpT1_EEEE5valueESC_E4typeEOSF_DpOSG_
DA:60,0
DA:61,0
DA:60,1
DA:61,1
DA:149,0
DA:154,0
DA:156,0
DA:149,1
DA:154,1
DA:156,1
end_of_record
TN:
SF:/usr/include/c++/11/bits/move.h
FN:49,_ZSt11__addressofI11EventRecordEPT_RS1_
FNDA:12,_ZSt11__addressofI11EventRecordEPT_RS1_
FN:49,_ZSt11__addressofINSt7__cxx1112basic_stringIcSt11char_traitsIcESaIcEEEEPT_RS6_
FNDA:2,_ZSt11__addressofINSt7__cxx1112basic_stringIcSt11char_traitsIcESaIcEEEEPT_RS6_
FN:49,_ZSt11__addressofIKZ4mainEUlRKNSt7__cxx1112basic_stringIcSt11char_traitsIcESaIcEEES7_PKhmE_EPT_RSC_
FNDA:0,_ZSt11__addressofIKZ4mainEUlRKNSt7__cxx1112basic_stringIcSt11char_traitsIcESaIcEEES7_PKhmE_EPT_RSC_
FN:49,_ZSt11__addressofIKPFvN5Nexus3rpc12ServiceEventERKNS1_17ServiceDescriptorEEEPT_RS9_
FNDA:7,_ZSt11__addressofIKPFvN5Nexus3rpc12ServiceEventERKNS1_17ServiceDescriptorEEEPT_RS9_
FN:77,_ZSt7forwardImEOT_RNSt16remove_referenceIS0_E4typeE
FNDA:28,_ZSt7forwardImEOT_RNSt16remove_referenceIS0_E4typeE
FN:77,_ZSt7forwardIRFvN5Nexus3rpc12ServiceEventERKNS1_17ServiceDescriptorEEEOT_RNSt16remove_referenceIS8_E4typeE
FNDA:3,_ZSt7forwardIRFvN5Nexus3rpc12ServiceEventERKNS1_17ServiceDescriptorEEEOT_RNSt16remove_referenceIS8_E4typeE
FN:77,_ZSt7forwardIZ4mainEUlRKNSt7__cxx1112basic_stringIcSt11char_traitsIcESaIcEEES7_PKhmE_EOT_RNSt16remove_referenceISB_E4typeE
FNDA:0,_ZSt7forwardIZ4mainEUlRKNSt7__cxx1112basic_stringIcSt11char_traitsIcESaIcEEES7_PKhmE_EOT_RNSt16remove_referenceISB_E4typeE
FN:77,_ZSt7forwardI11EventRecordEOT_RNSt16remove_referenceIS1_E4typeE
FNDA:18,_ZSt7forwardI11EventRecordEOT_RNSt16remove_referenceIS1_E4typeE
FN:77,_ZSt7forwardIN5Nexus3rpc12ServiceEventEEOT_RNSt16remove_referenceIS3_E4typeE
FNDA:12,_ZSt7forwardIN5Nexus3rpc12ServiceEventEEOT_RNSt16remove_referenceIS3_E4typeE
FN:77,_ZSt7forwardIRKN5Nexus3rpc17ServiceDescriptorEEOT_RNSt16remove_referenceIS5_E4typeE
FNDA:16,_ZSt7forwardIRKN5Nexus3rpc17ServiceDescriptorEEOT_RNSt16remove_referenceIS5_E4typeE
FN:77,_ZSt7forwardIRKNSt7__cxx1112basic_stringIcSt11char_traitsIcESaIcEEEEOT_RNSt16remove_referenceIS8_E4typeE
FNDA:25,_ZSt7forwardIRKNSt7__cxx1112basic_stringIcSt11char_traitsIcESaIcEEEEOT_RNSt16remove_referenceIS8_E4typeE
FN:77,_ZSt7forwardIPKhEOT_RNSt16remove_referenceIS2_E4typeE
FNDA:16,_ZSt7forwardIPKhEOT_RNSt16remove_referenceIS2_E4typeE
FN:77,_ZSt7forwardIRPFvN5Nexus3rpc12ServiceEventERKNS1_17ServiceDescriptorEEEOT_RNSt16remove_referenceIS9_E4typeE
FNDA:6,_ZSt7forwardIRPFvN5Nexus3rpc12ServiceEventERKNS1_17ServiceDescriptorEEEOT_RNSt16remove_referenceIS9_E4typeE
FN:77,_ZSt7forwardIRZ4mainEUlRKNSt7__cxx1112basic_stringIcSt11char_traitsIcESaIcEEES7_PKhmE_EOT_RNSt16remove_referenceISC_E4typeE
FNDA:0,_ZSt7forwardIRZ4mainEUlRKNSt7__cxx1112basic_stringIcSt11char_traitsIcESaIcEEES7_PKhmE_EOT_RNSt16remove_referenceISC_E4typeE
FN:77,_ZSt7forwardIRKPFvN5Nexus3rpc12ServiceEventERKNS1_17ServiceDescriptorEEEOT_RNSt16remove_referenceISA_E4typeE
FNDA:8,_ZSt7forwardIRKPFvN5Nexus3rpc12ServiceEventERKNS1_17ServiceDescriptorEEEOT_RNSt16remove_referenceISA_E4typeE
FN:77,_ZSt7forwardIRKZ4mainEUlRKNSt7__cxx1112basic_stringIcSt11char_traitsIcESaIcEEES7_PKhmE_EOT_RNSt16remove_referenceISD_E4typeE
FNDA:0,_ZSt7forwardIRKZ4mainEUlRKNSt7__cxx1112basic_stringIcSt11char_traitsIcESaIcEEES7_PKhmE_EOT_RNSt16remove_referenceISD_E4typeE
FN:104,_ZSt4moveIRSaIcEEONSt16remove_referenceIT_E4typeEOS3_
FNDA:0,_ZSt4moveIRSaIcEEONSt16remove_referenceIT_E4typeEOS3_
FN:104,_ZSt4moveIRNSt7__cxx1112basic_stringIcSt11char_traitsIcESaIcEEEEONSt16remove_referenceIT_E4typeEOS8_
FNDA:38,_ZSt4moveIRNSt7__cxx1112basic_stringIcSt11char_traitsIcESaIcEEEEONSt16remove_referenceIT_E4typeEOS8_
FN:104,_ZSt4moveIR11EventRecordEONSt16remove_referenceIT_E4typeEOS3_
FNDA:6,_ZSt4moveIR11EventRecordEONSt16remove_referenceIT_E4typeEOS3_
FN:104,_ZSt4moveIRP11EventRecordEONSt16remove_referenceIT_E4typeEOS4_
FNDA:0,_ZSt4moveIRP11EventRecordEONSt16remove_referenceIT_E4typeEOS4_
DA:49,12
DA:50,12
DA:49,2
DA:50,2
DA:49,0
DA:50,0
DA:49,7
DA:50,7
DA:77,0
DA:78,0
DA:77,8
DA:78,8
DA:77,0
DA:78,0
DA:77,6
DA:78,6
DA:77,28
DA:78,28
DA:77,16
DA:78,16
DA:77,25
DA:78,25
DA:77,16
DA:78,16
DA:77,12
DA:78,12
DA:77,18
DA:78,18
DA:77,0
DA:78,0
DA:77,3
DA:78,3
DA:104,0
DA:105,0
DA:104,6
DA:105,6
DA:104,38
DA:105,38
DA:104,0
DA:105,0
end_of_record
SF:/usr/include/c++/11/chrono
FN:211,_ZNSt6chrono20__duration_cast_implINS_8durationIlSt5ratioILl1ELl1EEEES3_lLb1ELb1EE6__castIlS3_EES4_RKNS1_IT_T0_EE
FNDA:31,_ZNSt6chrono20__duration_cast_implINS_8durationIlSt5ratioILl1ELl1EEEES3_lLb1ELb1EE6__castIlS3_EES4_RKNS1_IT_T0_EE
FN:223,_ZNSt6chrono20__duration_cast_implINS_8durationIlSt5ratioILl1ELl1000EEEES2_ILl1ELl1000000EElLb1ELb0EE6__castIlS2_ILl1ELl1000000000EEEES4_RKNS1_IT_T0_EE
FNDA:79,_ZNSt6chrono20__duration_cast_implINS_8durationIlSt5ratioILl1ELl1000EEEES2_ILl1ELl1000000EElLb1ELb0EE6__castIlS2_ILl1ELl1000000000EEEES4_RKNS1_IT_T0_EE
FN:223,_ZNSt6chrono20__duration_cast_implINS_8durationIlSt5ratioILl1ELl1EEEES2_ILl1ELl1000EElLb1ELb0EE6__castIlS5_EES4_RKNS1_IT_T0_EE
FNDA:19,_ZNSt6chrono20__duration_cast_implINS_8durationIlSt5ratioILl1ELl1EEEES2_ILl1ELl1000EElLb1ELb0EE6__castIlS5_EES4_RKNS1_IT_T0_EE
FN:223,_ZNSt6chrono20__duration_cast_implINS_8durationIlSt5ratioILl1ELl1EEEES2_ILl1ELl1000000000EElLb1ELb0EE6__castIlS5_EES4_RKNS1_IT_T0_EE
FNDA:49,_ZNSt6chrono20__duration_cast_implINS_8durationIlSt5ratioILl1ELl1EEEES2_ILl1ELl1000000000EElLb1ELb0EE6__castIlS5_EES4_RKNS1_IT_T0_EE
FN:236,_ZNSt6chrono20__duration_cast_implINS_8durationIlSt5ratioILl1ELl1000000000EEEES2_ILl1000000ELl1EElLb0ELb1EE6__castIlS2_ILl1ELl1000EEEES4_RKNS1_IT_T0_EE
FNDA:47,_ZNSt6chrono20__duration_cast_implINS_8durationIlSt5ratioILl1ELl1000000000EEEES2_ILl1000000ELl1EElLb0ELb1EE6__castIlS2_ILl1ELl1000EEEES4_RKNS1_IT_T0_EE
FN:236,_ZNSt6chrono20__duration_cast_implINS_8durationIlSt5ratioILl1ELl1000EEEES2_ILl1000ELl1EElLb0ELb1EE6__castIlS2_ILl1ELl1EEEES4_RKNS1_IT_T0_EE
FNDA:19,_ZNSt6chrono20__duration_cast_implINS_8durationIlSt5ratioILl1ELl1000EEEES2_ILl1000ELl1EElLb0ELb1EE6__castIlS2_ILl1ELl1EEEES4_RKNS1_IT_T0_EE
FN:236,_ZNSt6chrono20__duration_cast_implINS_8durationIlSt5ratioILl1ELl1000000000EEEES2_ILl1000000000ELl1EElLb0ELb1EE6__castIlS2_ILl1ELl1EEEES4_RKNS1_IT_T0_EE
FNDA:45,_ZNSt6chrono20__duration_cast_implINS_8durationIlSt5ratioILl1ELl1000000000EEEES2_ILl1000000000ELl1EElLb0ELb1EE6__castIlS2_ILl1ELl1EEEES4_RKNS1_IT_T0_EE
FN:267,_ZNSt6chrono13duration_castINS_8durationIlSt5ratioILl1ELl1000000000EEEElS2_ILl1ELl1000EEEENSt9enable_ifIXsrNS_13__is_durationIT_EE5valueES8_E4typeERKNS1_IT0_T1_EE
FNDA:47,_ZNSt6chrono13duration_castINS_8durationIlSt5ratioILl1ELl1000000000EEEElS2_ILl1ELl1000EEEENSt9enable_ifIXsrNS_13__is_durationIT_EE5valueES8_E4typeERKNS1_IT0_T1_EE
FN:267,_ZNSt6chrono13duration_castINS_8durationIlSt5ratioILl1ELl1EEEElS3_EENSt9enable_ifIXsrNS_13__is_durationIT_EE5valueES7_E4typeERKNS1_IT0_T1_EE
FNDA:31,_ZNSt6chrono13duration_castINS_8durationIlSt5ratioILl1ELl1EEEElS3_EENSt9enable_ifIXsrNS_13__is_durationIT_EE5valueES7_E4typeERKNS1_IT0_T1_EE
FN:267,_ZNSt6chrono13duration_castINS_8durationIlSt5ratioILl1ELl1000000000EEEElS2_ILl1ELl1EEEENSt9enable_ifIXsrNS_13__is_durationIT_EE5valueES8_E4typeERKNS1_IT0_T1_EE
FNDA:45,_ZNSt6chrono13duration_castINS_8durationIlSt5ratioILl1ELl1000000000EEEElS2_ILl1ELl1EEEENSt9enable_ifIXsrNS_13__is_durationIT_EE5valueES8_E4typeERKNS1_IT0_T1_EE
FN:267,_ZNSt6chrono13duration_castINS_8durationIlSt5ratioILl1ELl1EEEElS2_ILl1ELl1000000000EEEENSt9enable_ifIXsrNS_13__is_durationIT_EE5valueES8_E4typeERKNS1_IT0_T1_EE
FNDA:49,_ZNSt6chrono13duration_castINS_8durationIlSt5ratioILl1ELl1EEEElS2_ILl1ELl1000000000EEEENSt9enable_ifIXsrNS_13__is_durationIT_EE5valueES8_E4typeERKNS1_IT0_T1_EE
FN:267,_ZNSt6chrono13duration_castINS_8durationIlSt5ratioILl1ELl1000EEEElS2_ILl1ELl1000000000EEEENSt9enable_ifIXsrNS_13__is_durationIT_EE5valueES8_E4typeERKNS1_IT0_T1_EE
FNDA:79,_ZNSt6chrono13duration_castINS_8durationIlSt5ratioILl1ELl1000EEEElS2_ILl1ELl1000000000EEEENSt9enable_ifIXsrNS_13__is_durationIT_EE5valueES8_E4typeERKNS1_IT0_T1_EE
FN:267,_ZNSt6chrono13duration_castINS_8durationIlSt5ratioILl1ELl1EEEElS2_ILl1ELl1000EEEENSt9enable_ifIXsrNS_13__is_durationIT_EE5valueES8_E4typeERKNS1_IT0_T1_EE
FNDA:19,_ZNSt6chrono13duration_castINS_8durationIlSt5ratioILl1ELl1EEEElS2_ILl1ELl1000EEEENSt9enable_ifIXsrNS_13__is_durationIT_EE5valueES8_E4typeERKNS1_IT0_T1_EE
FN:267,_ZNSt6chrono13duration_castINS_8durationIlSt5ratioILl1ELl1000EEEElS2_ILl1ELl1EEEENSt9enable_ifIXsrNS_13__is_durationIT_EE5valueES8_E4typeERKNS1_IT0_T1_EE
FNDA:19,_ZNSt6chrono13duration_castINS_8durationIlSt5ratioILl1ELl1000EEEElS2_ILl1ELl1EEEENSt9enable_ifIXsrNS_13__is_durationIT_EE5valueES8_E4typeERKNS1_IT0_T1_EE
FN:432,_ZNSt6chrono15duration_valuesIlE4zeroEv
FNDA:50,_ZNSt6chrono15duration_valuesIlE4zeroEv
FN:521,_ZNSt6chrono8durationIlSt5ratioILl1ELl1000EEEC2IivEERKT_
FNDA:16,_ZNSt6chrono8durationIlSt5ratioILl1ELl1000EEEC2IivEERKT_
FN:521,_ZNSt6chrono8durationIlSt5ratioILl1ELl1000EEEC2IlvEERKT_
FNDA:156,_ZNSt6chrono8durationIlSt5ratioILl1ELl1000EEEC2IlvEERKT_
FN:521,_ZNSt6chrono8durationIlSt5ratioILl1ELl1000000000EEEC1IlvEERKT_
FNDA:154,_ZNSt6chrono8durationIlSt5ratioILl1ELl1000000000EEEC1IlvEERKT_
FN:521,_ZNSt6chrono8durationIlSt5ratioILl1ELl1EEEC2IlvEERKT_
FNDA:161,_ZNSt6chrono8durationIlSt5ratioILl1ELl1EEEC2IlvEERKT_
FN:521,_ZNSt6chrono8durationIlSt5ratioILl1ELl1EEEC2IivEERKT_
FNDA:31,_ZNSt6chrono8durationIlSt5ratioILl1ELl1EEEC2IivEERKT_
FN:529,_ZNSt6chrono8durationIlSt5ratioILl1ELl1000EEEC2IlS1_ILl1ELl1EEvEERKNS0_IT_T0_EE
FNDA:19,_ZNSt6chrono8durationIlSt5ratioILl1ELl1000EEEC2IlS1_ILl1ELl1EEvEERKNS0_IT_T0_EE
FN:537,_ZNKSt6chrono8durationIlSt5ratioILl1ELl1000000000EEE5countEv
FNDA:387,_ZNKSt6chrono8durationIlSt5ratioILl1ELl1000000000EEE5countEv
FN:537,_ZNKSt6chrono8durationIlSt5ratioILl1ELl1000EEE5countEv
FNDA:260,_ZNKSt6chrono8durationIlSt5ratioILl1ELl1000EEE5countEv
FN:537,_ZNKSt6chrono8durationIlSt5ratioILl1ELl1EEE5countEv
FNDA:318,_ZNKSt6chrono8durationIlSt5ratioILl1ELl1EEE5countEv
FN:623,_ZNSt6chrono8durationIlSt5ratioILl1ELl1EEE4zeroEv
FNDA:31,_ZNSt6chrono8durationIlSt5ratioILl1ELl1EEE4zeroEv
FN:623,_ZNSt6chrono8durationIlSt5ratioILl1ELl1000EEE4zeroEv
FNDA:19,_ZNSt6chrono8durationIlSt5ratioILl1ELl1000EEE4zeroEv
FN:660,_ZNSt6chronomiIlSt5ratioILl1ELl1EElS2_EENSt11common_typeIJNS_8durationIT_T0_EENS4_IT1_T2_EEEE4typeERKS7_RKSA_
FNDA:31,_ZNSt6chronomiIlSt5ratioILl1ELl1EElS2_EENSt11common_typeIJNS_8durationIT_T0_EENS4_IT1_T2_EEEE4typeERKS7_RKSA_
FN:660,_ZNSt6chronomiIlSt5ratioILl1ELl1000000000EElS2_EENSt11common_typeIJNS_8durationIT_T0_EENS4_IT1_T2_EEEE4typeERKS7_RKSA_
FNDA:20,_ZNSt6chronomiIlSt5ratioILl1ELl1000000000EElS2_EENSt11common_typeIJNS_8durationIT_T0_EENS4_IT1_T2_EEEE4typeERKS7_RKSA_
FN:660,_ZNSt6chronomiIlSt5ratioILl1ELl1000EElS1_ILl1ELl1EEEENSt11common_typeIJNS_8durationIT_T0_EENS5_IT1_T2_EEEE4typeERKS8_RKSB_
FNDA:19,_ZNSt6chronomiIlSt5ratioILl1ELl1000EElS1_ILl1ELl1EEEENSt11common_typeIJNS_8durationIT_T0_EENS5_IT1_T2_EEEE4typeERKS8_RKSB_
FN:772,_ZNSt6chronoltIlSt5ratioILl1ELl1EElS2_EEbRKNS_8durationIT_T0_EERKNS3_IT1_T2_EE
FNDA:31,_ZNSt6chronoltIlSt5ratioILl1ELl1EElS2_EEbRKNS_8durationIT_T0_EERKNS3_IT1_T2_EE
FN:772,_ZNSt6chronoltIlSt5ratioILl1ELl1000EElS2_EEbRKNS_8durationIT_T0_EERKNS3_IT1_T2_EE
FNDA:19,_ZNSt6chronoltIlSt5ratioILl1ELl1000EElS2_EEbRKNS_8durationIT_T0_EERKNS3_IT1_T2_EE
FN:805,_ZNSt6chronoleIlSt5ratioILl1ELl1EElS2_EEbRKNS_8durationIT_T0_EERKNS3_IT1_T2_EE
FNDA:31,_ZNSt6chronoleIlSt5ratioILl1ELl1EElS2_EEbRKNS_8durationIT_T0_EERKNS3_IT1_T2_EE
FN:805,_ZNSt6chronoleIlSt5ratioILl1ELl1000EElS2_EEbRKNS_8durationIT_T0_EERKNS3_IT1_T2_EE
FNDA:19,_ZNSt6chronoleIlSt5ratioILl1ELl1000EElS2_EEbRKNS_8durationIT_T0_EERKNS3_IT1_T2_EE
FN:898,_ZNKSt6chrono10time_pointINS_3_V212steady_clockENS_8durationIlSt5ratioILl1ELl1000000000EEEEE16time_since_epochEv
FNDA:147,_ZNKSt6chrono10time_pointINS_3_V212steady_clockENS_8durationIlSt5ratioILl1ELl1000000000EEEEE16time_since_epochEv
FN:1042,_ZNSt6chronomiINS_3_V212steady_clockENS_8durationIlSt5ratioILl1ELl1000000000EEEES6_EENSt11common_typeIJT0_T1_EE4typeERKNS_10time_pointIT_S8_EERKNSC_ISD_S9_EE
FNDA:20,_ZNSt6chronomiINS_3_V212steady_clockENS_8durationIlSt5ratioILl1ELl1000000000EEEES6_EENSt11common_typeIJT0_T1_EE4typeERKNS_10time_pointIT_S8_EERKNSC_ISD_S9_EE
DA:211,31
DA:214,31
DA:223,19
DA:226,38
DA:227,19
DA:223,49
DA:226,98
DA:227,49
DA:223,79
DA:226,158
DA:227,79
DA:236,19
DA:239,38
DA:240,19
DA:236,47
DA:239,94
DA:240,47
DA:236,45
DA:239,90
DA:240,45
DA:267,19
DA:276,19
DA:267,47
DA:276,47
DA:267,19
DA:276,19
DA:267,45
DA:276,45
DA:267,31
DA:276,31
DA:267,49
DA:276,49
DA:267,79
DA:276,79
DA:432,50
DA:433,50
DA:521,156
DA:522,156
DA:521,16
DA:522,16
DA:521,31
DA:522,31
DA:521,161
DA:522,161
DA:521,154
DA:522,154
DA:529,19
DA:530,19
DA:537,318
DA:538,318
DA:537,260
DA:538,260
DA:537,387
DA:538,387
DA:623,19
DA:624,19
DA:623,31
DA:624,31
DA:660,19
DA:666,19
DA:660,31
DA:666,31
DA:660,20
DA:666,20
DA:772,19
DA:778,19
DA:772,31
DA:778,31
DA:805,19
DA:807,19
DA:805,31
DA:807,31
DA:898,147
DA:899,147
DA:1042,20
DA:1044,20
end_of_record
SF:/usr/include/c++/11/ext/new_allocator.h
FN:79,_ZN9__gnu_cxx13new_allocatorIcEC2Ev
FNDA:0,_ZN9__gnu_cxx13new_allocatorIcEC2Ev
FN:79,_ZN9__gnu_cxx13new_allocatorINSt7__cxx1112basic_stringIcSt11char_traitsIcESaIcEEEEC2Ev
FNDA:18,_ZN9__gnu_cxx13new_allocatorINSt7__cxx1112basic_stringIcSt11char_traitsIcESaIcEEEEC2Ev
FN:79,_ZN9__gnu_cxx13new_allocatorI11EventRecordEC2Ev
FNDA:1,_ZN9__gnu_cxx13new_allocatorI11EventRecordEC2Ev
FN:82,_ZN9__gnu_cxx13new_allocatorINSt7__cxx1112basic_stringIcSt11char_traitsIcESaIcEEEEC2ERKS7_
FNDA:0,_ZN9__gnu_cxx13new_allocatorINSt7__cxx1112basic_stringIcSt11char_traitsIcESaIcEEEEC2ERKS7_
FN:82,_ZN9__gnu_cxx13new_allocatorIcEC2ERKS1_
FNDA:0,_ZN9__gnu_cxx13new_allocatorIcEC2ERKS1_
FN:89,_ZN9__gnu_cxx13new_allocatorIcED2Ev
FNDA:0,_ZN9__gnu_cxx13new_allocatorIcED2Ev
FN:89,_ZN9__gnu_cxx13new_allocatorI11EventRecordED2Ev
FNDA:1,_ZN9__gnu_cxx13new_allocatorI11EventRecordED2Ev
FN:89,_ZN9__gnu_cxx13new_allocatorINSt7__cxx1112basic_stringIcSt11char_traitsIcESaIcEEEED2Ev
FNDA:18,_ZN9__gnu_cxx13new_allocatorINSt7__cxx1112basic_stringIcSt11char_traitsIcESaIcEEEED2Ev
FN:103,_ZN9__gnu_cxx13new_allocatorI11EventRecordE8allocateEmPKv
FNDA:3,_ZN9__gnu_cxx13new_allocatorI11EventRecordE8allocateEmPKv
FN:103,_ZN9__gnu_cxx13new_allocatorINSt7__cxx1112basic_stringIcSt11char_traitsIcESaIcEEEE8allocateEmPKv
FNDA:2,_ZN9__gnu_cxx13new_allocatorINSt7__cxx1112basic_stringIcSt11char_traitsIcESaIcEEEE8allocateEmPKv
FN:132,_ZN9__gnu_cxx13new_allocatorINSt7__cxx1112basic_stringIcSt11char_traitsIcESaIcEEEE10deallocateEPS6_m
FNDA:2,_ZN9__gnu_cxx13new_allocatorINSt7__cxx1112basic_stringIcSt11char_traitsIcESaIcEEEE10deallocateEPS6_m
FN:132,_ZN9__gnu_cxx13new_allocatorI11EventRecordE10deallocateEPS1_m
FNDA:3,_ZN9__gnu_cxx13new_allocatorI11EventRecordE10deallocateEPS1_m
FN:154,_ZNK9__gnu_cxx13new_allocatorINSt7__cxx1112basic_stringIcSt11char_traitsIcESaIcEEEE8max_sizeEv
FNDA:4,_ZNK9__gnu_cxx13new_allocatorINSt7__cxx1112basic_stringIcSt11char_traitsIcESaIcEEEE8max_sizeEv
FN:154,_ZNK9__gnu_cxx13new_allocatorI11EventRecordE8max_sizeEv
FNDA:6,_ZNK9__gnu_cxx13new_allocatorI11EventRecordE8max_sizeEv
FN:160,_ZN9__gnu_cxx13new_allocatorI11EventRecordE9constructIS1_JS1_EEEvPT_DpOT0_
FNDA:6,_ZN9__gnu_cxx13new_allocatorI11EventRecordE9constructIS1_JS1_EEEvPT_DpOT0_
FN:166,_ZN9__gnu_cxx13new_allocatorI11EventRecordE7destroyIS1_EEvPT_
FNDA:3,_ZN9__gnu_cxx13new_allocatorI11EventRecordE7destroyIS1_EEvPT_
FN:197,_ZNK9__gnu_cxx13new_allocatorINSt7__cxx1112basic_stringIcSt11char_traitsIcESaIcEEEE11_M_max_sizeEv
FNDA:6,_ZNK9__gnu_cxx13new_allocatorINSt7__cxx1112basic_stringIcSt11char_traitsIcESaIcEEEE11_M_max_sizeEv
FN:197,_ZNK9__gnu_cxx13new_allocatorI11EventRecordE11_M_max_sizeEv
FNDA:9,_ZNK9__gnu_cxx13new_allocatorI11EventRecordE11_M_max_sizeEv
DA:79,1
DA:79,18
DA:79,0
DA:82,0
DA:82,0
DA:89,18
DA:89,1
DA:89,0
DA:103,3
DA:111,3
DA:115,0
DA:116,0
DA:117,0
DA:127,3
DA:103,2
DA:111,2
DA:115,0
DA:116,0
DA:117,0
DA:127,2
DA:132,2
DA:145,2
DA:150,2
DA:132,3
DA:145,3
DA:150,3
DA:154,6
DA:155,6
DA:154,4
DA:155,4
DA:160,6
DA:162,6
DA:166,3
DA:168,3
DA:197,9
DA:200,9
DA:197,6
DA:200,6
end_of_record
SF:/usr/include/c++/11/bits/stl_uninitialized.h
FN:85,_ZNSt20__uninitialized_copyILb0EE13__uninit_copyISt13move_iteratorIP11EventRecordES4_EET0_T_S7_S6_
FNDA:0,_ZNSt20__uninitialized_copyILb0EE13__uninit_copyISt13move_iteratorIP11EventRecordES4_EET0_T_S7_S6_
FN:85,_ZNSt20__uninitialized_copyILb0EE13__uninit_copyIPKNSt7__cxx1112basic_stringIcSt11char_traitsIcESaIcEEEPS7_EET0_T_SC_SB_
FNDA:0,_ZNSt20__uninitialized_copyILb0EE13__uninit_copyIPKNSt7__cxx1112basic_stringIcSt11char_traitsIcESaIcEEEPS7_EET0_T_SC_SB_
FN:126,_ZSt18uninitialized_copyISt13move_iteratorIP11EventRecordES2_ET0_T_S5_S4_
FNDA:0,_ZSt18uninitialized_copyISt13move_iteratorIP11EventRecordES2_ET0_T_S5_S4_
FN:126,_ZSt18uninitialized_copyIPKNSt7__cxx1112basic_stringIcSt11char_traitsIcESaIcEEEPS5_ET0_T_SA_S9_
FNDA:0,_ZSt18uninitialized_copyIPKNSt7__cxx1112basic_stringIcSt11char_traitsIcESaIcEEEPS5_ET0_T_SA_S9_
FN:331,_ZSt22__uninitialized_copy_aISt13move_iteratorIP11EventRecordES2_S1_ET0_T_S5_S4_RSaIT1_E
FNDA:0,_ZSt22__uninitialized_copy_aISt13move_iteratorIP11EventRecordES2_S1_ET0_T_S5_S4_RSaIT1_E
FN:331,_ZSt22__uninitialized_copy_aIPKNSt7__cxx1112basic_stringIcSt11char_traitsIcESaIcEEEPS5_S5_ET0_T_SA_S9_RSaIT1_E
FNDA:0,_ZSt22__uninitialized_copy_aIPKNSt7__cxx1112basic_stringIcSt11char_traitsIcESaIcEEEPS5_S5_ET0_T_SA_S9_RSaIT1_E
FN:349,_ZSt34__uninitialized_move_if_noexcept_aIP11EventRecordS1_SaIS0_EET0_T_S4_S3_RT1_
FNDA:0,_ZSt34__uninitialized_move_if_noexcept_aIP11EventRecordS1_SaIS0_EET0_T_S4_S3_RT1_
FN:986,_ZSt19__relocate_object_aI11EventRecordS0_SaIS0_EEvPT_PT0_RT1_
FNDA:3,_ZSt19__relocate_object_aI11EventRecordS0_SaIS0_EEvPT_PT0_RT1_
FN:1018,_ZSt14__relocate_a_1IP11EventRecordS1_SaIS0_EET0_T_S4_S3_RT1_
FNDA:6,_ZSt14__relocate_a_1IP11EventRecordS1_SaIS0_EET0_T_S4_S3_RT1_
FN:1040,_ZSt12__relocate_aIP11EventRecordS1_SaIS0_EET0_T_S4_S3_RT1_
FNDA:6,_ZSt12__relocate_aIP11EventRecordS1_SaIS0_EET0_T_S4_S3_RT1_
DA:85,0
DA:88,0
DA:91,0
DA:92,0
DA:93,0
DA:95,0
DA:97,0
DA:98,0
DA:85,0
DA:88,0
DA:91,0
DA:92,0
DA:93,0
DA:95,0
DA:97,0
DA:98,0
DA:126,0
DA:145,0
DA:151,0
DA:126,0
DA:145,0
DA:151,0
DA:331,0
DA:333,0
DA:331,0
DA:333,0
DA:349,0
DA:355,0
DA:356,0
DA:986,3
DA:994,3
DA:995,3
DA:996,3
DA:1018,6
DA:1030,6
DA:1031,9
DA:1032,3
DA:1034,6
DA:1040,6
DA:1046,6
DA:1048,6
end_of_record
SF:/usr/include/c++/11/bits/basic_string.h
FN:251,_ZNSt7__cxx1112basic_stringIcSt11char_traitsIcESaIcEE16_M_construct_auxIPcEEvT_S7_St12__false_type
FNDA:0,_ZNSt7__cxx1112basic_stringIcSt11char_traitsIcESaIcEE16_M_construct_auxIPcEEvT_S7_St12__false_type
FN:271,_ZNSt7__cxx1112basic_stringIcSt11char_traitsIcESaIcEE12_M_constructIPcEEvT_S7_
FNDA:0,_ZNSt7__cxx1112basic_stringIcSt11char_traitsIcESaIcEE12_M_constructIPcEEvT_S7_
FN:6132,_ZStplIcSt11char_traitsIcESaIcEENSt7__cxx1112basic_stringIT_T0_T1_EERKS8_PKS5_
FNDA:4,_ZStplIcSt11char_traitsIcESaIcEENSt7__cxx1112basic_stringIT_T0_T1_EERKS8_PKS5_
FN:6160,_ZStplIcSt11char_traitsIcESaIcEENSt7__cxx1112basic_stringIT_T0_T1_EEOS8_RKS8_
FNDA:12,_ZStplIcSt11char_traitsIcESaIcEENSt7__cxx1112basic_stringIT_T0_T1_EEOS8_RKS8_
FN:6172,_ZStplIcSt11char_traitsIcESaIcEENSt7__cxx1112basic_stringIT_T0_T1_EEOS8_S9_
FNDA:10,_ZStplIcSt11char_traitsIcESaIcEENSt7__cxx1112basic_stringIT_T0_T1_EEOS8_S9_
FN:6206,_ZStplIcSt11char_traitsIcESaIcEENSt7__cxx1112basic_stringIT_T0_T1_EEOS8_PKS5_
FNDA:14,_ZStplIcSt11char_traitsIcESaIcEENSt7__cxx1112basic_stringIT_T0_T1_EEOS8_PKS5_
FN:6248,_ZSteqIcSt11char_traitsIcESaIcEEbRKNSt7__cxx1112basic_stringIT_T0_T1_EEPKS5_
FNDA:1,_ZSteqIcSt11char_traitsIcESaIcEEbRKNSt7__cxx1112basic_stringIT_T0_T1_EEPKS5_
DA:251,0
DA:255,0
DA:256,0
DA:271,0
DA:274,0
DA:275,0
DA:6132,4
DA:6135,4
DA:6136,4
DA:6137,4
DA:6138,0
DA:6160,12
DA:6162,12
DA:6172,10
DA:6177,10
DA:6178,10
DA:6179,10
DA:6180,0
DA:6181,0
DA:6182,10
DA:6185,10
DA:6186,10
DA:6187,0
DA:6189,10
DA:6206,14
DA:6208,14
DA:6248,1
DA:6250,1
end_of_record
SF:/usr/include/c++/11/bits/allocator.h
FN:156,_ZNSaI11EventRecordEC2Ev
FNDA:1,_ZNSaI11EventRecordEC2Ev
FN:156,_ZNSaINSt7__cxx1112basic_stringIcSt11char_traitsIcESaIcEEEEC2Ev
FNDA:18,_ZNSaINSt7__cxx1112basic_stringIcSt11char_traitsIcESaIcEEEEC2Ev
FN:159,_ZNSaINSt7__cxx1112basic_stringIcSt11char_traitsIcESaIcEEEEC2ERKS5_
FNDA:0,_ZNSaINSt7__cxx1112basic_stringIcSt11char_traitsIcESaIcEEEEC2ERKS5_
FN:174,_ZNSaINSt7__cxx1112basic_stringIcSt11char_traitsIcESaIcEEEED2Ev
FNDA:18,_ZNSaINSt7__cxx1112basic_stringIcSt11char_traitsIcESaIcEEEED2Ev
FN:174,_ZNSaI11EventRecordED2Ev
FNDA:1,_ZNSaI11EventRecordED2Ev
FN:204,_ZSteqRKSaIcES1_
FNDA:0,_ZSteqRKSaIcES1_
DA:156,1
DA:156,18
DA:159,0
DA:160,0
DA:174,18
DA:174,1
DA:204,0
DA:205,0
end_of_record
SF:/usr/include/c++/11/ext/atomicity.h
DA:52,6
DA:66,3
DA:84,3
DA:85,3
DA:86,3
DA:98,6
DA:99,3
DA:101,3
end_of_record
SF:/usr/include/c++/11/bits/stl_iterator.h
FN:1027,_ZN9__gnu_cxx17__normal_iteratorIP11EventRecordSt6vectorIS1_SaIS1_EEEC2ERKS2_
FNDA:12,_ZN9__gnu_cxx17__normal_iteratorIP11EventRecordSt6vectorIS1_SaIS1_EEEC2ERKS2_
FN:1042,_ZNK9__gnu_cxx17__normal_iteratorIP11EventRecordSt6vectorIS1_SaIS1_EEEdeEv
FNDA:3,_ZNK9__gnu_cxx17__normal_iteratorIP11EventRecordSt6vectorIS1_SaIS1_EEEdeEv
FN:1100,_ZNK9__gnu_cxx17__normal_iteratorIP11EventRecordSt6vectorIS1_SaIS1_EEEmiEl
FNDA:3,_ZNK9__gnu_cxx17__normal_iteratorIP11EventRecordSt6vectorIS1_SaIS1_EEEmiEl
FN:1105,_ZNK9__gnu_cxx17__normal_iteratorIP11EventRecordSt6vectorIS1_SaIS1_EEE4baseEv
FNDA:12,_ZNK9__gnu_cxx17__normal_iteratorIP11EventRecordSt6vectorIS1_SaIS1_EEE4baseEv
FN:1268,_ZN9__gnu_cxxmiIP11EventRecordSt6vectorIS1_SaIS1_EEEENS_17__normal_iteratorIT_T0_E15difference_typeERKS9_SC_
FNDA:3,_ZN9__gnu_cxxmiIP11EventRecordSt6vectorIS1_SaIS1_EEEENS_17__normal_iteratorIT_T0_E15difference_typeERKS9_SC_
FN:1439,_ZNSt13move_iteratorIP11EventRecordEC2ES1_
FNDA:0,_ZNSt13move_iteratorIP11EventRecordEC2ES1_
FN:1464,_ZNKSt13move_iteratorIP11EventRecordE4baseEv
FNDA:0,_ZNKSt13move_iteratorIP11EventRecordE4baseEv
FN:1477,_ZNKSt13move_iteratorIP11EventRecordEdeEv
FNDA:0,_ZNKSt13move_iteratorIP11EventRecordEdeEv
FN:1489,_ZNSt13move_iteratorIP11EventRecordEppEv
FNDA:0,_ZNSt13move_iteratorIP11EventRecordEppEv
FN:1648,_ZSteqIP11EventRecordEbRKSt13move_iteratorIT_ES6_
FNDA:0,_ZSteqIP11EventRecordEbRKSt13move_iteratorIT_ES6_
FN:1661,_ZStneIP11EventRecordEbRKSt13move_iteratorIT_ES6_
FNDA:0,_ZStneIP11EventRecordEbRKSt13move_iteratorIT_ES6_
FN:1723,_ZSt32__make_move_if_noexcept_iteratorI11EventRecordSt13move_iteratorIPS0_EET0_PT_
FNDA:0,_ZSt32__make_move_if_noexcept_iteratorI11EventRecordSt13move_iteratorIPS0_EET0_PT_
DA:1027,12
DA:1028,12
DA:1042,3
DA:1043,3
DA:1100,3
DA:1101,3
DA:1105,12
DA:1106,12
DA:1268,3
DA:1271,3
DA:1439,0
DA:1440,0
DA:1464,0
DA:1465,0
DA:1477,0
DA:1481,0
DA:1489,0
DA:1491,0
DA:1492,0
DA:1648,0
DA:1650,0
DA:1661,0
DA:1663,0
DA:1723,0
DA:1724,0
end_of_record
SF:/usr/include/c++/11/initializer_list
FN:71,_ZNKSt16initializer_listINSt7__cxx1112basic_stringIcSt11char_traitsIcESaIcEEEE4sizeEv
FNDA:0,_ZNKSt16initializer_listINSt7__cxx1112basic_stringIcSt11char_traitsIcESaIcEEEE4sizeEv
FN:75,_ZNKSt16initializer_listINSt7__cxx1112basic_stringIcSt11char_traitsIcESaIcEEEE5beginEv
FNDA:0,_ZNKSt16initializer_listINSt7__cxx1112basic_stringIcSt11char_traitsIcESaIcEEEE5beginEv
FN:79,_ZNKSt16initializer_listINSt7__cxx1112basic_stringIcSt11char_traitsIcESaIcEEEE3endEv
FNDA:0,_ZNKSt16initializer_listINSt7__cxx1112basic_stringIcSt11char_traitsIcESaIcEEEE3endEv
DA:71,0
DA:75,0
DA:79,0
end_of_record
SF:/usr/include/c++/11/bits/invoke.h
FN:60,_ZSt13__invoke_implIvRZ4mainEUlRKNSt7__cxx1112basic_stringIcSt11char_traitsIcESaIcEEES7_PKhmE_JS7_S7_S9_mEET_St14__invoke_otherOT0_DpOT1_
FNDA:0,_ZSt13__invoke_implIvRZ4mainEUlRKNSt7__cxx1112basic_stringIcSt11char_traitsIcESaIcEEES7_PKhmE_JS7_S7_S9_mEET_St14__invoke_otherOT0_DpOT1_
FN:60,_ZSt13__invoke_implIvRPFvN5Nexus3rpc12ServiceEventERKNS1_17ServiceDescriptorEEJS2_S5_EET_St14__invoke_otherOT0_DpOT1_
FNDA:3,_ZSt13__invoke_implIvRPFvN5Nexus3rpc12ServiceEventERKNS1_17ServiceDescriptorEEJS2_S5_EET_St14__invoke_otherOT0_DpOT1_
FN:149,_ZSt10__invoke_rIvRZ4mainEUlRKNSt7__cxx1112basic_stringIcSt11char_traitsIcESaIcEEES7_PKhmE_JS7_S7_S9_mEENSt9enable_ifIXsrSt6__and_IJSt7is_voidIT_ESt14__is_invocableIT0_JDpT1_EEEE5valueESF_E4typeEOSI_DpOSJ_
FNDA:0,_ZSt10__invoke_rIvRZ4mainEUlRKNSt7__cxx1112basic_stringIcSt11char_traitsIcESaIcEEES7_PKhmE_JS7_S7_S9_mEENSt9enable_ifIXsrSt6__and_IJSt7is_voidIT_ESt14__is_invocableIT0_JDpT1_EEEE5valueESF_E4typeEOSI_DpOSJ_
FN:149,_ZSt10__invoke_rIvRPFvN5Nexus3rpc12ServiceEventERKNS1_17ServiceDescriptorEEJS2_S5_EENSt9enable_ifIXsrSt6__and_IJSt7is_voidIT_ESt14__is_invocableIT0_JDpT1_EEEE5valueESC_E4typeEOSF_DpOSG_
FNDA:3,_ZSt10__invoke_rIvRPFvN5Nexus3rpc12ServiceEventERKNS1_17ServiceDescriptorEEJS2_S5_EENSt9enable_ifIXsrSt6__and_IJSt7is_voidIT_ESt14__is_invocableIT0_JDpT1_EEEE5valueESC_E4typeEOSF_DpOSG_
DA:60,0
DA:61,0
DA:60,3
DA:61,3
DA:149,0
DA:154,0
DA:156,0
DA:149,3
DA:154,3
DA:156,3
end_of_record
SF:/usr/include/c++/11/bits/stl_vector.h
FN:97,_ZNSt12_Vector_baseI11EventRecordSaIS0_EE17_Vector_impl_dataC2Ev
FNDA:1,_ZNSt12_Vector_baseI11EventRecordSaIS0_EE17_Vector_impl_dataC2Ev
FN:97,_ZNSt12_Vector_baseINSt7__cxx1112basic_stringIcSt11char_traitsIcESaIcEEESaIS5_EE17_Vector_impl_dataC2Ev
FNDA:18,_ZNSt12_Vector_baseINSt7__cxx1112basic_stringIcSt11char_traitsIcESaIcEEESaIS5_EE17_Vector_impl_dataC2Ev
FN:131,_ZNSt12_Vector_baseI11EventRecordSaIS0_EE12_Vector_implC2Ev
FNDA:1,_ZNSt12_Vector_baseI11EventRecordSaIS0_EE12_Vector_implC2Ev
FN:136,_ZNSt12_Vector_baseINSt7__cxx1112basic_stringIcSt11char_traitsIcESaIcEEESaIS5_EE12_Vector_implC2ERKS6_
FNDA:0,_ZNSt12_Vector_baseINSt7__cxx1112basic_stringIcSt11char_traitsIcESaIcEEESaIS5_EE12_Vector_implC2ERKS6_
FN:276,_ZNSt12_Vector_baseINSt7__cxx1112basic_stringIcSt11char_traitsIcESaIcEEESaIS5_EE19_M_get_Tp_allocatorEv
FNDA:22,_ZNSt12_Vector_baseINSt7__cxx1112basic_stringIcSt11char_traitsIcESaIcEEESaIS5_EE19_M_get_Tp_allocatorEv
FN:276,_ZNSt12_Vector_baseI11EventRecordSaIS0_EE19_M_get_Tp_allocatorEv
FNDA:7,_ZNSt12_Vector_baseI11EventRecordSaIS0_EE19_M_get_Tp_allocatorEv
FN:280,_ZNKSt12_Vector_baseI11EventRecordSaIS0_EE19_M_get_Tp_allocatorEv
FNDA:6,_ZNKSt12_Vector_baseI11EventRecordSaIS0_EE19_M_get_Tp_allocatorEv
FN:288,_ZNSt12_Vector_baseI11EventRecordSaIS0_EEC2Ev
FNDA:1,_ZNSt12_Vector_baseI11EventRecordSaIS0_EEC2Ev
FN:293,_ZNSt12_Vector_baseINSt7__cxx1112basic_stringIcSt11char_traitsIcESaIcEEESaIS5_EEC2ERKS6_
FNDA:0,_ZNSt12_Vector_baseINSt7__cxx1112basic_stringIcSt11char_traitsIcESaIcEEESaIS5_EEC2ERKS6_
FN:333,_ZNSt12_Vector_baseI11EventRecordSaIS0_EED2Ev
FNDA:1,_ZNSt12_Vector_baseI11EventRecordSaIS0_EED2Ev
FN:333,_ZNSt12_Vector_baseINSt7__cxx1112basic_stringIcSt11char_traitsIcESaIcEEESaIS5_EED2Ev
FNDA:18,_ZNSt12_Vector_baseINSt7__cxx1112basic_stringIcSt11char_traitsIcESaIcEEESaIS5_EED2Ev
FN:343,_ZNSt12_Vector_baseI11EventRecordSaIS0_EE11_M_allocateEm
FNDA:3,_ZNSt12_Vector_baseI11EventRecordSaIS0_EE11_M_allocateEm
FN:343,_ZNSt12_Vector_baseINSt7__cxx1112basic_stringIcSt11char_traitsIcESaIcEEESaIS5_EE11_M_allocateEm
FNDA:2,_ZNSt12_Vector_baseINSt7__cxx1112basic_stringIcSt11char_traitsIcESaIcEEESaIS5_EE11_M_allocateEm
FN:350,_ZNSt12_Vector_baseINSt7__cxx1112basic_stringIcSt11char_traitsIcESaIcEEESaIS5_EE13_M_deallocateEPS5_m
FNDA:20,_ZNSt12_Vector_baseINSt7__cxx1112basic_stringIcSt11char_traitsIcESaIcEEESaIS5_EE13_M_deallocateEPS5_m
FN:350,_ZNSt12_Vector_baseI11EventRecordSaIS0_EE13_M_deallocateEPS0_m
FNDA:4,_ZNSt12_Vector_baseI11EventRecordSaIS0_EE13_M_deallocateEPS0_m
FN:431,_ZNSt6vectorI11EventRecordSaIS0_EE19_S_nothrow_relocateESt17integral_constantIbLb1EE
FNDA:6,_ZNSt6vectorI11EventRecordSaIS0_EE19_S_nothrow_relocateESt17integral_constantIbLb1EE
FN:444,_ZNSt6vectorI11EventRecordSaIS0_EE15_S_use_relocateEv
FNDA:6,_ZNSt6vectorI11EventRecordSaIS0_EE15_S_use_relocateEv
FN:453,_ZNSt6vectorI11EventRecordSaIS0_EE14_S_do_relocateEPS0_S3_S3_RS1_St17integral_constantIbLb1EE
FNDA:6,_ZNSt6vectorI11EventRecordSaIS0_EE14_S_do_relocateEPS0_S3_S3_RS1_St17integral_constantIbLb1EE
FN:465,_ZNSt6vectorI11EventRecordSaIS0_EE11_S_relocateEPS0_S3_S3_RS1_
FNDA:6,_ZNSt6vectorI11EventRecordSaIS0_EE11_S_relocateEPS0_S3_S3_RS1_
FN:487,_ZNSt6vectorI11EventRecordSaIS0_EEC2Ev
FNDA:1,_ZNSt6vectorI11EventRecordSaIS0_EEC2Ev
FN:625,_ZNSt6vectorINSt7__cxx1112basic_stringIcSt11char_traitsIcESaIcEEESaIS5_EEC2ESt16initializer_listIS5_ERKS6_
FNDA:0,_ZNSt6vectorINSt7__cxx1112basic_stringIcSt11char_traitsIcESaIcEEESaIS5_EEC2ESt16initializer_listIS5_ERKS6_
FN:678,_ZNSt6vectorI11EventRecordSaIS0_EED2Ev
FNDA:1,_ZNSt6vectorI11EventRecordSaIS0_EED2Ev
FN:678,_ZNSt6vectorINSt7__cxx1112basic_stringIcSt11char_traitsIcESaIcEEESaIS5_EED2Ev
FNDA:18,_ZNSt6vectorINSt7__cxx1112basic_stringIcSt11char_traitsIcESaIcEEESaIS5_EED2Ev
FN:811,_ZNSt6vectorI11EventRecordSaIS0_EE5beginEv
FNDA:3,_ZNSt6vectorI11EventRecordSaIS0_EE5beginEv
FN:829,_ZNSt6vectorI11EventRecordSaIS0_EE3endEv
FNDA:6,_ZNSt6vectorI11EventRecordSaIS0_EE3endEv
FN:918,_ZNKSt6vectorI11EventRecordSaIS0_EE4sizeEv
FNDA:19,_ZNKSt6vectorI11EventRecordSaIS0_EE4sizeEv
FN:923,_ZNKSt6vectorI11EventRecordSaIS0_EE8max_sizeEv
FNDA:6,_ZNKSt6vectorI11EventRecordSaIS0_EE8max_sizeEv
FN:1043,_ZNSt6vectorI11EventRecordSaIS0_EEixEm
FNDA:3,_ZNSt6vectorI11EventRecordSaIS0_EEixEm
FN:1143,_ZNSt6vectorI11EventRecordSaIS0_EE4backEv
FNDA:3,_ZNSt6vectorI11EventRecordSaIS0_EE4backEv
FN:1203,_ZNSt6vectorI11EventRecordSaIS0_EE9push_backEOS0_
FNDA:3,_ZNSt6vectorI11EventRecordSaIS0_EE9push_backEOS0_
FN:1577,_ZNSt6vectorINSt7__cxx1112basic_stringIcSt11char_traitsIcESaIcEEESaIS5_EE19_M_range_initializeIPKS5_EEvT_SB_St20forward_iterator_tag
FNDA:0,_ZNSt6vectorINSt7__cxx1112basic_stringIcSt11char_traitsIcESaIcEEESaIS5_EE19_M_range_initializeIPKS5_EEvT_SB_St20forward_iterator_tag
FN:1756,_ZNKSt6vectorI11EventRecordSaIS0_EE12_M_check_lenEmPKc
FNDA:3,_ZNKSt6vectorI11EventRecordSaIS0_EE12_M_check_lenEmPKc
FN:1767,_ZNSt6vectorINSt7__cxx1112basic_stringIcSt11char_traitsIcESaIcEEESaIS5_EE17_S_check_init_lenEmRKS6_
FNDA:0,_ZNSt6vectorINSt7__cxx1112basic_stringIcSt11char_traitsIcESaIcEEESaIS5_EE17_S_check_init_lenEmRKS6_
FN:1776,_ZNSt6vectorI11EventRecordSaIS0_EE11_S_max_sizeERKS1_
FNDA:6,_ZNSt6vectorI11EventRecordSaIS0_EE11_S_max_sizeERKS1_
FN:1776,_ZNSt6vectorINSt7__cxx1112basic_stringIcSt11char_traitsIcESaIcEEESaIS5_EE11_S_max_sizeERKS6_
FNDA:4,_ZNSt6vectorINSt7__cxx1112basic_stringIcSt11char_traitsIcESaIcEEESaIS5_EE11_S_max_sizeERKS6_
DA:97,18
DA:98,18
DA:99,18
DA:97,1
DA:98,1
DA:99,1
DA:131,1
DA:133,1
DA:134,1
DA:136,0
DA:137,0
DA:138,0
DA:276,7
DA:277,7
DA:276,22
DA:277,22
DA:280,6
DA:281,6
DA:288,1
DA:293,0
DA:294,0
DA:333,18
DA:335,18
DA:336,18
DA:337,18
DA:333,1
DA:335,1
DA:336,1
DA:337,1
DA:343,3
DA:346,3
DA:343,2
DA:346,2
DA:350,20
DA:353,20
DA:354,2
DA:355,20
DA:350,4
DA:353,4
DA:354,3
DA:355,4
DA:431,6
DA:436,6
DA:444,6
DA:449,6
DA:453,6
DA:456,6
DA:465,6
DA:469,6
DA:487,1
DA:625,0
DA:627,0
DA:629,0
DA:630,0
DA:631,0
DA:678,1
DA:680,1
DA:681,1
DA:683,1
DA:678,18
DA:680,18
DA:681,18
DA:683,18
DA:811,3
DA:812,3
DA:829,6
DA:830,6
DA:918,19
DA:919,19
DA:923,6
DA:924,6
DA:1043,3
DA:1046,3
DA:1143,3
DA:1146,3
DA:1203,3
DA:1204,3
DA:1577,0
DA:1580,0
DA:1582,0
DA:1583,0
DA:1584,0
DA:1585,0
DA:1587,0
DA:1588,0
DA:1756,3
DA:1758,3
DA:1759,0
DA:1761,3
DA:1762,3
DA:1767,0
DA:1769,0
DA:1770,0
DA:1772,0
DA:1776,6
DA:1781,6
DA:1783,6
DA:1784,6
DA:1776,4
DA:1781,4
DA:1783,4
DA:1784,4
end_of_record
SF:/usr/include/c++/11/bits/this_thread_sleep.h
FN:70,_ZNSt11this_thread9sleep_forIlSt5ratioILl1ELl1000EEEEvRKNSt6chrono8durationIT_T0_EE
FNDA:19,_ZNSt11this_thread9sleep_forIlSt5ratioILl1ELl1000EEEEvRKNSt6chrono8durationIT_T0_EE
FN:70,_ZNSt11this_thread9sleep_forIlSt5ratioILl1ELl1EEEEvRKNSt6chrono8durationIT_T0_EE
FNDA:31,_ZNSt11this_thread9sleep_forIlSt5ratioILl1ELl1EEEEvRKNSt6chrono8durationIT_T0_EE
DA:70,19
DA:72,19
DA:73,0
DA:74,19
DA:75,19
DA:77,38
DA:79,19
DA:80,19
DA:82,19
DA:70,31
DA:72,31
DA:73,0
DA:74,31
DA:75,31
DA:77,62
DA:79,31
DA:80,31
DA:82,31
end_of_record
SF:/usr/include/c++/11/bits/vector.tcc
FN:109,_ZNSt6vectorI11EventRecordSaIS0_EE12emplace_backIJS0_EEEvDpOT_
FNDA:3,_ZNSt6vectorI11EventRecordSaIS0_EE12emplace_backIJS0_EEEvDpOT_
FN:426,_ZNSt6vectorI11EventRecordSaIS0_EE17_M_realloc_insertIJS0_EEEvN9__gnu_cxx17__normal_iteratorIPS0_S2_EEDpOT_
FNDA:3,_ZNSt6vectorI11EventRecordSaIS0_EE17_M_realloc_insertIJS0_EEEvN9__gnu_cxx17__normal_iteratorIPS0_S2_EEDpOT_
DA:109,3
DA:112,3
DA:115,0
DA:117,0
DA:121,3
DA:125,3
DA:426,3
DA:436,3
DA:437,3
DA:438,3
DA:439,3
DA:440,3
DA:441,3
DA:449,3
DA:450,3
DA:456,3
DA:459,3
DA:461,3
DA:462,3
DA:464,3
DA:466,3
DA:467,3
DA:474,0
DA:475,0
DA:477,0
DA:481,0
DA:482,0
DA:485,0
DA:487,0
DA:488,0
DA:489,0
DA:491,0
DA:492,0
DA:493,0
DA:496,3
DA:498,0
DA:500,3
DA:501,3
DA:502,3
DA:503,3
DA:504,3
DA:505,3
end_of_record
SF:/usr/include/c++/11/new
FN:174,_ZnwmPv
FNDA:95,_ZnwmPv
FN:180,_ZdlPvS_
FNDA:0,_ZdlPvS_
DA:174,95
DA:175,95
DA:180,0
end_of_record
SF:/usr/include/c++/11/bits/shared_ptr.h
end_of_record
SF:/usr/include/c++/11/bits/basic_string.tcc
FN:206,_ZNSt7__cxx1112basic_stringIcSt11char_traitsIcESaIcEE12_M_constructIPcEEvT_S7_St20forward_iterator_tag
FNDA:0,_ZNSt7__cxx1112basic_stringIcSt11char_traitsIcESaIcEE12_M_constructIPcEEvT_S7_St20forward_iterator_tag
FN:206,_ZNSt7__cxx1112basic_stringIcSt11char_traitsIcESaIcEE12_M_constructIPKcEEvT_S8_St20forward_iterator_tag
FNDA:0,_ZNSt7__cxx1112basic_stringIcSt11char_traitsIcESaIcEE12_M_constructIPKcEEvT_S8_St20forward_iterator_tag
FN:1169,_ZStplIcSt11char_traitsIcESaIcEENSt7__cxx1112basic_stringIT_T0_T1_EEPKS5_RKS8_
FNDA:12,_ZStplIcSt11char_traitsIcESaIcEENSt7__cxx1112basic_stringIT_T0_T1_EEPKS5_RKS8_
DA:206,0
DA:211,0
DA:212,0
DA:215,0
DA:217,0
DA:219,0
DA:220,0
DA:225,0
DA:226,0
DA:228,0
DA:229,0
DA:232,0
DA:233,0
DA:206,0
DA:211,0
DA:212,0
DA:215,0
DA:217,0
DA:219,0
DA:220,0
DA:225,0
DA:226,0
DA:228,0
DA:229,0
DA:232,0
DA:233,0
DA:1169,12
DA:1178,12
DA:1179,24
DA:1181,12
DA:1182,12
DA:1183,12
DA:1184,12
DA:1185,0
end_of_record
SF:/usr/include/c++/11/ext/type_traits.h
FN:152,_ZN9__gnu_cxx17__is_null_pointerIcEEbPT_
FNDA:0,_ZN9__gnu_cxx17__is_null_pointerIcEEbPT_
FN:152,_ZN9__gnu_cxx17__is_null_pointerIKcEEbPT_
FNDA:0,_ZN9__gnu_cxx17__is_null_pointerIKcEEbPT_
DA:152,0
DA:153,0
DA:152,0
DA:153,0
end_of_record
SF:/usr/include/c++/11/type_traits
FN:70,_ZNKSt17integral_constantIbLb1EEcvbEv
FNDA:10,_ZNKSt17integral_constantIbLb1EEcvbEv
DA:70,10
end_of_record
SF:/usr/include/c++/11/bits/std_mutex.h
FN:98,_ZNSt5mutex4lockEv
FNDA:126,_ZNSt5mutex4lockEv
FN:115,_ZNSt5mutex6unlockEv
FNDA:125,_ZNSt5mutex6unlockEv
FN:228,_ZNSt10lock_guardISt5mutexEC2ERS0_
FNDA:104,_ZNSt10lock_guardISt5mutexEC2ERS0_
FN:234,_ZNSt10lock_guardISt5mutexED2Ev
FNDA:104,_ZNSt10lock_guardISt5mutexED2Ev
DA:98,126
DA:100,126
DA:103,126
DA:104,0
DA:105,126
DA:115,125
DA:118,125
DA:119,126
DA:228,104
DA:229,104
DA:234,104
DA:235,104
end_of_record
SF:/usr/include/c++/11/iostream
end_of_record
SF:/usr/include/x86_64-linux-gnu/c++/11/bits/gthr-default.h
FN:300,_ZL18__gthread_active_pv
FNDA:251,_ZL18__gthread_active_pv
FN:746,_ZL20__gthread_mutex_lockP15pthread_mutex_t
FNDA:126,_ZL20__gthread_mutex_lockP15pthread_mutex_t
FN:776,_ZL22__gthread_mutex_unlockP15pthread_mutex_t
FNDA:125,_ZL22__gthread_mutex_unlockP15pthread_mutex_t
DA:300,251
DA:302,251
DA:746,126
DA:748,126
DA:749,126
DA:751,0
DA:776,125
DA:778,125
DA:779,126
DA:781,0
end_of_record
SF:/home/fz296w/workspace/Nexus/Nexus/tests/integration/test_heartbeat_timeout.cpp
FN:30,_ZNK11EventRecord8toStringB5cxx11Ev
FNDA:6,_ZNK11EventRecord8toStringB5cxx11Ev
FN:55,_Z11recordEventN5Nexus3rpc12ServiceEventERKNS0_17ServiceDescriptorE
FNDA:3,_Z11recordEventN5Nexus3rpc12ServiceEventERKNS0_17ServiceDescriptorE
FN:65,main
FNDA:1,main
FN:195,_ZZ4mainENKUlRKNSt7__cxx1112basic_stringIcSt11char_traitsIcESaIcEEES6_PKhmE_clES6_S6_S8_m
FNDA:0,_ZZ4mainENKUlRKNSt7__cxx1112basic_stringIcSt11char_traitsIcESaIcEEES6_PKhmE_clES6_S6_S8_m
DA:30,6
DA:31,6
DA:32,6
DA:33,2
DA:34,2
DA:35,2
DA:36,2
DA:37,2
DA:38,2
DA:39,2
DA:40,2
DA:41,2
DA:42,0
DA:43,0
DA:44,0
DA:46,12
DA:47,18
DA:55,3
DA:56,3
DA:57,3
DA:58,3
DA:60,3
DA:61,3
DA:62,3
DA:63,3
DA:65,1
DA:66,1
DA:67,0
DA:68,0
DA:71,1
DA:73,1
DA:74,1
DA:76,1
DA:79,2
DA:80,1
DA:82,1
DA:83,1
DA:92,1
DA:94,16
DA:95,15
DA:97,15
DA:98,30
DA:99,15
DA:103,1
DA:105,1
DA:106,1
DA:107,1
DA:108,1
DA:110,1
DA:111,1
DA:114,1
DA:115,4
DA:116,3
DA:117,3
DA:119,3
DA:120,1
DA:121,1
DA:123,3
DA:124,1
DA:125,1
DA:129,1
DA:130,2
DA:135,1
DA:136,1
DA:139,3
DA:140,1
DA:143,1
DA:145,1
DA:146,1
DA:147,1
DA:148,1
DA:150,1
DA:152,1
DA:153,0
DA:155,1
DA:156,2
DA:157,1
DA:159,1
DA:160,1
DA:162,0
DA:166,1
DA:167,1
DA:168,2
DA:171,1
DA:172,1
DA:173,1
DA:174,1
DA:176,0
DA:177,0
DA:180,1
DA:181,0
DA:184,0
DA:187,0
DA:189,0
DA:190,0
DA:193,0
DA:194,0
DA:195,0
DA:197,0
DA:199,0
DA:200,0
DA:203,0
DA:204,0
DA:206,0
DA:207,0
DA:208,0
DA:209,0
DA:213,1
end_of_record
SF:/usr/include/c++/11/ext/alloc_traits.h
FN:97,_ZN9__gnu_cxx14__alloc_traitsISaIcEcE17_S_select_on_copyERKS1_
FNDA:12,_ZN9__gnu_cxx14__alloc_traitsISaIcEcE17_S_select_on_copyERKS1_
DA:97,12
DA:98,12
end_of_record
SF:/usr/include/c++/11/bits/stl_iterator_base_funcs.h
FN:98,_ZSt10__distanceIPcENSt15iterator_traitsIT_E15difference_typeES2_S2_St26random_access_iterator_tag
FNDA:0,_ZSt10__distanceIPcENSt15iterator_traitsIT_E15difference_typeES2_S2_St26random_access_iterator_tag
FN:98,_ZSt10__distanceIPKNSt7__cxx1112basic_stringIcSt11char_traitsIcESaIcEEEENSt15iterator_traitsIT_E15difference_typeES9_S9_St26random_access_iterator_tag
FNDA:0,_ZSt10__distanceIPKNSt7__cxx1112basic_stringIcSt11char_traitsIcESaIcEEEENSt15iterator_traitsIT_E15difference_typeES9_S9_St26random_access_iterator_tag
FN:98,_ZSt10__distanceIPKcENSt15iterator_traitsIT_E15difference_typeES3_S3_St26random_access_iterator_tag
FNDA:0,_ZSt10__distanceIPKcENSt15iterator_traitsIT_E15difference_typeES3_S3_St26random_access_iterator_tag
FN:138,_ZSt8distanceIPcENSt15iterator_traitsIT_E15difference_typeES2_S2_
FNDA:0,_ZSt8distanceIPcENSt15iterator_traitsIT_E15difference_typeES2_S2_
FN:138,_ZSt8distanceIPKNSt7__cxx1112basic_stringIcSt11char_traitsIcESaIcEEEENSt15iterator_traitsIT_E15difference_typeES9_S9_
FNDA:0,_ZSt8distanceIPKNSt7__cxx1112basic_stringIcSt11char_traitsIcESaIcEEEENSt15iterator_traitsIT_E15difference_typeES9_S9_
FN:138,_ZSt8distanceIPKcENSt15iterator_traitsIT_E15difference_typeES3_S3_
FNDA:0,_ZSt8distanceIPKcENSt15iterator_traitsIT_E15difference_typeES3_S3_
DA:98,0
DA:104,0
DA:98,0
DA:104,0
DA:98,0
DA:104,0
DA:138,0
DA:141,0
DA:142,0
DA:138,0
DA:141,0
DA:142,0
DA:138,0
DA:141,0
DA:142,0
end_of_record
SF:/usr/include/c++/11/bits/std_function.h
FN:85,_ZNSt9_Any_data9_M_accessEv
FNDA:22,_ZNSt9_Any_data9_M_accessEv
FN:86,_ZNKSt9_Any_data9_M_accessEv
FNDA:16,_ZNKSt9_Any_data9_M_accessEv
FN:90,_ZNSt9_Any_data9_M_accessIPKSt9type_infoEERT_v
FNDA:0,_ZNSt9_Any_data9_M_accessIPKSt9type_infoEERT_v
FN:90,_ZNSt9_Any_data9_M_accessIZ4mainEUlRKNSt7__cxx1112basic_stringIcSt11char_traitsIcESaIcEEES8_PKhmE_EERT_v
FNDA:0,_ZNSt9_Any_data9_M_accessIZ4mainEUlRKNSt7__cxx1112basic_stringIcSt11char_traitsIcESaIcEEES8_PKhmE_EERT_v
FN:90,_ZNSt9_Any_data9_M_accessIPPFvN5Nexus3rpc12ServiceEventERKNS2_17ServiceDescriptorEEEERT_v
FNDA:0,_ZNSt9_Any_data9_M_accessIPPFvN5Nexus3rpc12ServiceEventERKNS2_17ServiceDescriptorEEEERT_v
FN:90,_ZNSt9_Any_data9_M_accessIPZ4mainEUlRKNSt7__cxx1112basic_stringIcSt11char_traitsIcESaIcEEES8_PKhmE_EERT_v
FNDA:0,_ZNSt9_Any_data9_M_accessIPZ4mainEUlRKNSt7__cxx1112basic_stringIcSt11char_traitsIcESaIcEEES8_PKhmE_EERT_v
FN:90,_ZNSt9_Any_data9_M_accessIPFvN5Nexus3rpc12ServiceEventERKNS2_17ServiceDescriptorEEEERT_v
FNDA:5,_ZNSt9_Any_data9_M_accessIPFvN5Nexus3rpc12ServiceEventERKNS2_17ServiceDescriptorEEEERT_v
FN:95,_ZNKSt9_Any_data9_M_accessIZ4mainEUlRKNSt7__cxx1112basic_stringIcSt11char_traitsIcESaIcEEES8_PKhmE_EERKT_v
FNDA:0,_ZNKSt9_Any_data9_M_accessIZ4mainEUlRKNSt7__cxx1112basic_stringIcSt11char_traitsIcESaIcEEES8_PKhmE_EERKT_v
FN:95,_ZNKSt9_Any_data9_M_accessIPFvN5Nexus3rpc12ServiceEventERKNS2_17ServiceDescriptorEEEERKT_v
FNDA:7,_ZNKSt9_Any_data9_M_accessIPFvN5Nexus3rpc12ServiceEventERKNS2_17ServiceDescriptorEEEERKT_v
FN:134,_ZNSt14_Function_base13_Base_managerIZ4mainEUlRKNSt7__cxx1112basic_stringIcSt11char_traitsIcESaIcEEES8_PKhmE_E14_M_get_pointerERKSt9_Any_data
FNDA:0,_ZNSt14_Function_base13_Base_managerIZ4mainEUlRKNSt7__cxx1112basic_stringIcSt11char_traitsIcESaIcEEES8_PKhmE_E14_M_get_pointerERKSt9_Any_data
FN:134,_ZNSt14_Function_base13_Base_managerIPFvN5Nexus3rpc12ServiceEventERKNS2_17ServiceDescriptorEEE14_M_get_pointerERKSt9_Any_data
FNDA:7,_ZNSt14_Function_base13_Base_managerIPFvN5Nexus3rpc12ServiceEventERKNS2_17ServiceDescriptorEEE14_M_get_pointerERKSt9_Any_data
FN:150,_ZNSt14_Function_base13_Base_managerIZ4mainEUlRKNSt7__cxx1112basic_stringIcSt11char_traitsIcESaIcEEES8_PKhmE_E9_M_createIRKSB_EEvRSt9_Any_dataOT_St17integral_constantIbLb1EE
FNDA:0,_ZNSt14_Function_base13_Base_managerIZ4mainEUlRKNSt7__cxx1112basic_stringIcSt11char_traitsIcESaIcEEES8_PKhmE_E9_M_createIRKSB_EEvRSt9_Any_dataOT_St17integral_constantIbLb1EE
FN:150,_ZNSt14_Function_base13_Base_managerIPFvN5Nexus3rpc12ServiceEventERKNS2_17ServiceDescriptorEEE9_M_createIRS7_EEvRSt9_Any_dataOT_St17integral_constantIbLb1EE
FNDA:1,_ZNSt14_Function_base13_Base_managerIPFvN5Nexus3rpc12ServiceEventERKNS2_17ServiceDescriptorEEE9_M_createIRS7_EEvRSt9_Any_dataOT_St17integral_constantIbLb1EE
FN:150,_ZNSt14_Function_base13_Base_managerIZ4mainEUlRKNSt7__cxx1112basic_stringIcSt11char_traitsIcESaIcEEES8_PKhmE_E9_M_createISB_EEvRSt9_Any_dataOT_St17integral_constantIbLb1EE
FNDA:0,_ZNSt14_Function_base13_Base_managerIZ4mainEUlRKNSt7__cxx1112basic_stringIcSt11char_traitsIcESaIcEEES8_PKhmE_E9_M_createISB_EEvRSt9_Any_dataOT_St17integral_constantIbLb1EE
FN:150,_ZNSt14_Function_base13_Base_managerIPFvN5Nexus3rpc12ServiceEventERKNS2_17ServiceDescriptorEEE9_M_createIRKS8_EEvRSt9_Any_dataOT_St17integral_constantIbLb1EE
FNDA:4,_ZNSt14_Function_base13_Base_managerIPFvN5Nexus3rpc12ServiceEventERKNS2_17ServiceDescriptorEEE9_M_createIRKS8_EEvRSt9_Any_dataOT_St17integral_constantIbLb1EE
FN:166,_ZNSt14_Function_base13_Base_managerIPFvN5Nexus3rpc12ServiceEventERKNS2_17ServiceDescriptorEEE10_M_destroyERSt9_Any_dataSt17integral_constantIbLb1EE
FNDA:5,_ZNSt14_Function_base13_Base_managerIPFvN5Nexus3rpc12ServiceEventERKNS2_17ServiceDescriptorEEE10_M_destroyERSt9_Any_dataSt17integral_constantIbLb1EE
FN:166,_ZNSt14_Function_base13_Base_managerIZ4mainEUlRKNSt7__cxx1112basic_stringIcSt11char_traitsIcESaIcEEES8_PKhmE_E10_M_destroyERSt9_Any_dataSt17integral_constantIbLb1EE
FNDA:0,_ZNSt14_Function_base13_Base_managerIZ4mainEUlRKNSt7__cxx1112basic_stringIcSt11char_traitsIcESaIcEEES8_PKhmE_E10_M_destroyERSt9_Any_dataSt17integral_constantIbLb1EE
FN:180,_ZNSt14_Function_base13_Base_managerIPFvN5Nexus3rpc12ServiceEventERKNS2_17ServiceDescriptorEEE10_M_managerERSt9_Any_dataRKSA_St18_Manager_operation
FNDA:9,_ZNSt14_Function_base13_Base_managerIPFvN5Nexus3rpc12ServiceEventERKNS2_17ServiceDescriptorEEE10_M_managerERSt9_Any_dataRKSA_St18_Manager_operation
FN:180,_ZNSt14_Function_base13_Base_managerIZ4mainEUlRKNSt7__cxx1112basic_stringIcSt11char_traitsIcESaIcEEES8_PKhmE_E10_M_managerERSt9_Any_dataRKSD_St18_Manager_operation
FNDA:0,_ZNSt14_Function_base13_Base_managerIZ4mainEUlRKNSt7__cxx1112basic_stringIcSt11char_traitsIcESaIcEEES8_PKhmE_E10_M_managerERSt9_Any_dataRKSD_St18_Manager_operation
FN:211,_ZNSt14_Function_base13_Base_managerIPFvN5Nexus3rpc12ServiceEventERKNS2_17ServiceDescriptorEEE15_M_init_functorIRKS8_EEvRSt9_Any_dataOT_
FNDA:4,_ZNSt14_Function_base13_Base_managerIPFvN5Nexus3rpc12ServiceEventERKNS2_17ServiceDescriptorEEE15_M_init_functorIRKS8_EEvRSt9_Any_dataOT_
FN:211,_ZNSt14_Function_base13_Base_managerIPFvN5Nexus3rpc12ServiceEventERKNS2_17ServiceDescriptorEEE15_M_init_functorIRS7_EEvRSt9_Any_dataOT_
FNDA:1,_ZNSt14_Function_base13_Base_managerIPFvN5Nexus3rpc12ServiceEventERKNS2_17ServiceDescriptorEEE15_M_init_functorIRS7_EEvRSt9_Any_dataOT_
FN:211,_ZNSt14_Function_base13_Base_managerIZ4mainEUlRKNSt7__cxx1112basic_stringIcSt11char_traitsIcESaIcEEES8_PKhmE_E15_M_init_functorISB_EEvRSt9_Any_dataOT_
FNDA:0,_ZNSt14_Function_base13_Base_managerIZ4mainEUlRKNSt7__cxx1112basic_stringIcSt11char_traitsIcESaIcEEES8_PKhmE_E15_M_init_functorISB_EEvRSt9_Any_dataOT_
FN:211,_ZNSt14_Function_base13_Base_managerIZ4mainEUlRKNSt7__cxx1112basic_stringIcSt11char_traitsIcESaIcEEES8_PKhmE_E15_M_init_functorIRKSB_EEvRSt9_Any_dataOT_
FNDA:0,_ZNSt14_Function_base13_Base_managerIZ4mainEUlRKNSt7__cxx1112basic_stringIcSt11char_traitsIcESaIcEEES8_PKhmE_E15_M_init_functorIRKSB_EEvRSt9_Any_dataOT_
FN:225,_ZNSt14_Function_base13_Base_managerIPFvN5Nexus3rpc12ServiceEventERKNS2_17ServiceDescriptorEEE21_M_not_empty_functionIS7_EEbPT_
FNDA:1,_ZNSt14_Function_base13_Base_managerIPFvN5Nexus3rpc12ServiceEventERKNS2_17ServiceDescriptorEEE21_M_not_empty_functionIS7_EEbPT_
FN:235,_ZNSt14_Function_base13_Base_managerIZ4mainEUlRKNSt7__cxx1112basic_stringIcSt11char_traitsIcESaIcEEES8_PKhmE_E21_M_not_empty_functionISB_EEbRKT_
FNDA:0,_ZNSt14_Function_base13_Base_managerIZ4mainEUlRKNSt7__cxx1112basic_stringIcSt11char_traitsIcESaIcEEES8_PKhmE_E21_M_not_empty_functionISB_EEbRKT_
FN:239,_ZNSt14_Function_baseC2Ev
FNDA:17,_ZNSt14_Function_baseC2Ev
FN:241,_ZNSt14_Function_baseD2Ev
FNDA:17,_ZNSt14_Function_baseD2Ev
FN:267,_ZNSt17_Function_handlerIFvN5Nexus3rpc12ServiceEventERKNS1_17ServiceDescriptorEEPS6_E10_M_managerERSt9_Any_dataRKS9_St18_Manager_operation
FNDA:9,_ZNSt17_Function_handlerIFvN5Nexus3rpc12ServiceEventERKNS1_17ServiceDescriptorEEPS6_E10_M_managerERSt9_Any_dataRKS9_St18_Manager_operation
FN:267,_ZNSt17_Function_handlerIFvRKNSt7__cxx1112basic_stringIcSt11char_traitsIcESaIcEEES7_PKhmEZ4mainEUlS7_S7_S9_mE_E10_M_managerERSt9_Any_dataRKSD_St18_Manager_operation
FNDA:0,_ZNSt17_Function_handlerIFvRKNSt7__cxx1112basic_stringIcSt11char_traitsIcESaIcEEES7_PKhmEZ4mainEUlS7_S7_S9_mE_E10_M_managerERSt9_Any_dataRKSD_St18_Manager_operation
FN:288,_ZNSt17_Function_handlerIFvN5Nexus3rpc12ServiceEventERKNS1_17ServiceDescriptorEEPS6_E9_M_invokeERKSt9_Any_dataOS2_S5_
FNDA:3,_ZNSt17_Function_handlerIFvN5Nexus3rpc12ServiceEventERKNS1_17ServiceDescriptorEEPS6_E9_M_invokeERKSt9_Any_dataOS2_S5_
FN:288,_ZNSt17_Function_handlerIFvRKNSt7__cxx1112basic_stringIcSt11char_traitsIcESaIcEEES7_PKhmEZ4mainEUlS7_S7_S9_mE_E9_M_invokeERKSt9_Any_dataS7_S7_OS9_Om
FNDA:0,_ZNSt17_Function_handlerIFvRKNSt7__cxx1112basic_stringIcSt11char_traitsIcESaIcEEES7_PKhmEZ4mainEUlS7_S7_S9_mE_E9_M_invokeERKSt9_Any_dataS7_S7_OS9_Om
FN:435,_ZNSt8functionIFvRKNSt7__cxx1112basic_stringIcSt11char_traitsIcESaIcEEES7_PKhmEEC2IZ4mainEUlS7_S7_S9_mE_vEEOT_
FNDA:0,_ZNSt8functionIFvRKNSt7__cxx1112basic_stringIcSt11char_traitsIcESaIcEEES7_PKhmEEC2IZ4mainEUlS7_S7_S9_mE_vEEOT_
FN:435,_ZNSt8functionIFvN5Nexus3rpc12ServiceEventERKNS1_17ServiceDescriptorEEEC2IRS6_vEEOT_
FNDA:1,_ZNSt8functionIFvN5Nexus3rpc12ServiceEventERKNS1_17ServiceDescriptorEEEC2IRS6_vEEOT_
DA:85,22
DA:86,16
DA:90,0
DA:91,0
DA:90,5
DA:91,5
DA:90,0
DA:91,0
DA:90,0
DA:91,0
DA:90,0
DA:91,0
DA:95,0
DA:96,0
DA:95,7
DA:96,7
DA:134,0
DA:138,0
DA:139,0
DA:134,7
DA:138,7
DA:139,7
DA:150,0
DA:152,0
DA:153,0
DA:150,4
DA:152,4
DA:153,4
DA:150,0
DA:152,0
DA:153,0
DA:150,1
DA:152,1
DA:153,1
DA:166,0
DA:168,0
DA:169,0
DA:166,5
DA:168,5
DA:169,5
DA:180,0
DA:183,0
DA:185,0
DA:187,0
DA:191,0
DA:193,0
DA:194,0
DA:195,0
DA:197,0
DA:198,0
DA:199,0
DA:200,0
DA:202,0
DA:203,0
DA:204,0
DA:206,0
DA:180,9
DA:183,9
DA:185,0
DA:187,0
DA:191,0
DA:193,0
DA:194,0
DA:195,0
DA:197,4
DA:198,4
DA:199,4
DA:200,4
DA:202,5
DA:203,5
DA:204,5
DA:206,9
DA:211,0
DA:215,0
DA:216,0
DA:211,4
DA:215,4
DA:216,4
DA:211,0
DA:215,0
DA:216,0
DA:211,1
DA:215,1
DA:216,1
DA:225,1
DA:226,1
DA:235,0
DA:236,0
DA:239,17
DA:241,17
DA:243,17
DA:244,10
DA:245,17
DA:267,0
DA:270,0
DA:273,0
DA:274,0
DA:275,0
DA:277,0
DA:278,0
DA:279,0
DA:281,0
DA:282,0
DA:284,0
DA:267,9
DA:270,9
DA:273,0
DA:274,0
DA:275,0
DA:277,0
DA:278,0
DA:279,0
DA:281,9
DA:282,9
DA:284,9
DA:288,0
DA:290,0
DA:291,0
DA:288,3
DA:290,3
DA:291,3
DA:435,0
DA:437,0
DA:447,0
DA:449,0
DA:451,0
DA:452,0
DA:454,0
DA:435,1
DA:437,1
DA:447,1
DA:449,1
DA:451,1
DA:452,1
DA:454,1
end_of_record
SF:/usr/include/c++/11/bits/stl_iterator_base_types.h
FN:238,_ZSt19__iterator_categoryIPcENSt15iterator_traitsIT_E17iterator_categoryERKS2_
FNDA:0,_ZSt19__iterator_categoryIPcENSt15iterator_traitsIT_E17iterator_categoryERKS2_
FN:238,_ZSt19__iterator_categoryIPKNSt7__cxx1112basic_stringIcSt11char_traitsIcESaIcEEEENSt15iterator_traitsIT_E17iterator_categoryERKS9_
FNDA:0,_ZSt19__iterator_categoryIPKNSt7__cxx1112basic_stringIcSt11char_traitsIcESaIcEEEENSt15iterator_traitsIT_E17iterator_categoryERKS9_
FN:238,_ZSt19__iterator_categoryIPKcENSt15iterator_traitsIT_E17iterator_categoryERKS3_
FNDA:0,_ZSt19__iterator_categoryIPKcENSt15iterator_traitsIT_E17iterator_categoryERKS3_
DA:238,0
DA:239,0
DA:238,0
DA:239,0
DA:238,0
DA:239,0
end_of_record
SF:/usr/include/c++/11/bits/stl_algobase.h
FN:230,_ZSt3minImERKT_S2_S2_
FNDA:136,_ZSt3minImERKT_S2_S2_
FN:254,_ZSt3maxImERKT_S2_S2_
FNDA:61,_ZSt3maxImERKT_S2_S2_
FN:313,_ZSt12__niter_baseIP11EventRecordET_S2_
FNDA:18,_ZSt12__niter_baseIP11EventRecordET_S2_
DA:230,136
DA:235,136
DA:236,0
DA:237,136
DA:254,61
DA:259,61
DA:260,46
DA:261,15
DA:313,18
DA:315,18
end_of_record
SF:/usr/include/c++/11/bits/stl_construct.h
FN:109,_ZSt10_ConstructI11EventRecordJS0_EEvPT_DpOT0_
FNDA:0,_ZSt10_ConstructI11EventRecordJS0_EEvPT_DpOT0_
FN:109,_ZSt10_ConstructINSt7__cxx1112basic_stringIcSt11char_traitsIcESaIcEEEJRKS5_EEvPT_DpOT0_
FNDA:0,_ZSt10_ConstructINSt7__cxx1112basic_stringIcSt11char_traitsIcESaIcEEEJRKS5_EEvPT_DpOT0_
FN:146,_ZSt8_DestroyI11EventRecordEvPT_
FNDA:3,_ZSt8_DestroyI11EventRecordEvPT_
FN:146,_ZSt8_DestroyINSt7__cxx1112basic_stringIcSt11char_traitsIcESaIcEEEEvPT_
FNDA:2,_ZSt8_DestroyINSt7__cxx1112basic_stringIcSt11char_traitsIcESaIcEEEEvPT_
FN:160,_ZNSt12_Destroy_auxILb0EE9__destroyIP11EventRecordEEvT_S4_
FNDA:1,_ZNSt12_Destroy_auxILb0EE9__destroyIP11EventRecordEEvT_S4_
FN:160,_ZNSt12_Destroy_auxILb0EE9__destroyIPNSt7__cxx1112basic_stringIcSt11char_traitsIcESaIcEEEEEvT_S9_
FNDA:18,_ZNSt12_Destroy_auxILb0EE9__destroyIPNSt7__cxx1112basic_stringIcSt11char_traitsIcESaIcEEEEEvT_S9_
FN:182,_ZSt8_DestroyIP11EventRecordEvT_S2_
FNDA:1,_ZSt8_DestroyIP11EventRecordEvT_S2_
FN:182,_ZSt8_DestroyIPNSt7__cxx1112basic_stringIcSt11char_traitsIcESaIcEEEEvT_S7_
FNDA:18,_ZSt8_DestroyIPNSt7__cxx1112basic_stringIcSt11char_traitsIcESaIcEEEEvT_S7_
DA:109,0
DA:119,0
DA:120,0
DA:109,0
DA:119,0
DA:120,0
DA:146,3
DA:151,3
DA:153,3
DA:146,2
DA:151,2
DA:153,2
DA:160,1
DA:162,4
DA:163,3
DA:164,1
DA:160,18
DA:162,20
DA:163,2
DA:164,18
DA:182,1
DA:196,1
DA:197,1
DA:182,18
DA:196,18
DA:197,18
end_of_record
SF:/usr/include/c++/11/bits/char_traits.h
FN:393,_ZNSt11char_traitsIcE6lengthEPKc
FNDA:32,_ZNSt11char_traitsIcE6lengthEPKc
FN:429,_ZNSt11char_traitsIcE4copyEPcPKcm
FNDA:0,_ZNSt11char_traitsIcE4copyEPcPKcm
DA:393,32
DA:399,32
DA:429,0
DA:431,0
DA:432,0
DA:437,0
end_of_record
SF:/home/fz296w/workspace/Nexus/Nexus/include/nexus/core/Node.h
FN:49,_ZNK5Nexus3rpc17ServiceDescriptor13getCapabilityB5cxx11Ev
FNDA:4,_ZNK5Nexus3rpc17ServiceDescriptor13getCapabilityB5cxx11Ev
DA:49,4
DA:50,4
DA:51,0
DA:53,8
end_of_record
SF:/usr/include/c++/11/bits/alloc_traits.h
FN:463,_ZNSt16allocator_traitsISaI11EventRecordEE8allocateERS1_m
FNDA:3,_ZNSt16allocator_traitsISaI11EventRecordEE8allocateERS1_m
FN:463,_ZNSt16allocator_traitsISaINSt7__cxx1112basic_stringIcSt11char_traitsIcESaIcEEEEE8allocateERS6_m
FNDA:2,_ZNSt16allocator_traitsISaINSt7__cxx1112basic_stringIcSt11char_traitsIcESaIcEEEEE8allocateERS6_m
FN:495,_ZNSt16allocator_traitsISaINSt7__cxx1112basic_stringIcSt11char_traitsIcESaIcEEEEE10deallocateERS6_PS5_m
FNDA:2,_ZNSt16allocator_traitsISaINSt7__cxx1112basic_stringIcSt11char_traitsIcESaIcEEEEE10deallocateERS6_PS5_m
FN:495,_ZNSt16allocator_traitsISaI11EventRecordEE10deallocateERS1_PS0_m
FNDA:3,_ZNSt16allocator_traitsISaI11EventRecordEE10deallocateERS1_PS0_m
FN:511,_ZNSt16allocator_traitsISaI11EventRecordEE9constructIS0_JS0_EEEvRS1_PT_DpOT0_
FNDA:6,_ZNSt16allocator_traitsISaI11EventRecordEE9constructIS0_JS0_EEEvRS1_PT_DpOT0_
FN:531,_ZNSt16allocator_traitsISaI11EventRecordEE7destroyIS0_EEvRS1_PT_
FNDA:3,_ZNSt16allocator_traitsISaI11EventRecordEE7destroyIS0_EEvRS1_PT_
FN:547,_ZNSt16allocator_traitsISaI11EventRecordEE8max_sizeERKS1_
FNDA:6,_ZNSt16allocator_traitsISaI11EventRecordEE8max_sizeERKS1_
FN:547,_ZNSt16allocator_traitsISaINSt7__cxx1112basic_stringIcSt11char_traitsIcESaIcEEEEE8max_sizeERKS6_
FNDA:4,_ZNSt16allocator_traitsISaINSt7__cxx1112basic_stringIcSt11char_traitsIcESaIcEEEEE8max_sizeERKS6_
FN:562,_ZNSt16allocator_traitsISaIcEE37select_on_container_copy_constructionERKS0_
FNDA:12,_ZNSt16allocator_traitsISaIcEE37select_on_container_copy_constructionERKS0_
FN:845,_ZSt8_DestroyIP11EventRecordS0_EvT_S2_RSaIT0_E
FNDA:1,_ZSt8_DestroyIP11EventRecordS0_EvT_S2_RSaIT0_E
FN:845,_ZSt8_DestroyIPNSt7__cxx1112basic_stringIcSt11char_traitsIcESaIcEEES5_EvT_S7_RSaIT0_E
FNDA:18,_ZSt8_DestroyIPNSt7__cxx1112basic_stringIcSt11char_traitsIcESaIcEEES5_EvT_S7_RSaIT0_E
DA:463,3
DA:464,3
DA:463,2
DA:464,2
DA:495,2
DA:496,2
DA:495,3
DA:496,3
DA:511,6
DA:516,6
DA:520,6
DA:531,3
DA:535,3
DA:539,3
DA:547,6
DA:550,6
DA:547,4
DA:550,4
DA:562,12
DA:563,12
DA:845,1
DA:848,1
DA:849,1
DA:845,18
DA:848,18
DA:849,18
end_of_record
SF:/usr/include/c++/11/bits/shared_ptr_base.h
FN:161,_ZNSt16_Sp_counted_baseILN9__gnu_cxx12_Lock_policyE2EE10_M_releaseEv
FNDA:5,_ZNSt16_Sp_counted_baseILN9__gnu_cxx12_Lock_policyE2EE10_M_releaseEv
FN:702,_ZNSt14__shared_countILN9__gnu_cxx12_Lock_policyE2EED2Ev
FNDA:8,_ZNSt14__shared_countILN9__gnu_cxx12_Lock_policyE2EED2Ev
FN:984,_ZNKSt19__shared_ptr_accessIN5Nexus3rpc4NodeELN9__gnu_cxx12_Lock_policyE2ELb0ELb0EEptEv
FNDA:1,_ZNKSt19__shared_ptr_accessIN5Nexus3rpc4NodeELN9__gnu_cxx12_Lock_policyE2ELb0ELb0EEptEv
FN:992,_ZNKSt19__shared_ptr_accessIN5Nexus3rpc4NodeELN9__gnu_cxx12_Lock_policyE2ELb0ELb0EE6_M_getEv
FNDA:1,_ZNKSt19__shared_ptr_accessIN5Nexus3rpc4NodeELN9__gnu_cxx12_Lock_policyE2ELb0ELb0EE6_M_getEv
FN:1154,_ZNSt12__shared_ptrIN5Nexus3rpc4NodeELN9__gnu_cxx12_Lock_policyE2EED2Ev
FNDA:1,_ZNSt12__shared_ptrIN5Nexus3rpc4NodeELN9__gnu_cxx12_Lock_policyE2EED2Ev
FN:1295,_ZNKSt12__shared_ptrIN5Nexus3rpc4NodeELN9__gnu_cxx12_Lock_policyE2EE3getEv
FNDA:1,_ZNKSt12__shared_ptrIN5Nexus3rpc4NodeELN9__gnu_cxx12_Lock_policyE2EE3getEv
DA:161,5
DA:165,10
DA:168,1
DA:180,1
DA:181,1
DA:184,1
DA:187,5
DA:702,8
DA:704,8
DA:705,5
DA:706,8
DA:984,1
DA:987,1
DA:992,1
DA:993,1
DA:1154,1
DA:1295,1
DA:1296,1
end_of_record
TN:
SF:/usr/include/c++/11/bits/alloc_traits.h
FN:463,_ZNSt16allocator_traitsISaISt13_Rb_tree_nodeIiEEE8allocateERS2_m
FNDA:14,_ZNSt16allocator_traitsISaISt13_Rb_tree_nodeIiEEE8allocateERS2_m
FN:463,_ZNSt16allocator_traitsISaIN5Nexus3rpc8NodeInfoEEE8allocateERS3_m
FNDA:639,_ZNSt16allocator_traitsISaIN5Nexus3rpc8NodeInfoEEE8allocateERS3_m
FN:495,_ZNSt16allocator_traitsISaISt13_Rb_tree_nodeIiEEE10deallocateERS2_PS1_m
FNDA:14,_ZNSt16allocator_traitsISaISt13_Rb_tree_nodeIiEEE10deallocateERS2_PS1_m
FN:495,_ZNSt16allocator_traitsISaIN5Nexus3rpc8NodeInfoEEE10deallocateERS3_PS2_m
FNDA:0,_ZNSt16allocator_traitsISaIN5Nexus3rpc8NodeInfoEEE10deallocateERS3_PS2_m
FN:511,_ZNSt16allocator_traitsISaIN5Nexus3rpc8NodeInfoEEE9constructIS2_JS2_EEEvRS3_PT_DpOT0_
FNDA:144,_ZNSt16allocator_traitsISaIN5Nexus3rpc8NodeInfoEEE9constructIS2_JS2_EEEvRS3_PT_DpOT0_
FN:511,_ZNSt16allocator_traitsISaISt13_Rb_tree_nodeIiEEE9constructIiJRKiEEEvRS2_PT_DpOT0_
FNDA:14,_ZNSt16allocator_traitsISaISt13_Rb_tree_nodeIiEEE9constructIiJRKiEEEvRS2_PT_DpOT0_
FN:511,_ZNSt16allocator_traitsISaIN5Nexus3rpc8NodeInfoEEE9constructIS2_JRKS2_EEEvRS3_PT_DpOT0_
FNDA:649,_ZNSt16allocator_traitsISaIN5Nexus3rpc8NodeInfoEEE9constructIS2_JRKS2_EEEvRS3_PT_DpOT0_
FN:531,_ZNSt16allocator_traitsISaISt13_Rb_tree_nodeIiEEE7destroyIiEEvRS2_PT_
FNDA:14,_ZNSt16allocator_traitsISaISt13_Rb_tree_nodeIiEEE7destroyIiEEvRS2_PT_
FN:531,_ZNSt16allocator_traitsISaIN5Nexus3rpc8NodeInfoEEE7destroyIS2_EEvRS3_PT_
FNDA:144,_ZNSt16allocator_traitsISaIN5Nexus3rpc8NodeInfoEEE7destroyIS2_EEvRS3_PT_
FN:547,_ZNSt16allocator_traitsISaIN5Nexus3rpc8NodeInfoEEE8max_sizeERKS3_
FNDA:1278,_ZNSt16allocator_traitsISaIN5Nexus3rpc8NodeInfoEEE8max_sizeERKS3_
FN:562,_ZNSt16allocator_traitsISaIcEE37select_on_container_copy_constructionERKS0_
FNDA:0,_ZNSt16allocator_traitsISaIcEE37select_on_container_copy_constructionERKS0_
FN:845,_ZSt8_DestroyIPN5Nexus3rpc8NodeInfoES2_EvT_S4_RSaIT0_E
FNDA:0,_ZSt8_DestroyIPN5Nexus3rpc8NodeInfoES2_EvT_S4_RSaIT0_E
DA:463,14
DA:464,14
DA:463,639
DA:464,639
DA:495,14
DA:496,14
DA:495,0
DA:496,0
DA:511,144
DA:516,144
DA:520,144
DA:511,14
DA:516,14
DA:520,14
DA:511,649
DA:516,649
DA:520,649
DA:531,14
DA:535,14
DA:539,14
DA:531,144
DA:535,144
DA:539,144
DA:547,1278
DA:550,1278
DA:562,0
DA:563,0
DA:845,0
DA:848,0
DA:849,0
end_of_record
SF:/home/fz296w/workspace/Nexus/Nexus/include/nexus/registry/SharedMemoryRegistry.h
FN:28,_ZN5Nexus3rpc8NodeInfoC2Ev
FNDA:0,_ZN5Nexus3rpc8NodeInfoC2Ev
FN:186,_ZN5Nexus3rpc20SharedMemoryRegistry12RegistryLockC2EP15pthread_mutex_ti
FNDA:2126,_ZN5Nexus3rpc20SharedMemoryRegistry12RegistryLockC2EP15pthread_mutex_ti
FN:211,_ZN5Nexus3rpc20SharedMemoryRegistry12RegistryLockD2Ev
FNDA:2126,_ZN5Nexus3rpc20SharedMemoryRegistry12RegistryLockD2Ev
FN:221,_ZNK5Nexus3rpc20SharedMemoryRegistry12RegistryLock8isLockedEv
FNDA:2126,_ZNK5Nexus3rpc20SharedMemoryRegistry12RegistryLock8isLockedEv
DA:28,0
DA:186,2126
DA:189,2126
DA:191,2126
DA:192,2126
DA:193,2126
DA:194,2126
DA:195,2126
DA:196,0
DA:197,0
DA:200,2126
DA:201,2126
DA:202,0
DA:203,0
DA:204,2126
DA:205,2124
DA:209,2126
DA:211,2126
DA:212,2126
DA:213,2124
DA:219,2126
DA:221,2126
end_of_record
SF:/usr/include/c++/11/bits/stl_tree.h
FN:146,_ZNSt20_Rb_tree_key_compareISt4lessIiEEC2Ev
FNDA:124,_ZNSt20_Rb_tree_key_compareISt4lessIiEEC2Ev
FN:173,_ZNSt15_Rb_tree_headerC2Ev
FNDA:0,_ZNSt15_Rb_tree_headerC2Ev
FN:206,_ZNSt15_Rb_tree_header8_M_resetEv
FNDA:0,_ZNSt15_Rb_tree_header8_M_resetEv
FN:234,_ZNSt13_Rb_tree_nodeIiE9_M_valptrEv
FNDA:28,_ZNSt13_Rb_tree_nodeIiE9_M_valptrEv
FN:238,_ZNKSt13_Rb_tree_nodeIiE9_M_valptrEv
FNDA:1420,_ZNKSt13_Rb_tree_nodeIiE9_M_valptrEv
FN:273,_ZNSt17_Rb_tree_iteratorIiEC2EPSt18_Rb_tree_node_base
FNDA:1462,_ZNSt17_Rb_tree_iteratorIiEC2EPSt18_Rb_tree_node_base
FN:300,_ZNSt17_Rb_tree_iteratorIiEmmEv
FNDA:0,_ZNSt17_Rb_tree_iteratorIiEmmEv
FN:315,_ZSteqRKSt17_Rb_tree_iteratorIiES2_
FNDA:14,_ZSteqRKSt17_Rb_tree_iteratorIiES2_
FN:350,_ZNSt23_Rb_tree_const_iteratorIiEC2ERKSt17_Rb_tree_iteratorIiE
FNDA:724,_ZNSt23_Rb_tree_const_iteratorIiEC2ERKSt17_Rb_tree_iteratorIiE
FN:523,_ZNSt8_Rb_treeIiiSt9_IdentityIiESt4lessIiESaIiEE11_Alloc_nodeC2ERS5_
FNDA:14,_ZNSt8_Rb_treeIiiSt9_IdentityIiESt4lessIiESaIiEE11_Alloc_nodeC2ERS5_
FN:528,_ZNKSt8_Rb_treeIiiSt9_IdentityIiESt4lessIiESaIiEE11_Alloc_nodeclIRKiEEPSt13_Rb_tree_nodeIiEOT_
FNDA:14,_ZNKSt8_Rb_treeIiiSt9_IdentityIiESt4lessIiESaIiEE11_Alloc_nodeclIRKiEEPSt13_Rb_tree_nodeIiEOT_
FN:547,_ZNSt8_Rb_treeIiiSt9_IdentityIiESt4lessIiESaIiEE21_M_get_Node_allocatorEv
FNDA:56,_ZNSt8_Rb_treeIiiSt9_IdentityIiESt4lessIiESaIiEE21_M_get_Node_allocatorEv
FN:560,_ZNSt8_Rb_treeIiiSt9_IdentityIiESt4lessIiESaIiEE11_M_get_nodeEv
FNDA:14,_ZNSt8_Rb_treeIiiSt9_IdentityIiESt4lessIiESaIiEE11_M_get_nodeEv
FN:564,_ZNSt8_Rb_treeIiiSt9_IdentityIiESt4lessIiESaIiEE11_M_put_nodeEPSt13_Rb_tree_nodeIiE
FNDA:14,_ZNSt8_Rb_treeIiiSt9_IdentityIiESt4lessIiESaIiEE11_M_put_nodeEPSt13_Rb_tree_nodeIiE
FN:590,_ZNSt8_Rb_treeIiiSt9_IdentityIiESt4lessIiESaIiEE17_M_construct_nodeIJRKiEEEvPSt13_Rb_tree_nodeIiEDpOT_
FNDA:14,_ZNSt8_Rb_treeIiiSt9_IdentityIiESt4lessIiESaIiEE17_M_construct_nodeIJRKiEEEvPSt13_Rb_tree_nodeIiEDpOT_
FN:609,_ZNSt8_Rb_treeIiiSt9_IdentityIiESt4lessIiESaIiEE14_M_create_nodeIJRKiEEEPSt13_Rb_tree_nodeIiEDpOT_
FNDA:14,_ZNSt8_Rb_treeIiiSt9_IdentityIiESt4lessIiESaIiEE14_M_create_nodeIJRKiEEEPSt13_Rb_tree_nodeIiEDpOT_
FN:618,_ZNSt8_Rb_treeIiiSt9_IdentityIiESt4lessIiESaIiEE15_M_destroy_nodeEPSt13_Rb_tree_nodeIiE
FNDA:14,_ZNSt8_Rb_treeIiiSt9_IdentityIiESt4lessIiESaIiEE15_M_destroy_nodeEPSt13_Rb_tree_nodeIiE
FN:629,_ZNSt8_Rb_treeIiiSt9_IdentityIiESt4lessIiESaIiEE12_M_drop_nodeEPSt13_Rb_tree_nodeIiE
FNDA:14,_ZNSt8_Rb_treeIiiSt9_IdentityIiESt4lessIiESaIiEE12_M_drop_nodeEPSt13_Rb_tree_nodeIiE
FN:667,_ZNSt8_Rb_treeIiiSt9_IdentityIiESt4lessIiESaIiEE13_Rb_tree_implIS3_Lb1EEC2Ev
FNDA:124,_ZNSt8_Rb_treeIiiSt9_IdentityIiESt4lessIiESaIiEE13_Rb_tree_implIS3_Lb1EEC2Ev
FN:734,_ZNKSt8_Rb_treeIiiSt9_IdentityIiESt4lessIiESaIiEE9_M_mbeginEv
FNDA:848,_ZNKSt8_Rb_treeIiiSt9_IdentityIiESt4lessIiESaIiEE9_M_mbeginEv
FN:738,_ZNSt8_Rb_treeIiiSt9_IdentityIiESt4lessIiESaIiEE8_M_beginEv
FNDA:848,_ZNSt8_Rb_treeIiiSt9_IdentityIiESt4lessIiESaIiEE8_M_beginEv
FN:749,_ZNSt8_Rb_treeIiiSt9_IdentityIiESt4lessIiESaIiEE6_M_endEv
FNDA:738,_ZNSt8_Rb_treeIiiSt9_IdentityIiESt4lessIiESaIiEE6_M_endEv
FN:757,_ZNSt8_Rb_treeIiiSt9_IdentityIiESt4lessIiESaIiEE6_S_keyEPKSt13_Rb_tree_nodeIiE
FNDA:1420,_ZNSt8_Rb_treeIiiSt9_IdentityIiESt4lessIiESaIiEE6_S_keyEPKSt13_Rb_tree_nodeIiE
FN:779,_ZNSt8_Rb_treeIiiSt9_IdentityIiESt4lessIiESaIiEE7_S_leftEPSt18_Rb_tree_node_base
FNDA:14,_ZNSt8_Rb_treeIiiSt9_IdentityIiESt4lessIiESaIiEE7_S_leftEPSt18_Rb_tree_node_base
FN:787,_ZNSt8_Rb_treeIiiSt9_IdentityIiESt4lessIiESaIiEE8_S_rightEPSt18_Rb_tree_node_base
FNDA:724,_ZNSt8_Rb_treeIiiSt9_IdentityIiESt4lessIiESaIiEE8_S_rightEPSt18_Rb_tree_node_base
FN:795,_ZNSt8_Rb_treeIiiSt9_IdentityIiESt4lessIiESaIiEE6_S_keyEPKSt18_Rb_tree_node_base
FNDA:710,_ZNSt8_Rb_treeIiiSt9_IdentityIiESt4lessIiESaIiEE6_S_keyEPKSt18_Rb_tree_node_base
FN:928,_ZNSt8_Rb_treeIiiSt9_IdentityIiESt4lessIiESaIiEEC2Ev
FNDA:124,_ZNSt8_Rb_treeIiiSt9_IdentityIiESt4lessIiESaIiEEC2Ev
FN:983,_ZNSt8_Rb_treeIiiSt9_IdentityIiESt4lessIiESaIiEED2Ev
FNDA:124,_ZNSt8_Rb_treeIiiSt9_IdentityIiESt4lessIiESaIiEED2Ev
FN:995,_ZNSt8_Rb_treeIiiSt9_IdentityIiESt4lessIiESaIiEE5beginEv
FNDA:14,_ZNSt8_Rb_treeIiiSt9_IdentityIiESt4lessIiESaIiEE5beginEv
FN:1031,_ZNKSt8_Rb_treeIiiSt9_IdentityIiESt4lessIiESaIiEE4sizeEv
FNDA:124,_ZNKSt8_Rb_treeIiiSt9_IdentityIiESt4lessIiESaIiEE4sizeEv
FN:1771,_ZNSt8_Rb_treeIiiSt9_IdentityIiESt4lessIiESaIiEE10_M_insert_IRKiNS5_11_Alloc_nodeEEESt17_Rb_tree_iteratorIiEPSt18_Rb_tree_node_baseSD_OT_RT0_
FNDA:14,_ZNSt8_Rb_treeIiiSt9_IdentityIiESt4lessIiESaIiEE10_M_insert_IRKiNS5_11_Alloc_nodeEEESt17_Rb_tree_iteratorIiEPSt18_Rb_tree_node_baseSD_OT_RT0_
FN:1883,_ZNSt8_Rb_treeIiiSt9_IdentityIiESt4lessIiESaIiEE8_M_eraseEPSt13_Rb_tree_nodeIiE
FNDA:138,_ZNSt8_Rb_treeIiiSt9_IdentityIiESt4lessIiESaIiEE8_M_eraseEPSt13_Rb_tree_nodeIiE
FN:2061,_ZNSt8_Rb_treeIiiSt9_IdentityIiESt4lessIiESaIiEE24_M_get_insert_unique_posERKi
FNDA:724,_ZNSt8_Rb_treeIiiSt9_IdentityIiESt4lessIiESaIiEE24_M_get_insert_unique_posERKi
FN:2115,_ZNSt8_Rb_treeIiiSt9_IdentityIiESt4lessIiESaIiEE16_M_insert_uniqueIRKiEESt4pairISt17_Rb_tree_iteratorIiEbEOT_
FNDA:724,_ZNSt8_Rb_treeIiiSt9_IdentityIiESt4lessIiESaIiEE16_M_insert_uniqueIRKiEESt4pairISt17_Rb_tree_iteratorIiEbEOT_
DA:146,124
DA:150,124
DA:173,0
DA:174,0
DA:175,0
DA:176,0
DA:177,0
DA:206,0
DA:208,0
DA:209,0
DA:210,0
DA:211,0
DA:212,0
DA:234,28
DA:235,28
DA:238,1420
DA:239,1420
DA:273,1462
DA:274,1462
DA:300,0
DA:302,0
DA:303,0
DA:315,14
DA:316,14
DA:350,724
DA:351,724
DA:523,14
DA:524,14
DA:528,14
DA:529,14
DA:547,56
DA:548,56
DA:560,14
DA:561,14
DA:564,14
DA:565,14
DA:590,14
DA:594,14
DA:595,14
DA:605,14
DA:609,14
DA:611,14
DA:612,14
DA:613,14
DA:618,14
DA:623,14
DA:624,14
DA:626,14
DA:629,14
DA:631,14
DA:632,14
DA:633,14
DA:667,124
DA:671,124
DA:672,124
DA:734,848
DA:735,848
DA:738,848
DA:739,848
DA:749,738
DA:750,738
DA:757,1420
DA:775,1420
DA:779,14
DA:780,14
DA:787,724
DA:788,724
DA:795,710
DA:796,710
DA:928,124
DA:983,124
DA:984,124
DA:995,14
DA:996,14
DA:1031,124
DA:1032,124
DA:1771,14
DA:1780,14
DA:1781,28
DA:1784,14
DA:1786,14
DA:1787,14
DA:1788,14
DA:1789,14
DA:1883,138
DA:1887,152
DA:1889,14
DA:1890,14
DA:1891,14
DA:1892,14
DA:1894,138
DA:2061,724
DA:2065,724
DA:2066,724
DA:2067,724
DA:2068,1434
DA:2070,710
DA:2071,710
DA:2072,710
DA:2074,724
DA:2075,724
DA:2077,14
DA:2078,14
DA:2080,0
DA:2082,710
DA:2083,0
DA:2084,710
DA:2115,724
DA:2124,724
DA:2126,724
DA:2128,14
DA:2129,14
DA:2131,14
DA:2134,710
end_of_record
SF:/usr/include/c++/11/bits/char_traits.h
FN:372,_ZNSt11char_traitsIcE7compareEPKcS2_m
FNDA:0,_ZNSt11char_traitsIcE7compareEPKcS2_m
FN:393,_ZNSt11char_traitsIcE6lengthEPKc
FNDA:0,_ZNSt11char_traitsIcE6lengthEPKc
FN:429,_ZNSt11char_traitsIcE4copyEPcPKcm
FNDA:0,_ZNSt11char_traitsIcE4copyEPcPKcm
DA:372,0
DA:374,0
DA:375,0
DA:389,0
DA:393,0
DA:399,0
DA:429,0
DA:431,0
DA:432,0
DA:437,0
end_of_record
SF:/usr/include/c++/11/bits/stl_algobase.h
FN:230,_ZSt3minImERKT_S2_S2_
FNDA:0,_ZSt3minImERKT_S2_S2_
FN:254,_ZSt3maxImERKT_S2_S2_
FNDA:0,_ZSt3maxImERKT_S2_S2_
FN:313,_ZSt12__niter_baseIPN5Nexus3rpc8NodeInfoEET_S4_
FNDA:3834,_ZSt12__niter_baseIPN5Nexus3rpc8NodeInfoEET_S4_
DA:230,0
DA:235,0
DA:236,0
DA:237,0
DA:254,0
DA:259,0
DA:260,0
DA:261,0
DA:313,3834
DA:315,3834
end_of_record
SF:/usr/include/c++/11/bits/stl_construct.h
FN:109,_ZSt10_ConstructIN5Nexus3rpc8NodeInfoEJS2_EEvPT_DpOT0_
FNDA:0,_ZSt10_ConstructIN5Nexus3rpc8NodeInfoEJS2_EEvPT_DpOT0_
FN:146,_ZSt8_DestroyIN5Nexus3rpc8NodeInfoEEvPT_
FNDA:0,_ZSt8_DestroyIN5Nexus3rpc8NodeInfoEEvPT_
FN:160,_ZNSt12_Destroy_auxILb0EE9__destroyIPN5Nexus3rpc8NodeInfoEEEvT_S6_
FNDA:0,_ZNSt12_Destroy_auxILb0EE9__destroyIPN5Nexus3rpc8NodeInfoEEEvT_S6_
FN:182,_ZSt8_DestroyIPN5Nexus3rpc8NodeInfoEEvT_S4_
FNDA:0,_ZSt8_DestroyIPN5Nexus3rpc8NodeInfoEEvT_S4_
DA:109,0
DA:119,0
DA:120,0
DA:146,0
DA:151,0
DA:153,0
DA:160,0
DA:162,0
DA:163,0
DA:164,0
DA:182,0
DA:196,0
DA:197,0
end_of_record
SF:/usr/include/c++/11/bits/stl_function.h
FN:399,_ZNKSt4lessIiEclERKiS2_
FNDA:1420,_ZNKSt4lessIiEclERKiS2_
FN:1158,_ZNKSt9_IdentityIiEclERKi
FNDA:2144,_ZNKSt9_IdentityIiEclERKi
DA:399,1420
DA:400,1420
DA:1158,2144
DA:1159,2144
end_of_record
SF:/usr/include/c++/11/bits/stl_iterator_base_funcs.h
FN:98,_ZSt10__distanceIPcENSt15iterator_traitsIT_E15difference_typeES2_S2_St26random_access_iterator_tag
FNDA:0,_ZSt10__distanceIPcENSt15iterator_traitsIT_E15difference_typeES2_S2_St26random_access_iterator_tag
FN:98,_ZSt10__distanceIPKcENSt15iterator_traitsIT_E15difference_typeES3_S3_St26random_access_iterator_tag
FNDA:0,_ZSt10__distanceIPKcENSt15iterator_traitsIT_E15difference_typeES3_S3_St26random_access_iterator_tag
FN:138,_ZSt8distanceIPcENSt15iterator_traitsIT_E15difference_typeES2_S2_
FNDA:0,_ZSt8distanceIPcENSt15iterator_traitsIT_E15difference_typeES2_S2_
FN:138,_ZSt8distanceIPKcENSt15iterator_traitsIT_E15difference_typeES3_S3_
FNDA:0,_ZSt8distanceIPKcENSt15iterator_traitsIT_E15difference_typeES3_S3_
DA:98,0
DA:104,0
DA:98,0
DA:104,0
DA:138,0
DA:141,0
DA:142,0
DA:138,0
DA:141,0
DA:142,0
end_of_record
SF:/usr/include/c++/11/ext/alloc_traits.h
FN:97,_ZN9__gnu_cxx14__alloc_traitsISaIcEcE17_S_select_on_copyERKS1_
FNDA:0,_ZN9__gnu_cxx14__alloc_traitsISaIcEcE17_S_select_on_copyERKS1_
DA:97,0
DA:98,0
end_of_record
SF:/usr/include/c++/11/ext/aligned_buffer.h
FN:64,_ZN9__gnu_cxx16__aligned_membufIiE7_M_addrEv
FNDA:28,_ZN9__gnu_cxx16__aligned_membufIiE7_M_addrEv
FN:68,_ZNK9__gnu_cxx16__aligned_membufIiE7_M_addrEv
FNDA:1420,_ZNK9__gnu_cxx16__aligned_membufIiE7_M_addrEv
FN:72,_ZN9__gnu_cxx16__aligned_membufIiE6_M_ptrEv
FNDA:28,_ZN9__gnu_cxx16__aligned_membufIiE6_M_ptrEv
FN:76,_ZNK9__gnu_cxx16__aligned_membufIiE6_M_ptrEv
FNDA:1420,_ZNK9__gnu_cxx16__aligned_membufIiE6_M_ptrEv
DA:64,28
DA:65,28
DA:68,1420
DA:69,1420
DA:72,28
DA:73,28
DA:76,1420
DA:77,1420
end_of_record
SF:/usr/include/c++/11/bits/stl_iterator_base_types.h
FN:238,_ZSt19__iterator_categoryIPcENSt15iterator_traitsIT_E17iterator_categoryERKS2_
FNDA:0,_ZSt19__iterator_categoryIPcENSt15iterator_traitsIT_E17iterator_categoryERKS2_
FN:238,_ZSt19__iterator_categoryIPKcENSt15iterator_traitsIT_E17iterator_categoryERKS3_
FNDA:0,_ZSt19__iterator_categoryIPKcENSt15iterator_traitsIT_E17iterator_categoryERKS3_
DA:238,0
DA:239,0
DA:238,0
DA:239,0
end_of_record
SF:/usr/include/c++/11/bits/stl_pair.h
FN:322,_ZNSt4pairIPSt18_Rb_tree_node_baseS1_EC2IRS1_Lb1EEEOT_RKS1_
FNDA:0,_ZNSt4pairIPSt18_Rb_tree_node_baseS1_EC2IRS1_Lb1EEEOT_RKS1_
FN:352,_ZNSt4pairIPSt18_Rb_tree_node_baseS1_EC2IRPSt13_Rb_tree_nodeIiERS1_Lb1EEEOT_OT0_
FNDA:14,_ZNSt4pairIPSt18_Rb_tree_node_baseS1_EC2IRPSt13_Rb_tree_nodeIiERS1_Lb1EEEOT_OT0_
FN:352,_ZNSt4pairISt17_Rb_tree_iteratorIiEbEC2IS1_bLb1EEEOT_OT0_
FNDA:724,_ZNSt4pairISt17_Rb_tree_iteratorIiEbEC2IS1_bLb1EEEOT_OT0_
FN:352,_ZNSt4pairISt23_Rb_tree_const_iteratorIiEbEC2IRSt17_Rb_tree_iteratorIiERbLb1EEEOT_OT0_
FNDA:724,_ZNSt4pairISt23_Rb_tree_const_iteratorIiEbEC2IRSt17_Rb_tree_iteratorIiERbLb1EEEOT_OT0_
DA:322,0
DA:323,0
DA:352,14
DA:353,14
DA:352,724
DA:353,724
DA:352,724
DA:353,724
end_of_record
SF:/usr/include/c++/11/bits/charconv.h
FN:47,_ZNSt8__detail14__to_chars_lenImEEjT_i
FNDA:919,_ZNSt8__detail14__to_chars_lenImEEjT_i
FN:47,_ZNSt8__detail14__to_chars_lenIjEEjT_i
FNDA:0,_ZNSt8__detail14__to_chars_lenIjEEjT_i
FN:72,_ZNSt8__detail18__to_chars_10_implImEEvPcjT_
FNDA:919,_ZNSt8__detail18__to_chars_10_implImEEvPcjT_
FN:72,_ZNSt8__detail18__to_chars_10_implIjEEvPcjT_
FNDA:0,_ZNSt8__detail18__to_chars_10_implIjEEvPcjT_
DA:47,919
DA:52,919
DA:53,919
DA:54,919
DA:55,919
DA:58,2725
DA:59,2715
DA:60,1814
DA:61,1808
DA:62,1806
DA:63,1806
DA:47,0
DA:52,0
DA:53,0
DA:54,0
DA:55,0
DA:58,0
DA:59,0
DA:60,0
DA:61,0
DA:62,0
DA:63,0
DA:72,919
DA:83,919
DA:84,4539
DA:86,3620
DA:87,3620
DA:88,3620
DA:89,3620
DA:90,3620
DA:92,919
DA:94,903
DA:95,903
DA:96,903
DA:99,16
DA:100,919
DA:72,0
DA:83,0
DA:84,0
DA:86,0
DA:87,0
DA:88,0
DA:89,0
DA:90,0
DA:92,0
DA:94,0
DA:95,0
DA:96,0
DA:99,0
DA:100,0
end_of_record
SF:/usr/include/c++/11/iostream
end_of_record
SF:/usr/include/c++/11/type_traits
FN:70,_ZNKSt17integral_constantIbLb1EEcvbEv
FNDA:8,_ZNKSt17integral_constantIbLb1EEcvbEv
DA:70,8
end_of_record
SF:/usr/include/c++/11/ext/type_traits.h
FN:152,_ZN9__gnu_cxx17__is_null_pointerIcEEbPT_
FNDA:0,_ZN9__gnu_cxx17__is_null_pointerIcEEbPT_
FN:152,_ZN9__gnu_cxx17__is_null_pointerIKcEEbPT_
FNDA:0,_ZN9__gnu_cxx17__is_null_pointerIKcEEbPT_
DA:152,0
DA:153,0
DA:152,0
DA:153,0
end_of_record
SF:/usr/include/c++/11/bits/basic_string.tcc
FN:206,_ZNSt7__cxx1112basic_stringIcSt11char_traitsIcESaIcEE12_M_constructIPcEEvT_S7_St20forward_iterator_tag
FNDA:0,_ZNSt7__cxx1112basic_stringIcSt11char_traitsIcESaIcEE12_M_constructIPcEEvT_S7_St20forward_iterator_tag
FN:206,_ZNSt7__cxx1112basic_stringIcSt11char_traitsIcESaIcEE12_M_constructIPKcEEvT_S8_St20forward_iterator_tag
FNDA:0,_ZNSt7__cxx1112basic_stringIcSt11char_traitsIcESaIcEE12_M_constructIPKcEEvT_S8_St20forward_iterator_tag
FN:1169,_ZStplIcSt11char_traitsIcESaIcEENSt7__cxx1112basic_stringIT_T0_T1_EEPKS5_RKS8_
FNDA:0,_ZStplIcSt11char_traitsIcESaIcEENSt7__cxx1112basic_stringIT_T0_T1_EEPKS5_RKS8_
DA:206,0
DA:211,0
DA:212,0
DA:215,0
DA:217,0
DA:219,0
DA:220,0
DA:225,0
DA:226,0
DA:228,0
DA:229,0
DA:232,0
DA:233,0
DA:206,0
DA:211,0
DA:212,0
DA:215,0
DA:217,0
DA:219,0
DA:220,0
DA:225,0
DA:226,0
DA:228,0
DA:229,0
DA:232,0
DA:233,0
DA:1169,0
DA:1178,0
DA:1179,0
DA:1181,0
DA:1182,0
DA:1183,0
DA:1184,0
DA:1185,0
end_of_record
SF:/usr/include/c++/11/bits/this_thread_sleep.h
FN:70,_ZNSt11this_thread9sleep_forIlSt5ratioILl1ELl1000EEEEvRKNSt6chrono8durationIT_T0_EE
FNDA:0,_ZNSt11this_thread9sleep_forIlSt5ratioILl1ELl1000EEEEvRKNSt6chrono8durationIT_T0_EE
DA:70,0
DA:72,0
DA:73,0
DA:74,0
DA:75,0
DA:77,0
DA:79,0
DA:80,0
DA:82,0
end_of_record
SF:/usr/include/c++/11/bits/stl_vector.h
FN:97,_ZNSt12_Vector_baseIN5Nexus3rpc8NodeInfoESaIS2_EE17_Vector_impl_dataC2Ev
FNDA:0,_ZNSt12_Vector_baseIN5Nexus3rpc8NodeInfoESaIS2_EE17_Vector_impl_dataC2Ev
FN:131,_ZNSt12_Vector_baseIN5Nexus3rpc8NodeInfoESaIS2_EE12_Vector_implC2Ev
FNDA:0,_ZNSt12_Vector_baseIN5Nexus3rpc8NodeInfoESaIS2_EE12_Vector_implC2Ev
FN:276,_ZNSt12_Vector_baseIN5Nexus3rpc8NodeInfoESaIS2_EE19_M_get_Tp_allocatorEv
FNDA:0,_ZNSt12_Vector_baseIN5Nexus3rpc8NodeInfoESaIS2_EE19_M_get_Tp_allocatorEv
FN:280,_ZNKSt12_Vector_baseIN5Nexus3rpc8NodeInfoESaIS2_EE19_M_get_Tp_allocatorEv
FNDA:0,_ZNKSt12_Vector_baseIN5Nexus3rpc8NodeInfoESaIS2_EE19_M_get_Tp_allocatorEv
FN:288,_ZNSt12_Vector_baseIN5Nexus3rpc8NodeInfoESaIS2_EEC2Ev
FNDA:0,_ZNSt12_Vector_baseIN5Nexus3rpc8NodeInfoESaIS2_EEC2Ev
FN:333,_ZNSt12_Vector_baseIN5Nexus3rpc8NodeInfoESaIS2_EED2Ev
FNDA:0,_ZNSt12_Vector_baseIN5Nexus3rpc8NodeInfoESaIS2_EED2Ev
FN:343,_ZNSt12_Vector_baseIN5Nexus3rpc8NodeInfoESaIS2_EE11_M_allocateEm
FNDA:639,_ZNSt12_Vector_baseIN5Nexus3rpc8NodeInfoESaIS2_EE11_M_allocateEm
FN:350,_ZNSt12_Vector_baseIN5Nexus3rpc8NodeInfoESaIS2_EE13_M_deallocateEPS2_m
FNDA:0,_ZNSt12_Vector_baseIN5Nexus3rpc8NodeInfoESaIS2_EE13_M_deallocateEPS2_m
FN:431,_ZNSt6vectorIN5Nexus3rpc8NodeInfoESaIS2_EE19_S_nothrow_relocateESt17integral_constantIbLb1EE
FNDA:1278,_ZNSt6vectorIN5Nexus3rpc8NodeInfoESaIS2_EE19_S_nothrow_relocateESt17integral_constantIbLb1EE
FN:444,_ZNSt6vectorIN5Nexus3rpc8NodeInfoESaIS2_EE15_S_use_relocateEv
FNDA:1278,_ZNSt6vectorIN5Nexus3rpc8NodeInfoESaIS2_EE15_S_use_relocateEv
FN:453,_ZNSt6vectorIN5Nexus3rpc8NodeInfoESaIS2_EE14_S_do_relocateEPS2_S5_S5_RS3_St17integral_constantIbLb1EE
FNDA:1278,_ZNSt6vectorIN5Nexus3rpc8NodeInfoESaIS2_EE14_S_do_relocateEPS2_S5_S5_RS3_St17integral_constantIbLb1EE
FN:465,_ZNSt6vectorIN5Nexus3rpc8NodeInfoESaIS2_EE11_S_relocateEPS2_S5_S5_RS3_
FNDA:1278,_ZNSt6vectorIN5Nexus3rpc8NodeInfoESaIS2_EE11_S_relocateEPS2_S5_S5_RS3_
FN:487,_ZNSt6vectorIN5Nexus3rpc8NodeInfoESaIS2_EEC2Ev
FNDA:0,_ZNSt6vectorIN5Nexus3rpc8NodeInfoESaIS2_EEC2Ev
FN:678,_ZNSt6vectorIN5Nexus3rpc8NodeInfoESaIS2_EED2Ev
FNDA:0,_ZNSt6vectorIN5Nexus3rpc8NodeInfoESaIS2_EED2Ev
FN:811,_ZNSt6vectorIN5Nexus3rpc8NodeInfoESaIS2_EE5beginEv
FNDA:0,_ZNSt6vectorIN5Nexus3rpc8NodeInfoESaIS2_EE5beginEv
FN:829,_ZNSt6vectorIN5Nexus3rpc8NodeInfoESaIS2_EE3endEv
FNDA:0,_ZNSt6vectorIN5Nexus3rpc8NodeInfoESaIS2_EE3endEv
FN:918,_ZNKSt6vectorIN5Nexus3rpc8NodeInfoESaIS2_EE4sizeEv
FNDA:0,_ZNKSt6vectorIN5Nexus3rpc8NodeInfoESaIS2_EE4sizeEv
FN:923,_ZNKSt6vectorIN5Nexus3rpc8NodeInfoESaIS2_EE8max_sizeEv
FNDA:1278,_ZNKSt6vectorIN5Nexus3rpc8NodeInfoESaIS2_EE8max_sizeEv
FN:1187,_ZNSt6vectorIN5Nexus3rpc8NodeInfoESaIS2_EE9push_backERKS2_
FNDA:649,_ZNSt6vectorIN5Nexus3rpc8NodeInfoESaIS2_EE9push_backERKS2_
FN:1756,_ZNKSt6vectorIN5Nexus3rpc8NodeInfoESaIS2_EE12_M_check_lenEmPKc
FNDA:639,_ZNKSt6vectorIN5Nexus3rpc8NodeInfoESaIS2_EE12_M_check_lenEmPKc
FN:1776,_ZNSt6vectorIN5Nexus3rpc8NodeInfoESaIS2_EE11_S_max_sizeERKS3_
FNDA:1278,_ZNSt6vectorIN5Nexus3rpc8NodeInfoESaIS2_EE11_S_max_sizeERKS3_
DA:97,0
DA:98,0
DA:99,0
DA:131,0
DA:133,0
DA:134,0
DA:276,0
DA:277,0
DA:280,0
DA:281,0
DA:288,0
DA:333,0
DA:335,0
DA:336,0
DA:337,0
DA:343,639
DA:346,639
DA:350,0
DA:353,0
DA:354,0
DA:355,0
DA:431,1278
DA:436,1278
DA:444,1278
DA:449,1278
DA:453,1278
DA:456,1278
DA:465,1278
DA:469,1278
DA:487,0
DA:678,0
DA:680,0
DA:681,0
DA:683,0
DA:811,0
DA:812,0
DA:829,0
DA:830,0
DA:918,0
DA:919,0
DA:923,1278
DA:924,1278
DA:1187,649
DA:1189,649
DA:1192,10
DA:1194,10
DA:1198,639
DA:1199,649
DA:1756,639
DA:1758,639
DA:1759,0
DA:1761,639
DA:1762,639
DA:1776,1278
DA:1781,1278
DA:1783,1278
DA:1784,1278
end_of_record
SF:/usr/include/c++/11/bits/stl_set.h
FN:167,_ZNSt3setIiSt4lessIiESaIiEEC2Ev
FNDA:124,_ZNSt3setIiSt4lessIiESaIiEEC2Ev
FN:281,_ZNSt3setIiSt4lessIiESaIiEED2Ev
FNDA:124,_ZNSt3setIiSt4lessIiESaIiEED2Ev
FN:419,_ZNKSt3setIiSt4lessIiESaIiEE4sizeEv
FNDA:124,_ZNKSt3setIiSt4lessIiESaIiEE4sizeEv
FN:509,_ZNSt3setIiSt4lessIiESaIiEE6insertERKi
FNDA:724,_ZNSt3setIiSt4lessIiESaIiEE6insertERKi
DA:167,124
DA:281,124
DA:419,124
DA:420,124
DA:509,724
DA:512,724
DA:513,724
end_of_record
SF:/usr/include/c++/11/new
FN:174,_ZnwmPv
FNDA:0,_ZnwmPv
FN:180,_ZdlPvS_
FNDA:0,_ZdlPvS_
DA:174,0
DA:175,0
DA:180,0
end_of_record
SF:/usr/include/c++/11/bits/vector.tcc
FN:426,_ZNSt6vectorIN5Nexus3rpc8NodeInfoESaIS2_EE17_M_realloc_insertIJRKS2_EEEvN9__gnu_cxx17__normal_iteratorIPS2_S4_EEDpOT_
FNDA:639,_ZNSt6vectorIN5Nexus3rpc8NodeInfoESaIS2_EE17_M_realloc_insertIJRKS2_EEEvN9__gnu_cxx17__normal_iteratorIPS2_S4_EEDpOT_
DA:426,639
DA:436,639
DA:437,639
DA:438,639
DA:439,639
DA:440,639
DA:441,639
DA:449,639
DA:450,639
DA:456,639
DA:459,639
DA:461,639
DA:462,639
DA:464,639
DA:466,639
DA:467,639
DA:474,0
DA:475,0
DA:477,0
DA:481,0
DA:482,0
DA:485,0
DA:487,0
DA:488,0
DA:489,0
DA:491,0
DA:492,0
DA:493,0
DA:496,639
DA:498,0
DA:500,639
DA:501,639
DA:502,639
DA:503,639
DA:504,639
DA:505,639
end_of_record
SF:/usr/include/c++/11/bits/stl_iterator.h
FN:1027,_ZN9__gnu_cxx17__normal_iteratorIPN5Nexus3rpc8NodeInfoESt6vectorIS3_SaIS3_EEEC2ERKS4_
FNDA:0,_ZN9__gnu_cxx17__normal_iteratorIPN5Nexus3rpc8NodeInfoESt6vectorIS3_SaIS3_EEEC2ERKS4_
FN:1105,_ZNK9__gnu_cxx17__normal_iteratorIPN5Nexus3rpc8NodeInfoESt6vectorIS3_SaIS3_EEE4baseEv
FNDA:0,_ZNK9__gnu_cxx17__normal_iteratorIPN5Nexus3rpc8NodeInfoESt6vectorIS3_SaIS3_EEE4baseEv
FN:1268,_ZN9__gnu_cxxmiIPN5Nexus3rpc8NodeInfoESt6vectorIS3_SaIS3_EEEENS_17__normal_iteratorIT_T0_E15difference_typeERKSB_SE_
FNDA:639,_ZN9__gnu_cxxmiIPN5Nexus3rpc8NodeInfoESt6vectorIS3_SaIS3_EEEENS_17__normal_iteratorIT_T0_E15difference_typeERKSB_SE_
FN:1439,_ZNSt13move_iteratorIPN5Nexus3rpc8NodeInfoEEC2ES3_
FNDA:0,_ZNSt13move_iteratorIPN5Nexus3rpc8NodeInfoEEC2ES3_
FN:1464,_ZNKSt13move_iteratorIPN5Nexus3rpc8NodeInfoEE4baseEv
FNDA:0,_ZNKSt13move_iteratorIPN5Nexus3rpc8NodeInfoEE4baseEv
FN:1477,_ZNKSt13move_iteratorIPN5Nexus3rpc8NodeInfoEEdeEv
FNDA:0,_ZNKSt13move_iteratorIPN5Nexus3rpc8NodeInfoEEdeEv
FN:1489,_ZNSt13move_iteratorIPN5Nexus3rpc8NodeInfoEEppEv
FNDA:0,_ZNSt13move_iteratorIPN5Nexus3rpc8NodeInfoEEppEv
FN:1648,_ZSteqIPN5Nexus3rpc8NodeInfoEEbRKSt13move_iteratorIT_ES8_
FNDA:0,_ZSteqIPN5Nexus3rpc8NodeInfoEEbRKSt13move_iteratorIT_ES8_
FN:1661,_ZStneIPN5Nexus3rpc8NodeInfoEEbRKSt13move_iteratorIT_ES8_
FNDA:0,_ZStneIPN5Nexus3rpc8NodeInfoEEbRKSt13move_iteratorIT_ES8_
FN:1723,_ZSt32__make_move_if_noexcept_iteratorIN5Nexus3rpc8NodeInfoESt13move_iteratorIPS2_EET0_PT_
FNDA:0,_ZSt32__make_move_if_noexcept_iteratorIN5Nexus3rpc8NodeInfoESt13move_iteratorIPS2_EET0_PT_
DA:1027,0
DA:1028,0
DA:1105,0
DA:1106,0
DA:1268,639
DA:1271,639
DA:1439,0
DA:1440,0
DA:1464,0
DA:1465,0
DA:1477,0
DA:1481,0
DA:1489,0
DA:1491,0
DA:1492,0
DA:1648,0
DA:1650,0
DA:1661,0
DA:1663,0
DA:1723,0
DA:1724,0
end_of_record
SF:/home/fz296w/workspace/Nexus/Nexus/src/registry/SharedMemoryRegistry.cpp
FN:28,_ZN5Nexus3rpc20SharedMemoryRegistryC2Ev
FNDA:207,_ZN5Nexus3rpc20SharedMemoryRegistryC2Ev
FN:31,_ZN5Nexus3rpc20SharedMemoryRegistryD2Ev
FNDA:206,_ZN5Nexus3rpc20SharedMemoryRegistryD2Ev
FN:88,_ZN5Nexus3rpc20SharedMemoryRegistry10initializeEv
FNDA:203,_ZN5Nexus3rpc20SharedMemoryRegistry10initializeEv
FN:311,_ZN5Nexus3rpc20SharedMemoryRegistry12registerNodeERKNSt7__cxx1112basic_stringIcSt11char_traitsIcESaIcEEES9_
FNDA:903,_ZN5Nexus3rpc20SharedMemoryRegistry12registerNodeERKNSt7__cxx1112basic_stringIcSt11char_traitsIcESaIcEEES9_
FN:403,_ZN5Nexus3rpc20SharedMemoryRegistry14unregisterNodeERKNSt7__cxx1112basic_stringIcSt11char_traitsIcESaIcEEE
FNDA:175,_ZN5Nexus3rpc20SharedMemoryRegistry14unregisterNodeERKNSt7__cxx1112basic_stringIcSt11char_traitsIcESaIcEEE
FN:447,_ZN5Nexus3rpc20SharedMemoryRegistry15updateHeartbeatERKNSt7__cxx1112basic_stringIcSt11char_traitsIcESaIcEEE
FNDA:234,_ZN5Nexus3rpc20SharedMemoryRegistry15updateHeartbeatERKNSt7__cxx1112basic_stringIcSt11char_traitsIcESaIcEEE
FN:482,_ZNK5Nexus3rpc20SharedMemoryRegistry11getAllNodesEv
FNDA:533,_ZNK5Nexus3rpc20SharedMemoryRegistry11getAllNodesEv
FN:519,_ZNK5Nexus3rpc20SharedMemoryRegistry8findNodeERKNSt7__cxx1112basic_stringIcSt11char_traitsIcESaIcEEERNS0_8NodeInfoE
FNDA:116,_ZNK5Nexus3rpc20SharedMemoryRegistry8findNodeERKNSt7__cxx1112basic_stringIcSt11char_traitsIcESaIcEEERNS0_8NodeInfoE
FN:548,_ZNK5Nexus3rpc20SharedMemoryRegistry10nodeExistsERKNSt7__cxx1112basic_stringIcSt11char_traitsIcESaIcEEE
FNDA:10,_ZNK5Nexus3rpc20SharedMemoryRegistry10nodeExistsERKNSt7__cxx1112basic_stringIcSt11char_traitsIcESaIcEEE
FN:569,_ZN5Nexus3rpc20SharedMemoryRegistry17cleanupStaleNodesEm
FNDA:159,_ZN5Nexus3rpc20SharedMemoryRegistry17cleanupStaleNodesEm
FN:672,_ZNK5Nexus3rpc20SharedMemoryRegistry18getActiveNodeCountEv
FNDA:4,_ZNK5Nexus3rpc20SharedMemoryRegistry18getActiveNodeCountEv
FN:681,_ZNK5Nexus3rpc20SharedMemoryRegistry16amICleanupMasterEv
FNDA:4,_ZNK5Nexus3rpc20SharedMemoryRegistry16amICleanupMasterEv
FN:711,_ZN5Nexus3rpc20SharedMemoryRegistry23cleanupOrphanedRegistryEv
FNDA:135,_ZN5Nexus3rpc20SharedMemoryRegistry23cleanupOrphanedRegistryEv
FN:832,_ZN5Nexus3rpc20SharedMemoryRegistry19forceRemoveRegistryEv
FNDA:51,_ZN5Nexus3rpc20SharedMemoryRegistry19forceRemoveRegistryEv
FN:894,_ZNK5Nexus3rpc20SharedMemoryRegistry14findEntryIndexERKNSt7__cxx1112basic_stringIcSt11char_traitsIcESaIcEEE
FNDA:1428,_ZNK5Nexus3rpc20SharedMemoryRegistry14findEntryIndexERKNSt7__cxx1112basic_stringIcSt11char_traitsIcESaIcEEE
FN:915,_ZNK5Nexus3rpc20SharedMemoryRegistry16getCurrentTimeMsEv
FNDA:1280,_ZNK5Nexus3rpc20SharedMemoryRegistry16getCurrentTimeMsEv
FN:926,_ZNK5Nexus3rpc20SharedMemoryRegistry14isProcessAliveEi
FNDA:204,_ZNK5Nexus3rpc20SharedMemoryRegistry14isProcessAliveEi
FN:934,_ZN5Nexus3rpc20SharedMemoryRegistry17writeAtomicStringEPSt6atomicImERKNSt7__cxx1112basic_stringIcSt11char_traitsIcESaIcEEEm
FNDA:1856,_ZN5Nexus3rpc20SharedMemoryRegistry17writeAtomicStringEPSt6atomicImERKNSt7__cxx1112basic_stringIcSt11char_traitsIcESaIcEEEm
FN:950,_ZN5Nexus3rpc20SharedMemoryRegistry16readAtomicStringB5cxx11EPKSt6atomicImEm
FNDA:78174,_ZN5Nexus3rpc20SharedMemoryRegistry16readAtomicStringB5cxx11EPKSt6atomicImEm
DA:28,207
DA:29,207
DA:31,206
DA:32,206
DA:34,190
DA:35,190
DA:37,190
DA:39,1
DA:40,1
DA:43,190
DA:45,190
DA:46,348
DA:47,348
DA:48,696
DA:49,190
DA:54,190
DA:55,190
DA:60,190
DA:61,190
DA:64,190
DA:65,190
DA:66,0
DA:70,190
DA:71,190
DA:72,190
DA:74,190
DA:75,190
DA:76,190
DA:79,190
DA:81,190
DA:83,122
DA:86,206
DA:88,203
DA:89,203
DA:90,2
DA:94,201
DA:95,201
DA:97,201
DA:99,77
DA:100,77
DA:101,0
DA:102,4
DA:107,77
DA:108,77
DA:109,2
DA:111,2
DA:112,0
DA:113,0
DA:114,0
DA:115,0
DA:117,2
DA:118,2
DA:119,75
DA:120,4
DA:123,4
DA:124,4
DA:125,4
DA:130,124
DA:131,0
DA:133,0
DA:134,0
DA:138,0
DA:139,0
DA:144,124
DA:145,124
DA:146,0
DA:149,0
DA:150,0
DA:151,0
DA:157,197
DA:158,197
DA:159,0
DA:160,0
DA:161,0
DA:165,0
DA:166,0
DA:168,0
DA:171,197
DA:173,197
DA:178,126
DA:179,126
DA:180,126
DA:181,126
DA:182,126
DA:185,126
DA:186,126
DA:187,126
DA:190,32382
DA:191,32256
DA:195,126
DA:198,32382
DA:199,32256
DA:201,290304
DA:202,258048
DA:203,258048
DA:205,32256
DA:206,32256
DA:211,126
DA:212,126
DA:216,126
DA:218,126
DA:221,71
DA:223,671
DA:225,665
DA:226,665
DA:228,65
DA:230,65
DA:232,0
DA:233,0
DA:234,0
DA:237,65
DA:239,130
DA:240,65
DA:243,65
DA:244,65
DA:247,223
DA:248,223
DA:249,446
DA:251,65
DA:252,65
DA:257,65
DA:258,65
DA:260,0
DA:263,0
DA:268,65
DA:270,65
DA:271,65
DA:276,600
DA:279,71
DA:280,6
DA:284,6
DA:287,6
DA:288,6
DA:289,6
DA:290,6
DA:292,6
DA:293,6
DA:296,6
DA:297,4
DA:300,6
DA:303,130
DA:307,191
DA:308,191
DA:311,903
DA:312,903
DA:313,0
DA:316,903
DA:317,4
DA:320,899
DA:321,4
DA:322,4
DA:326,895
DA:327,895
DA:328,0
DA:329,0
DA:333,895
DA:334,895
DA:336,2
DA:339,2
DA:340,2
DA:341,2
DA:342,2
DA:343,2
DA:347,2
DA:350,2
DA:352,2
DA:353,2
DA:359,893
DA:360,76828
DA:361,76826
DA:362,76826
DA:365,153652
DA:366,891
DA:367,891
DA:371,893
DA:372,2
DA:373,2
DA:377,891
DA:380,891
DA:381,891
DA:382,891
DA:383,891
DA:384,891
DA:385,891
DA:389,891
DA:392,891
DA:395,891
DA:397,1782
DA:400,891
DA:401,895
DA:403,175
DA:404,175
DA:405,0
DA:409,175
DA:410,175
DA:411,0
DA:412,0
DA:415,175
DA:416,175
DA:417,4
DA:421,171
DA:424,171
DA:427,171
DA:430,171
DA:434,1539
DA:435,1368
DA:436,1368
DA:438,171
DA:439,171
DA:441,342
DA:444,171
DA:445,175
DA:447,234
DA:448,234
DA:449,0
DA:453,234
DA:454,234
DA:455,2
DA:456,2
DA:459,232
DA:460,232
DA:461,4
DA:465,228
DA:466,228
DA:469,228
DA:470,228
DA:473,228
DA:474,228
DA:476,0
DA:479,228
DA:480,234
DA:482,533
DA:483,533
DA:485,533
DA:486,0
DA:490,533
DA:491,533
DA:492,0
DA:493,0
DA:496,136981
DA:497,136448
DA:499,136448
DA:501,136448
DA:502,135799
DA:506,649
DA:507,649
DA:508,649
DA:509,649
DA:510,649
DA:511,649
DA:513,649
DA:514,649
DA:516,533
DA:517,533
DA:519,116
DA:520,116
DA:521,0
DA:525,116
DA:526,116
DA:527,0
DA:528,0
DA:531,116
DA:532,116
DA:533,24
DA:536,92
DA:539,92
DA:540,92
DA:541,92
DA:542,92
DA:543,92
DA:545,92
DA:546,116
DA:548,10
DA:549,10
DA:550,0
DA:554,10
DA:555,10
DA:556,0
DA:559,10
DA:560,10
DA:561,6
DA:565,4
DA:566,4
DA:567,10
DA:569,159
DA:570,159
DA:571,0
DA:575,159
DA:576,159
DA:577,0
DA:578,0
DA:581,159
DA:582,159
DA:584,40863
DA:585,40704
DA:587,40704
DA:589,40704
DA:590,40500
DA:594,204
DA:595,204
DA:601,204
DA:602,0
DA:608,204
DA:609,204
DA:610,204
DA:613,0
DA:616,204
DA:617,204
DA:619,204
DA:621,5
DA:624,5
DA:627,5
DA:628,5
DA:629,8
DA:630,12
DA:632,1
DA:635,5
DA:639,5
DA:640,5
DA:643,10
DA:645,0
DA:649,5
DA:652,5
DA:655,5
DA:656,5
DA:657,45
DA:658,40
DA:659,40
DA:663,5
DA:665,5
DA:666,5
DA:669,159
DA:670,159
DA:672,4
DA:673,4
DA:674,0
DA:678,8
DA:681,4
DA:682,4
DA:683,0
DA:686,4
DA:687,4
DA:688,0
DA:691,4
DA:692,4
DA:695,1028
DA:696,1024
DA:697,1024
DA:699,6
DA:700,6
DA:701,4
DA:708,4
DA:709,4
DA:711,135
DA:713,135
DA:714,135
DA:715,4
DA:719,131
DA:720,131
DA:721,0
DA:724,0
DA:725,0
DA:728,131
DA:733,131
DA:734,131
DA:736,131
DA:738,131
DA:739,2
DA:740,2
DA:741,2
DA:742,2
DA:745,129
DA:747,0
DA:748,0
DA:749,129
DA:750,0
DA:751,0
DA:752,0
DA:753,0
DA:758,258
DA:760,124
DA:765,124
DA:768,31868
DA:769,31744
DA:770,31744
DA:771,4
DA:776,31868
DA:777,31744
DA:778,31744
DA:779,720
DA:780,720
DA:781,720
DA:786,124
DA:791,124
DA:793,110
DA:794,110
DA:795,110
DA:796,110
DA:797,110
DA:800,14
DA:802,14
DA:803,14
DA:804,14
DA:806,124
DA:809,5
DA:811,5
DA:813,4
DA:814,4
DA:815,4
DA:816,4
DA:817,4
DA:818,4
DA:822,1
DA:823,1
DA:824,1
DA:825,1
DA:829,125
DA:832,51
DA:834,51
DA:835,51
DA:836,32
DA:837,32
DA:838,32
DA:841,0
DA:842,0
DA:846,19
DA:847,19
DA:848,0
DA:850,0
DA:851,0
DA:852,0
DA:853,0
DA:855,0
DA:858,19
DA:862,19
DA:863,19
DA:865,19
DA:867,19
DA:868,0
DA:869,0
DA:872,19
DA:874,17
DA:875,17
DA:876,17
DA:877,17
DA:878,17
DA:879,17
DA:880,17
DA:882,0
DA:885,2
DA:886,2
DA:887,2
DA:888,2
DA:894,1428
DA:895,240097
DA:896,239166
DA:898,239166
DA:900,239166
DA:901,162559
DA:905,76607
DA:907,76607
DA:908,497
DA:910,76607
DA:911,931
DA:915,1280
DA:921,1280
DA:922,1280
DA:923,1280
DA:926,204
DA:927,204
DA:928,0
DA:930,204
DA:934,1856
DA:937,1856
DA:938,1856
DA:939,1856
DA:940,3712
DA:943,16704
DA:945,14848
DA:946,14848
DA:948,1856
DA:950,78174
DA:952,78174
DA:953,78174
DA:954,78174
DA:957,703566
DA:958,625392
DA:959,625392
DA:962,78174
DA:966,78174
DA:967,78174
DA:968,78174
end_of_record
SF:/usr/include/c++/11/bits/basic_string.h
FN:251,_ZNSt7__cxx1112basic_stringIcSt11char_traitsIcESaIcEE16_M_construct_auxIPcEEvT_S7_St12__false_type
FNDA:0,_ZNSt7__cxx1112basic_stringIcSt11char_traitsIcESaIcEE16_M_construct_auxIPcEEvT_S7_St12__false_type
FN:251,_ZNSt7__cxx1112basic_stringIcSt11char_traitsIcESaIcEE16_M_construct_auxIPKcEEvT_S8_St12__false_type
FNDA:0,_ZNSt7__cxx1112basic_stringIcSt11char_traitsIcESaIcEE16_M_construct_auxIPKcEEvT_S8_St12__false_type
FN:271,_ZNSt7__cxx1112basic_stringIcSt11char_traitsIcESaIcEE12_M_constructIPcEEvT_S7_
FNDA:0,_ZNSt7__cxx1112basic_stringIcSt11char_traitsIcESaIcEE12_M_constructIPcEEvT_S7_
FN:271,_ZNSt7__cxx1112basic_stringIcSt11char_traitsIcESaIcEE12_M_constructIPKcEEvT_S8_
FNDA:0,_ZNSt7__cxx1112basic_stringIcSt11char_traitsIcESaIcEE12_M_constructIPKcEEvT_S8_
FN:6160,_ZStplIcSt11char_traitsIcESaIcEENSt7__cxx1112basic_stringIT_T0_T1_EEOS8_RKS8_
FNDA:0,_ZStplIcSt11char_traitsIcESaIcEENSt7__cxx1112basic_stringIT_T0_T1_EEOS8_RKS8_
FN:6172,_ZStplIcSt11char_traitsIcESaIcEENSt7__cxx1112basic_stringIT_T0_T1_EEOS8_S9_
FNDA:8,_ZStplIcSt11char_traitsIcESaIcEENSt7__cxx1112basic_stringIT_T0_T1_EEOS8_S9_
FN:6194,_ZStplIcSt11char_traitsIcESaIcEENSt7__cxx1112basic_stringIT_T0_T1_EEPKS5_OS8_
FNDA:0,_ZStplIcSt11char_traitsIcESaIcEENSt7__cxx1112basic_stringIT_T0_T1_EEPKS5_OS8_
FN:6206,_ZStplIcSt11char_traitsIcESaIcEENSt7__cxx1112basic_stringIT_T0_T1_EEOS8_PKS5_
FNDA:0,_ZStplIcSt11char_traitsIcESaIcEENSt7__cxx1112basic_stringIT_T0_T1_EEOS8_PKS5_
FN:6234,_ZSteqIcEN9__gnu_cxx11__enable_ifIXsrSt9__is_charIT_E7__valueEbE6__typeERKNSt7__cxx1112basic_stringIS3_St11char_traitsIS3_ESaIS3_EEESE_
FNDA:0,_ZSteqIcEN9__gnu_cxx11__enable_ifIXsrSt9__is_charIT_E7__valueEbE6__typeERKNSt7__cxx1112basic_stringIS3_St11char_traitsIS3_ESaIS3_EEESE_
FN:6660,_ZNSt7__cxx119to_stringEi
FNDA:0,_ZNSt7__cxx119to_stringEi
FN:6671,_ZNSt7__cxx119to_stringEj
FNDA:0,_ZNSt7__cxx119to_stringEj
FN:6679,_ZNSt7__cxx119to_stringEl
FNDA:4,_ZNSt7__cxx119to_stringEl
FN:6690,_ZNSt7__cxx119to_stringEm
FNDA:915,_ZNSt7__cxx119to_stringEm
DA:251,0
DA:255,0
DA:256,0
DA:251,0
DA:255,0
DA:256,0
DA:271,0
DA:274,0
DA:275,0
DA:271,0
DA:274,0
DA:275,0
DA:6160,0
DA:6162,0
DA:6172,8
DA:6177,8
DA:6178,8
DA:6179,8
DA:6180,0
DA:6181,0
DA:6182,8
DA:6185,8
DA:6186,8
DA:6187,0
DA:6189,8
DA:6194,0
DA:6196,0
DA:6206,0
DA:6208,0
DA:6234,0
DA:6236,0
DA:6237,0
DA:6238,0
DA:6660,0
DA:6662,0
DA:6663,0
DA:6664,0
DA:6665,0
DA:6666,0
DA:6667,0
DA:6668,0
DA:6671,0
DA:6673,0
DA:6674,0
DA:6675,0
DA:6676,0
DA:6679,4
DA:6681,4
DA:6682,4
DA:6683,4
DA:6684,4
DA:6685,4
DA:6686,4
DA:6687,0
DA:6690,915
DA:6692,915
DA:6693,915
DA:6694,915
DA:6695,0
end_of_record
SF:/usr/include/c++/11/ext/new_allocator.h
FN:79,_ZN9__gnu_cxx13new_allocatorIcEC2Ev
FNDA:0,_ZN9__gnu_cxx13new_allocatorIcEC2Ev
FN:79,_ZN9__gnu_cxx13new_allocatorIN5Nexus3rpc8NodeInfoEEC2Ev
FNDA:0,_ZN9__gnu_cxx13new_allocatorIN5Nexus3rpc8NodeInfoEEC2Ev
FN:79,_ZN9__gnu_cxx13new_allocatorISt13_Rb_tree_nodeIiEEC2Ev
FNDA:124,_ZN9__gnu_cxx13new_allocatorISt13_Rb_tree_nodeIiEEC2Ev
FN:82,_ZN9__gnu_cxx13new_allocatorIcEC2ERKS1_
FNDA:0,_ZN9__gnu_cxx13new_allocatorIcEC2ERKS1_
FN:89,_ZN9__gnu_cxx13new_allocatorIcED2Ev
FNDA:0,_ZN9__gnu_cxx13new_allocatorIcED2Ev
FN:89,_ZN9__gnu_cxx13new_allocatorIN5Nexus3rpc8NodeInfoEED2Ev
FNDA:0,_ZN9__gnu_cxx13new_allocatorIN5Nexus3rpc8NodeInfoEED2Ev
FN:89,_ZN9__gnu_cxx13new_allocatorISt13_Rb_tree_nodeIiEED2Ev
FNDA:124,_ZN9__gnu_cxx13new_allocatorISt13_Rb_tree_nodeIiEED2Ev
FN:103,_ZN9__gnu_cxx13new_allocatorISt13_Rb_tree_nodeIiEE8allocateEmPKv
FNDA:14,_ZN9__gnu_cxx13new_allocatorISt13_Rb_tree_nodeIiEE8allocateEmPKv
FN:103,_ZN9__gnu_cxx13new_allocatorIN5Nexus3rpc8NodeInfoEE8allocateEmPKv
FNDA:639,_ZN9__gnu_cxx13new_allocatorIN5Nexus3rpc8NodeInfoEE8allocateEmPKv
FN:132,_ZN9__gnu_cxx13new_allocatorISt13_Rb_tree_nodeIiEE10deallocateEPS2_m
FNDA:14,_ZN9__gnu_cxx13new_allocatorISt13_Rb_tree_nodeIiEE10deallocateEPS2_m
FN:132,_ZN9__gnu_cxx13new_allocatorIN5Nexus3rpc8NodeInfoEE10deallocateEPS3_m
FNDA:0,_ZN9__gnu_cxx13new_allocatorIN5Nexus3rpc8NodeInfoEE10deallocateEPS3_m
FN:154,_ZNK9__gnu_cxx13new_allocatorIN5Nexus3rpc8NodeInfoEE8max_sizeEv
FNDA:1278,_ZNK9__gnu_cxx13new_allocatorIN5Nexus3rpc8NodeInfoEE8max_sizeEv
FN:160,_ZN9__gnu_cxx13new_allocatorISt13_Rb_tree_nodeIiEE9constructIiJRKiEEEvPT_DpOT0_
FNDA:14,_ZN9__gnu_cxx13new_allocatorISt13_Rb_tree_nodeIiEE9constructIiJRKiEEEvPT_DpOT0_
FN:160,_ZN9__gnu_cxx13new_allocatorIN5Nexus3rpc8NodeInfoEE9constructIS3_JRKS3_EEEvPT_DpOT0_
FNDA:649,_ZN9__gnu_cxx13new_allocatorIN5Nexus3rpc8NodeInfoEE9constructIS3_JRKS3_EEEvPT_DpOT0_
FN:160,_ZN9__gnu_cxx13new_allocatorIN5Nexus3rpc8NodeInfoEE9constructIS3_JS3_EEEvPT_DpOT0_
FNDA:144,_ZN9__gnu_cxx13new_allocatorIN5Nexus3rpc8NodeInfoEE9constructIS3_JS3_EEEvPT_DpOT0_
FN:166,_ZN9__gnu_cxx13new_allocatorIN5Nexus3rpc8NodeInfoEE7destroyIS3_EEvPT_
FNDA:144,_ZN9__gnu_cxx13new_allocatorIN5Nexus3rpc8NodeInfoEE7destroyIS3_EEvPT_
FN:166,_ZN9__gnu_cxx13new_allocatorISt13_Rb_tree_nodeIiEE7destroyIiEEvPT_
FNDA:14,_ZN9__gnu_cxx13new_allocatorISt13_Rb_tree_nodeIiEE7destroyIiEEvPT_
FN:197,_ZNK9__gnu_cxx13new_allocatorIN5Nexus3rpc8NodeInfoEE11_M_max_sizeEv
FNDA:1917,_ZNK9__gnu_cxx13new_allocatorIN5Nexus3rpc8NodeInfoEE11_M_max_sizeEv
FN:197,_ZNK9__gnu_cxx13new_allocatorISt13_Rb_tree_nodeIiEE11_M_max_sizeEv
FNDA:14,_ZNK9__gnu_cxx13new_allocatorISt13_Rb_tree_nodeIiEE11_M_max_sizeEv
DA:79,124
DA:79,0
DA:79,0
DA:82,0
DA:89,124
DA:89,0
DA:89,0
DA:103,14
DA:111,14
DA:115,0
DA:116,0
DA:117,0
DA:127,14
DA:103,639
DA:111,639
DA:115,0
DA:116,0
DA:117,0
DA:127,639
DA:132,14
DA:145,14
DA:150,14
DA:132,0
DA:145,0
DA:150,0
DA:154,1278
DA:155,1278
DA:160,144
DA:162,144
DA:160,14
DA:162,14
DA:160,649
DA:162,649
DA:166,14
DA:168,14
DA:166,144
DA:168,144
DA:197,14
DA:200,14
DA:197,1917
DA:200,1917
end_of_record
SF:/usr/include/c++/11/bits/stl_uninitialized.h
FN:85,_ZNSt20__uninitialized_copyILb0EE13__uninit_copyISt13move_iteratorIPN5Nexus3rpc8NodeInfoEES6_EET0_T_S9_S8_
FNDA:0,_ZNSt20__uninitialized_copyILb0EE13__uninit_copyISt13move_iteratorIPN5Nexus3rpc8NodeInfoEES6_EET0_T_S9_S8_
FN:126,_ZSt18uninitialized_copyISt13move_iteratorIPN5Nexus3rpc8NodeInfoEES4_ET0_T_S7_S6_
FNDA:0,_ZSt18uninitialized_copyISt13move_iteratorIPN5Nexus3rpc8NodeInfoEES4_ET0_T_S7_S6_
FN:331,_ZSt22__uninitialized_copy_aISt13move_iteratorIPN5Nexus3rpc8NodeInfoEES4_S3_ET0_T_S7_S6_RSaIT1_E
FNDA:0,_ZSt22__uninitialized_copy_aISt13move_iteratorIPN5Nexus3rpc8NodeInfoEES4_S3_ET0_T_S7_S6_RSaIT1_E
FN:349,_ZSt34__uninitialized_move_if_noexcept_aIPN5Nexus3rpc8NodeInfoES3_SaIS2_EET0_T_S6_S5_RT1_
FNDA:0,_ZSt34__uninitialized_move_if_noexcept_aIPN5Nexus3rpc8NodeInfoES3_SaIS2_EET0_T_S6_S5_RT1_
FN:986,_ZSt19__relocate_object_aIN5Nexus3rpc8NodeInfoES2_SaIS2_EEvPT_PT0_RT1_
FNDA:144,_ZSt19__relocate_object_aIN5Nexus3rpc8NodeInfoES2_SaIS2_EEvPT_PT0_RT1_
FN:1018,_ZSt14__relocate_a_1IPN5Nexus3rpc8NodeInfoES3_SaIS2_EET0_T_S6_S5_RT1_
FNDA:1278,_ZSt14__relocate_a_1IPN5Nexus3rpc8NodeInfoES3_SaIS2_EET0_T_S6_S5_RT1_
FN:1040,_ZSt12__relocate_aIPN5Nexus3rpc8NodeInfoES3_SaIS2_EET0_T_S6_S5_RT1_
FNDA:1278,_ZSt12__relocate_aIPN5Nexus3rpc8NodeInfoES3_SaIS2_EET0_T_S6_S5_RT1_
DA:85,0
DA:88,0
DA:91,0
DA:92,0
DA:93,0
DA:95,0
DA:97,0
DA:98,0
DA:126,0
DA:145,0
DA:151,0
DA:331,0
DA:333,0
DA:349,0
DA:355,0
DA:356,0
DA:986,144
DA:994,144
DA:995,144
DA:996,144
DA:1018,1278
DA:1030,1278
DA:1031,1422
DA:1032,144
DA:1034,1278
DA:1040,1278
DA:1046,1278
DA:1048,1278
end_of_record
SF:/usr/include/c++/11/bits/atomic_base.h
FN:98,_ZStorSt12memory_orderSt23__memory_order_modifier
FNDA:0,_ZStorSt12memory_orderSt23__memory_order_modifier
FN:104,_ZStanSt12memory_orderSt23__memory_order_modifier
FNDA:0,_ZStanSt12memory_orderSt23__memory_order_modifier
FN:111,_ZSt24__cmpexch_failure_order2St12memory_order
FNDA:0,_ZSt24__cmpexch_failure_order2St12memory_order
FN:118,_ZSt23__cmpexch_failure_orderSt12memory_order
FNDA:0,_ZSt23__cmpexch_failure_orderSt12memory_order
DA:98,0
DA:100,0
DA:104,0
DA:106,0
DA:111,0
DA:113,0
DA:114,0
DA:118,0
DA:121,0
DA:133,255
DA:459,667101
DA:464,667101
DA:465,667101
DA:484,1111704
DA:488,1111704
DA:558,77402
DA:560,77402
DA:561,77402
DA:579,77402
DA:580,77402
DA:618,2025
DA:628,366
end_of_record
SF:/usr/include/c++/11/bits/allocator.h
FN:156,_ZNSaISt13_Rb_tree_nodeIiEEC2Ev
FNDA:124,_ZNSaISt13_Rb_tree_nodeIiEEC2Ev
FN:156,_ZNSaIN5Nexus3rpc8NodeInfoEEC2Ev
FNDA:0,_ZNSaIN5Nexus3rpc8NodeInfoEEC2Ev
FN:174,_ZNSaISt13_Rb_tree_nodeIiEED2Ev
FNDA:124,_ZNSaISt13_Rb_tree_nodeIiEED2Ev
FN:174,_ZNSaIN5Nexus3rpc8NodeInfoEED2Ev
FNDA:0,_ZNSaIN5Nexus3rpc8NodeInfoEED2Ev
FN:204,_ZSteqRKSaIcES1_
FNDA:0,_ZSteqRKSaIcES1_
DA:156,124
DA:156,0
DA:174,124
DA:174,0
DA:204,0
DA:205,0
end_of_record
SF:/usr/include/c++/11/bits/move.h
FN:49,_ZSt11__addressofIN5Nexus3rpc8NodeInfoEEPT_RS3_
FNDA:0,_ZSt11__addressofIN5Nexus3rpc8NodeInfoEEPT_RS3_
FN:77,_ZSt7forwardIN5Nexus3rpc8NodeInfoEEOT_RNSt16remove_referenceIS3_E4typeE
FNDA:288,_ZSt7forwardIN5Nexus3rpc8NodeInfoEEOT_RNSt16remove_referenceIS3_E4typeE
FN:77,_ZSt7forwardIRPSt18_Rb_tree_node_baseEOT_RNSt16remove_referenceIS3_E4typeE
FNDA:0,_ZSt7forwardIRPSt18_Rb_tree_node_baseEOT_RNSt16remove_referenceIS3_E4typeE
FN:77,_ZSt7forwardIRPSt13_Rb_tree_nodeIiEEOT_RNSt16remove_referenceIS4_E4typeE
FNDA:14,_ZSt7forwardIRPSt13_Rb_tree_nodeIiEEOT_RNSt16remove_referenceIS4_E4typeE
FN:77,_ZSt7forwardIbEOT_RNSt16remove_referenceIS0_E4typeE
FNDA:0,_ZSt7forwardIbEOT_RNSt16remove_referenceIS0_E4typeE
FN:77,_ZSt7forwardISt17_Rb_tree_iteratorIiEEOT_RNSt16remove_referenceIS2_E4typeE
FNDA:724,_ZSt7forwardISt17_Rb_tree_iteratorIiEEOT_RNSt16remove_referenceIS2_E4typeE
FN:77,_ZSt7forwardIRbEOT_RNSt16remove_referenceIS1_E4typeE
FNDA:0,_ZSt7forwardIRbEOT_RNSt16remove_referenceIS1_E4typeE
FN:77,_ZSt7forwardIRSt17_Rb_tree_iteratorIiEEOT_RNSt16remove_referenceIS3_E4typeE
FNDA:724,_ZSt7forwardIRSt17_Rb_tree_iteratorIiEEOT_RNSt16remove_referenceIS3_E4typeE
FN:77,_ZSt7forwardIRKiEOT_RNSt16remove_referenceIS2_E4typeE
FNDA:0,_ZSt7forwardIRKiEOT_RNSt16remove_referenceIS2_E4typeE
FN:77,_ZSt7forwardIRKN5Nexus3rpc8NodeInfoEEOT_RNSt16remove_referenceIS5_E4typeE
FNDA:1937,_ZSt7forwardIRKN5Nexus3rpc8NodeInfoEEOT_RNSt16remove_referenceIS5_E4typeE
FN:104,_ZSt4moveIRN5Nexus3rpc8NodeInfoEEONSt16remove_referenceIT_E4typeEOS5_
FNDA:144,_ZSt4moveIRN5Nexus3rpc8NodeInfoEEONSt16remove_referenceIT_E4typeEOS5_
FN:104,_ZSt4moveIRPN5Nexus3rpc8NodeInfoEEONSt16remove_referenceIT_E4typeEOS6_
FNDA:0,_ZSt4moveIRPN5Nexus3rpc8NodeInfoEEONSt16remove_referenceIT_E4typeEOS6_
FN:104,_ZSt4moveIRNSt7__cxx1112basic_stringIcSt11char_traitsIcESaIcEEEEONSt16remove_referenceIT_E4typeEOS8_
FNDA:0,_ZSt4moveIRNSt7__cxx1112basic_stringIcSt11char_traitsIcESaIcEEEEONSt16remove_referenceIT_E4typeEOS8_
FN:104,_ZSt4moveIRSaIcEEONSt16remove_referenceIT_E4typeEOS3_
FNDA:0,_ZSt4moveIRSaIcEEONSt16remove_referenceIT_E4typeEOS3_
DA:49,0
DA:50,0
DA:77,288
DA:78,288
DA:77,0
DA:78,0
DA:77,14
DA:78,14
DA:77,0
DA:78,0
DA:77,724
DA:78,724
DA:77,0
DA:78,0
DA:77,724
DA:78,724
DA:77,0
DA:78,0
DA:77,1937
DA:78,1937
DA:104,144
DA:105,144
DA:104,0
DA:105,0
DA:104,0
DA:105,0
DA:104,0
DA:105,0
end_of_record
SF:/usr/include/c++/11/chrono
FN:223,_ZNSt6chrono20__duration_cast_implINS_8durationIlSt5ratioILl1ELl1EEEES2_ILl1ELl1000EElLb1ELb0EE6__castIlS5_EES4_RKNS1_IT_T0_EE
FNDA:0,_ZNSt6chrono20__duration_cast_implINS_8durationIlSt5ratioILl1ELl1EEEES2_ILl1ELl1000EElLb1ELb0EE6__castIlS5_EES4_RKNS1_IT_T0_EE
FN:223,_ZNSt6chrono20__duration_cast_implINS_8durationIlSt5ratioILl1ELl1000EEEES2_ILl1ELl1000000EElLb1ELb0EE6__castIlS2_ILl1ELl1000000000EEEES4_RKNS1_IT_T0_EE
FNDA:0,_ZNSt6chrono20__duration_cast_implINS_8durationIlSt5ratioILl1ELl1000EEEES2_ILl1ELl1000000EElLb1ELb0EE6__castIlS2_ILl1ELl1000000000EEEES4_RKNS1_IT_T0_EE
FN:236,_ZNSt6chrono20__duration_cast_implINS_8durationIlSt5ratioILl1ELl1000000000EEEES2_ILl1000000ELl1EElLb0ELb1EE6__castIlS2_ILl1ELl1000EEEES4_RKNS1_IT_T0_EE
FNDA:0,_ZNSt6chrono20__duration_cast_implINS_8durationIlSt5ratioILl1ELl1000000000EEEES2_ILl1000000ELl1EElLb0ELb1EE6__castIlS2_ILl1ELl1000EEEES4_RKNS1_IT_T0_EE
FN:236,_ZNSt6chrono20__duration_cast_implINS_8durationIlSt5ratioILl1ELl1000EEEES2_ILl1000ELl1EElLb0ELb1EE6__castIlS2_ILl1ELl1EEEES4_RKNS1_IT_T0_EE
FNDA:0,_ZNSt6chrono20__duration_cast_implINS_8durationIlSt5ratioILl1ELl1000EEEES2_ILl1000ELl1EElLb0ELb1EE6__castIlS2_ILl1ELl1EEEES4_RKNS1_IT_T0_EE
FN:267,_ZNSt6chrono13duration_castINS_8durationIlSt5ratioILl1ELl1000EEEElS2_ILl1ELl1EEEENSt9enable_ifIXsrNS_13__is_durationIT_EE5valueES8_E4typeERKNS1_IT0_T1_EE
FNDA:0,_ZNSt6chrono13duration_castINS_8durationIlSt5ratioILl1ELl1000EEEElS2_ILl1ELl1EEEENSt9enable_ifIXsrNS_13__is_durationIT_EE5valueES8_E4typeERKNS1_IT0_T1_EE
FN:267,_ZNSt6chrono13duration_castINS_8durationIlSt5ratioILl1ELl1000000000EEEElS2_ILl1ELl1000EEEENSt9enable_ifIXsrNS_13__is_durationIT_EE5valueES8_E4typeERKNS1_IT0_T1_EE
FNDA:0,_ZNSt6chrono13duration_castINS_8durationIlSt5ratioILl1ELl1000000000EEEElS2_ILl1ELl1000EEEENSt9enable_ifIXsrNS_13__is_durationIT_EE5valueES8_E4typeERKNS1_IT0_T1_EE
FN:267,_ZNSt6chrono13duration_castINS_8durationIlSt5ratioILl1ELl1EEEElS2_ILl1ELl1000EEEENSt9enable_ifIXsrNS_13__is_durationIT_EE5valueES8_E4typeERKNS1_IT0_T1_EE
FNDA:0,_ZNSt6chrono13duration_castINS_8durationIlSt5ratioILl1ELl1EEEElS2_ILl1ELl1000EEEENSt9enable_ifIXsrNS_13__is_durationIT_EE5valueES8_E4typeERKNS1_IT0_T1_EE
FN:267,_ZNSt6chrono13duration_castINS_8durationIlSt5ratioILl1ELl1000EEEElS2_ILl1ELl1000000000EEEENSt9enable_ifIXsrNS_13__is_durationIT_EE5valueES8_E4typeERKNS1_IT0_T1_EE
FNDA:0,_ZNSt6chrono13duration_castINS_8durationIlSt5ratioILl1ELl1000EEEElS2_ILl1ELl1000000000EEEENSt9enable_ifIXsrNS_13__is_durationIT_EE5valueES8_E4typeERKNS1_IT0_T1_EE
FN:432,_ZNSt6chrono15duration_valuesIlE4zeroEv
FNDA:0,_ZNSt6chrono15duration_valuesIlE4zeroEv
FN:521,_ZNSt6chrono8durationIlSt5ratioILl1ELl1000EEEC2IlvEERKT_
FNDA:0,_ZNSt6chrono8durationIlSt5ratioILl1ELl1000EEEC2IlvEERKT_
FN:521,_ZNSt6chrono8durationIlSt5ratioILl1ELl1000000000EEEC1IlvEERKT_
FNDA:0,_ZNSt6chrono8durationIlSt5ratioILl1ELl1000000000EEEC1IlvEERKT_
FN:521,_ZNSt6chrono8durationIlSt5ratioILl1ELl1000EEEC2IivEERKT_
FNDA:0,_ZNSt6chrono8durationIlSt5ratioILl1ELl1000EEEC2IivEERKT_
FN:521,_ZNSt6chrono8durationIlSt5ratioILl1ELl1EEEC2IlvEERKT_
FNDA:0,_ZNSt6chrono8durationIlSt5ratioILl1ELl1EEEC2IlvEERKT_
FN:529,_ZNSt6chrono8durationIlSt5ratioILl1ELl1000EEEC2IlS1_ILl1ELl1EEvEERKNS0_IT_T0_EE
FNDA:0,_ZNSt6chrono8durationIlSt5ratioILl1ELl1000EEEC2IlS1_ILl1ELl1EEvEERKNS0_IT_T0_EE
FN:537,_ZNKSt6chrono8durationIlSt5ratioILl1ELl1000000000EEE5countEv
FNDA:0,_ZNKSt6chrono8durationIlSt5ratioILl1ELl1000000000EEE5countEv
FN:537,_ZNKSt6chrono8durationIlSt5ratioILl1ELl1000EEE5countEv
FNDA:0,_ZNKSt6chrono8durationIlSt5ratioILl1ELl1000EEE5countEv
FN:537,_ZNKSt6chrono8durationIlSt5ratioILl1ELl1EEE5countEv
FNDA:0,_ZNKSt6chrono8durationIlSt5ratioILl1ELl1EEE5countEv
FN:623,_ZNSt6chrono8durationIlSt5ratioILl1ELl1000EEE4zeroEv
FNDA:0,_ZNSt6chrono8durationIlSt5ratioILl1ELl1000EEE4zeroEv
FN:660,_ZNSt6chronomiIlSt5ratioILl1ELl1000EElS1_ILl1ELl1EEEENSt11common_typeIJNS_8durationIT_T0_EENS5_IT1_T2_EEEE4typeERKS8_RKSB_
FNDA:0,_ZNSt6chronomiIlSt5ratioILl1ELl1000EElS1_ILl1ELl1EEEENSt11common_typeIJNS_8durationIT_T0_EENS5_IT1_T2_EEEE4typeERKS8_RKSB_
FN:772,_ZNSt6chronoltIlSt5ratioILl1ELl1000EElS2_EEbRKNS_8durationIT_T0_EERKNS3_IT1_T2_EE
FNDA:0,_ZNSt6chronoltIlSt5ratioILl1ELl1000EElS2_EEbRKNS_8durationIT_T0_EERKNS3_IT1_T2_EE
FN:805,_ZNSt6chronoleIlSt5ratioILl1ELl1000EElS2_EEbRKNS_8durationIT_T0_EERKNS3_IT1_T2_EE
FNDA:0,_ZNSt6chronoleIlSt5ratioILl1ELl1000EElS2_EEbRKNS_8durationIT_T0_EERKNS3_IT1_T2_EE
FN:898,_ZNKSt6chrono10time_pointINS_3_V212steady_clockENS_8durationIlSt5ratioILl1ELl1000000000EEEEE16time_since_epochEv
FNDA:0,_ZNKSt6chrono10time_pointINS_3_V212steady_clockENS_8durationIlSt5ratioILl1ELl1000000000EEEEE16time_since_epochEv
DA:223,0
DA:226,0
DA:227,0
DA:223,0
DA:226,0
DA:227,0
DA:236,0
DA:239,0
DA:240,0
DA:236,0
DA:239,0
DA:240,0
DA:267,0
DA:276,0
DA:267,0
DA:276,0
DA:267,0
DA:276,0
DA:267,0
DA:276,0
DA:432,0
DA:433,0
DA:521,0
DA:522,0
DA:521,0
DA:522,0
DA:521,0
DA:522,0
DA:521,0
DA:522,0
DA:529,0
DA:530,0
DA:537,0
DA:538,0
DA:537,0
DA:538,0
DA:537,0
DA:538,0
DA:623,0
DA:624,0
DA:660,0
DA:666,0
DA:772,0
DA:778,0
DA:805,0
DA:807,0
DA:898,0
DA:899,0
end_of_record
TN:
SF:/usr/include/c++/11/bits/alloc_traits.h
FN:463,_ZNSt16allocator_traitsISaISt13_Rb_tree_nodeISt4pairIKNSt7__cxx1112basic_stringIcSt11char_traitsIcESaIcEEESt6vectorIN5Nexus3rpc17ServiceDescriptorESaISC_EEEEEE8allocateERSH_m
FNDA:23,_ZNSt16allocator_traitsISaISt13_Rb_tree_nodeISt4pairIKNSt7__cxx1112basic_stringIcSt11char_traitsIcESaIcEEESt6vectorIN5Nexus3rpc17ServiceDescriptorESaISC_EEEEEE8allocateERSH_m
FN:463,_ZNSt16allocator_traitsISaISt10shared_ptrIN5Nexus3rpc8NodeImplEEEE8allocateERS5_m
FNDA:117,_ZNSt16allocator_traitsISaISt10shared_ptrIN5Nexus3rpc8NodeImplEEEE8allocateERS5_m
FN:463,_ZNSt16allocator_traitsISaISt13_Rb_tree_nodeISt4pairIKNSt7__cxx1112basic_stringIcSt11char_traitsIcESaIcEEESt8weak_ptrIN5Nexus3rpc8NodeImplEEEEEE8allocateERSG_m
FNDA:55,_ZNSt16allocator_traitsISaISt13_Rb_tree_nodeISt4pairIKNSt7__cxx1112basic_stringIcSt11char_traitsIcESaIcEEESt8weak_ptrIN5Nexus3rpc8NodeImplEEEEEE8allocateERSG_m
FN:463,_ZNSt16allocator_traitsISaIN5Nexus3rpc17ServiceDescriptorEEE8allocateERS3_m
FNDA:0,_ZNSt16allocator_traitsISaIN5Nexus3rpc17ServiceDescriptorEEE8allocateERS3_m
FN:495,_ZNSt16allocator_traitsISaISt10shared_ptrIN5Nexus3rpc8NodeImplEEEE10deallocateERS5_PS4_m
FNDA:0,_ZNSt16allocator_traitsISaISt10shared_ptrIN5Nexus3rpc8NodeImplEEEE10deallocateERS5_PS4_m
FN:495,_ZNSt16allocator_traitsISaIN5Nexus3rpc17ServiceDescriptorEEE10deallocateERS3_PS2_m
FNDA:0,_ZNSt16allocator_traitsISaIN5Nexus3rpc17ServiceDescriptorEEE10deallocateERS3_PS2_m
FN:495,_ZNSt16allocator_traitsISaISt13_Rb_tree_nodeISt4pairIKNSt7__cxx1112basic_stringIcSt11char_traitsIcESaIcEEESt6vectorIN5Nexus3rpc17ServiceDescriptorESaISC_EEEEEE10deallocateERSH_PSG_m
FNDA:23,_ZNSt16allocator_traitsISaISt13_Rb_tree_nodeISt4pairIKNSt7__cxx1112basic_stringIcSt11char_traitsIcESaIcEEESt6vectorIN5Nexus3rpc17ServiceDescriptorESaISC_EEEEEE10deallocateERSH_PSG_m
FN:495,_ZNSt16allocator_traitsISaISt13_Rb_tree_nodeISt4pairIKNSt7__cxx1112basic_stringIcSt11char_traitsIcESaIcEEESt8weak_ptrIN5Nexus3rpc8NodeImplEEEEEE10deallocateERSG_PSF_m
FNDA:55,_ZNSt16allocator_traitsISaISt13_Rb_tree_nodeISt4pairIKNSt7__cxx1112basic_stringIcSt11char_traitsIcESaIcEEESt8weak_ptrIN5Nexus3rpc8NodeImplEEEEEE10deallocateERSG_PSF_m
FN:511,_ZNSt16allocator_traitsISaISt10shared_ptrIN5Nexus3rpc8NodeImplEEEE9constructIS4_JS4_EEEvRS5_PT_DpOT0_
FNDA:18,_ZNSt16allocator_traitsISaISt10shared_ptrIN5Nexus3rpc8NodeImplEEEE9constructIS4_JS4_EEEvRS5_PT_DpOT0_
FN:511,_ZNSt16allocator_traitsISaISt10shared_ptrIN5Nexus3rpc8NodeImplEEEE9constructIS4_JRKS4_EEEvRS5_PT_DpOT0_
FNDA:117,_ZNSt16allocator_traitsISaISt10shared_ptrIN5Nexus3rpc8NodeImplEEEE9constructIS4_JRKS4_EEEvRS5_PT_DpOT0_
FN:511,_ZNSt16allocator_traitsISaIN5Nexus3rpc17ServiceDescriptorEEE9constructIS2_JRKS2_EEEvRS3_PT_DpOT0_
FNDA:0,_ZNSt16allocator_traitsISaIN5Nexus3rpc17ServiceDescriptorEEE9constructIS2_JRKS2_EEEvRS3_PT_DpOT0_
FN:511,_ZNSt16allocator_traitsISaISt13_Rb_tree_nodeISt4pairIKNSt7__cxx1112basic_stringIcSt11char_traitsIcESaIcEEESt8weak_ptrIN5Nexus3rpc8NodeImplEEEEEE9constructISE_JRKSt21piecewise_construct_tSt5tupleIJRS8_EESM_IJEEEEEvRSG_PT_DpOT0_
FNDA:55,_ZNSt16allocator_traitsISaISt13_Rb_tree_nodeISt4pairIKNSt7__cxx1112basic_stringIcSt11char_traitsIcESaIcEEESt8weak_ptrIN5Nexus3rpc8NodeImplEEEEEE9constructISE_JRKSt21piecewise_construct_tSt5tupleIJRS8_EESM_IJEEEEEvRSG_PT_DpOT0_
FN:511,_ZNSt16allocator_traitsISaISt13_Rb_tree_nodeISt4pairIKNSt7__cxx1112basic_stringIcSt11char_traitsIcESaIcEEESt6vectorIN5Nexus3rpc17ServiceDescriptorESaISC_EEEEEE9constructISF_JRKSt21piecewise_construct_tSt5tupleIJRS8_EESN_IJEEEEEvRSH_PT_DpOT0_
FNDA:23,_ZNSt16allocator_traitsISaISt13_Rb_tree_nodeISt4pairIKNSt7__cxx1112basic_stringIcSt11char_traitsIcESaIcEEESt6vectorIN5Nexus3rpc17ServiceDescriptorESaISC_EEEEEE9constructISF_JRKSt21piecewise_construct_tSt5tupleIJRS8_EESN_IJEEEEEvRSH_PT_DpOT0_
FN:511,_ZNSt16allocator_traitsISaIN5Nexus3rpc17ServiceDescriptorEEE9constructIS2_JS2_EEEvRS3_PT_DpOT0_
FNDA:0,_ZNSt16allocator_traitsISaIN5Nexus3rpc17ServiceDescriptorEEE9constructIS2_JS2_EEEvRS3_PT_DpOT0_
FN:531,_ZNSt16allocator_traitsISaISt13_Rb_tree_nodeISt4pairIKNSt7__cxx1112basic_stringIcSt11char_traitsIcESaIcEEESt8weak_ptrIN5Nexus3rpc8NodeImplEEEEEE7destroyISE_EEvRSG_PT_
FNDA:55,_ZNSt16allocator_traitsISaISt13_Rb_tree_nodeISt4pairIKNSt7__cxx1112basic_stringIcSt11char_traitsIcESaIcEEESt8weak_ptrIN5Nexus3rpc8NodeImplEEEEEE7destroyISE_EEvRSG_PT_
FN:531,_ZNSt16allocator_traitsISaISt13_Rb_tree_nodeISt4pairIKNSt7__cxx1112basic_stringIcSt11char_traitsIcESaIcEEESt6vectorIN5Nexus3rpc17ServiceDescriptorESaISC_EEEEEE7destroyISF_EEvRSH_PT_
FNDA:23,_ZNSt16allocator_traitsISaISt13_Rb_tree_nodeISt4pairIKNSt7__cxx1112basic_stringIcSt11char_traitsIcESaIcEEESt6vectorIN5Nexus3rpc17ServiceDescriptorESaISC_EEEEEE7destroyISF_EEvRSH_PT_
FN:531,_ZNSt16allocator_traitsISaIN5Nexus3rpc17ServiceDescriptorEEE7destroyIS2_EEvRS3_PT_
FNDA:0,_ZNSt16allocator_traitsISaIN5Nexus3rpc17ServiceDescriptorEEE7destroyIS2_EEvRS3_PT_
FN:531,_ZNSt16allocator_traitsISaISt10shared_ptrIN5Nexus3rpc8NodeImplEEEE7destroyIS4_EEvRS5_PT_
FNDA:18,_ZNSt16allocator_traitsISaISt10shared_ptrIN5Nexus3rpc8NodeImplEEEE7destroyIS4_EEvRS5_PT_
FN:547,_ZNSt16allocator_traitsISaISt10shared_ptrIN5Nexus3rpc8NodeImplEEEE8max_sizeERKS5_
FNDA:234,_ZNSt16allocator_traitsISaISt10shared_ptrIN5Nexus3rpc8NodeImplEEEE8max_sizeERKS5_
FN:547,_ZNSt16allocator_traitsISaIN5Nexus3rpc17ServiceDescriptorEEE8max_sizeERKS3_
FNDA:0,_ZNSt16allocator_traitsISaIN5Nexus3rpc17ServiceDescriptorEEE8max_sizeERKS3_
FN:562,_ZNSt16allocator_traitsISaIcEE37select_on_container_copy_constructionERKS0_
FNDA:0,_ZNSt16allocator_traitsISaIcEE37select_on_container_copy_constructionERKS0_
FN:672,_ZSt18__do_alloc_on_copyISaIN5Nexus3rpc17ServiceDescriptorEEEvRT_RKS4_St17integral_constantIbLb0EE
FNDA:0,_ZSt18__do_alloc_on_copyISaIN5Nexus3rpc17ServiceDescriptorEEEvRT_RKS4_St17integral_constantIbLb0EE
FN:678,_ZSt15__alloc_on_copyISaIN5Nexus3rpc17ServiceDescriptorEEEvRT_RKS4_
FNDA:0,_ZSt15__alloc_on_copyISaIN5Nexus3rpc17ServiceDescriptorEEEvRT_RKS4_
FN:845,_ZSt8_DestroyIN9__gnu_cxx17__normal_iteratorIPN5Nexus3rpc17ServiceDescriptorESt6vectorIS4_SaIS4_EEEES4_EvT_SA_RSaIT0_E
FNDA:0,_ZSt8_DestroyIN9__gnu_cxx17__normal_iteratorIPN5Nexus3rpc17ServiceDescriptorESt6vectorIS4_SaIS4_EEEES4_EvT_SA_RSaIT0_E
FN:845,_ZSt8_DestroyIPN5Nexus3rpc17ServiceDescriptorES2_EvT_S4_RSaIT0_E
FNDA:0,_ZSt8_DestroyIPN5Nexus3rpc17ServiceDescriptorES2_EvT_S4_RSaIT0_E
FN:845,_ZSt8_DestroyIPSt10shared_ptrIN5Nexus3rpc8NodeImplEES4_EvT_S6_RSaIT0_E
FNDA:0,_ZSt8_DestroyIPSt10shared_ptrIN5Nexus3rpc8NodeImplEES4_EvT_S6_RSaIT0_E
DA:463,23
DA:464,23
DA:463,55
DA:464,55
DA:463,0
DA:464,0
DA:463,117
DA:464,117
DA:495,23
DA:496,23
DA:495,55
DA:496,55
DA:495,0
DA:496,0
DA:495,0
DA:496,0
DA:511,0
DA:516,0
DA:520,0
DA:511,18
DA:516,18
DA:520,18
DA:511,23
DA:516,23
DA:520,23
DA:511,55
DA:516,55
DA:520,55
DA:511,0
DA:516,0
DA:520,0
DA:511,117
DA:516,117
DA:520,117
DA:531,23
DA:535,23
DA:539,23
DA:531,55
DA:535,55
DA:539,55
DA:531,0
DA:535,0
DA:539,0
DA:531,18
DA:535,18
DA:539,18
DA:547,0
DA:550,0
DA:547,234
DA:550,234
DA:562,0
DA:563,0
DA:672,0
DA:673,0
DA:678,0
DA:686,0
DA:688,0
DA:845,0
DA:848,0
DA:849,0
DA:845,0
DA:848,0
DA:849,0
DA:845,0
DA:848,0
DA:849,0
end_of_record
SF:/usr/include/c++/11/bits/predefined_ops.h
FN:310,_ZN9__gnu_cxx5__ops10_Iter_predIZN5Nexus3rpc14GlobalRegistry17unregisterServiceERKNSt7__cxx1112basic_stringIcSt11char_traitsIcESaIcEEERKNS3_17ServiceDescriptorEEUlSF_E_EC2ESG_
FNDA:11,_ZN9__gnu_cxx5__ops10_Iter_predIZN5Nexus3rpc14GlobalRegistry17unregisterServiceERKNSt7__cxx1112basic_stringIcSt11char_traitsIcESaIcEEERKNS3_17ServiceDescriptorEEUlSF_E_EC2ESG_
FN:310,_ZN9__gnu_cxx5__ops10_Iter_predIZN5Nexus3rpc14GlobalRegistry14unregisterNodeERKNSt7__cxx1112basic_stringIcSt11char_traitsIcESaIcEEEEUlRKNS3_17ServiceDescriptorEE_EC2ESG_
FNDA:14,_ZN9__gnu_cxx5__ops10_Iter_predIZN5Nexus3rpc14GlobalRegistry14unregisterNodeERKNSt7__cxx1112basic_stringIcSt11char_traitsIcESaIcEEEEUlRKNS3_17ServiceDescriptorEE_EC2ESG_
FN:317,_ZN9__gnu_cxx5__ops10_Iter_predIZN5Nexus3rpc14GlobalRegistry17unregisterServiceERKNSt7__cxx1112basic_stringIcSt11char_traitsIcESaIcEEERKNS3_17ServiceDescriptorEEUlSF_E_EclINS_17__normal_iteratorIPSD_St6vectorISD_SaISD_EEEEEEbT_
FNDA:13,_ZN9__gnu_cxx5__ops10_Iter_predIZN5Nexus3rpc14GlobalRegistry17unregisterServiceERKNSt7__cxx1112basic_stringIcSt11char_traitsIcESaIcEEERKNS3_17ServiceDescriptorEEUlSF_E_EclINS_17__normal_iteratorIPSD_St6vectorISD_SaISD_EEEEEEbT_
FN:317,_ZN9__gnu_cxx5__ops10_Iter_predIZN5Nexus3rpc14GlobalRegistry14unregisterNodeERKNSt7__cxx1112basic_stringIcSt11char_traitsIcESaIcEEEEUlRKNS3_17ServiceDescriptorEE_EclINS_17__normal_iteratorIPSD_St6vectorISD_SaISD_EEEEEEbT_
FNDA:16,_ZN9__gnu_cxx5__ops10_Iter_predIZN5Nexus3rpc14GlobalRegistry14unregisterNodeERKNSt7__cxx1112basic_stringIcSt11char_traitsIcESaIcEEEEUlRKNS3_17ServiceDescriptorEE_EclINS_17__normal_iteratorIPSD_St6vectorISD_SaISD_EEEEEEbT_
FN:324,_ZN9__gnu_cxx5__ops11__pred_iterIZN5Nexus3rpc14GlobalRegistry17unregisterServiceERKNSt7__cxx1112basic_stringIcSt11char_traitsIcESaIcEEERKNS3_17ServiceDescriptorEEUlSF_E_EENS0_10_Iter_predIT_EESI_
FNDA:11,_ZN9__gnu_cxx5__ops11__pred_iterIZN5Nexus3rpc14GlobalRegistry17unregisterServiceERKNSt7__cxx1112basic_stringIcSt11char_traitsIcESaIcEEERKNS3_17ServiceDescriptorEEUlSF_E_EENS0_10_Iter_predIT_EESI_
FN:324,_ZN9__gnu_cxx5__ops11__pred_iterIZN5Nexus3rpc14GlobalRegistry14unregisterNodeERKNSt7__cxx1112basic_stringIcSt11char_traitsIcESaIcEEEEUlRKNS3_17ServiceDescriptorEE_EENS0_10_Iter_predIT_EESI_
FNDA:14,_ZN9__gnu_cxx5__ops11__pred_iterIZN5Nexus3rpc14GlobalRegistry14unregisterNodeERKNSt7__cxx1112basic_stringIcSt11char_traitsIcESaIcEEEEUlRKNS3_17ServiceDescriptorEE_EENS0_10_Iter_predIT_EESI_
DA:310,11
DA:311,11
DA:312,11
DA:310,14
DA:311,14
DA:312,14
DA:317,13
DA:318,13
DA:317,16
DA:318,16
DA:324,11
DA:325,11
DA:324,14
DA:325,14
end_of_record
SF:/usr/include/c++/11/bits/shared_ptr_base.h
FN:147,_ZNSt16_Sp_counted_baseILN9__gnu_cxx12_Lock_policyE2EE15_M_add_ref_copyEv
FNDA:0,_ZNSt16_Sp_counted_baseILN9__gnu_cxx12_Lock_policyE2EE15_M_add_ref_copyEv
FN:161,_ZNSt16_Sp_counted_baseILN9__gnu_cxx12_Lock_policyE2EE10_M_releaseEv
FNDA:0,_ZNSt16_Sp_counted_baseILN9__gnu_cxx12_Lock_policyE2EE10_M_releaseEv
FN:190,_ZNSt16_Sp_counted_baseILN9__gnu_cxx12_Lock_policyE2EE15_M_weak_add_refEv
FNDA:0,_ZNSt16_Sp_counted_baseILN9__gnu_cxx12_Lock_policyE2EE15_M_weak_add_refEv
FN:194,_ZNSt16_Sp_counted_baseILN9__gnu_cxx12_Lock_policyE2EE15_M_weak_releaseEv
FNDA:0,_ZNSt16_Sp_counted_baseILN9__gnu_cxx12_Lock_policyE2EE15_M_weak_releaseEv
FN:212,_ZNKSt16_Sp_counted_baseILN9__gnu_cxx12_Lock_policyE2EE16_M_get_use_countEv
FNDA:0,_ZNKSt16_Sp_counted_baseILN9__gnu_cxx12_Lock_policyE2EE16_M_get_use_countEv
FN:254,_ZNSt16_Sp_counted_baseILN9__gnu_cxx12_Lock_policyE2EE23_M_add_ref_lock_nothrowEv
FNDA:0,_ZNSt16_Sp_counted_baseILN9__gnu_cxx12_Lock_policyE2EE23_M_add_ref_lock_nothrowEv
FN:587,_ZNSt14__shared_countILN9__gnu_cxx12_Lock_policyE2EEC2Ev
FNDA:0,_ZNSt14__shared_countILN9__gnu_cxx12_Lock_policyE2EEC2Ev
FN:702,_ZNSt14__shared_countILN9__gnu_cxx12_Lock_policyE2EED2Ev
FNDA:0,_ZNSt14__shared_countILN9__gnu_cxx12_Lock_policyE2EED2Ev
FN:708,_ZNSt14__shared_countILN9__gnu_cxx12_Lock_policyE2EEC2ERKS2_
FNDA:0,_ZNSt14__shared_countILN9__gnu_cxx12_Lock_policyE2EEC2ERKS2_
FN:731,_ZNSt14__shared_countILN9__gnu_cxx12_Lock_policyE2EE7_M_swapERS2_
FNDA:0,_ZNSt14__shared_countILN9__gnu_cxx12_Lock_policyE2EE7_M_swapERS2_
FN:739,_ZNKSt14__shared_countILN9__gnu_cxx12_Lock_policyE2EE16_M_get_use_countEv
FNDA:172,_ZNKSt14__shared_countILN9__gnu_cxx12_Lock_policyE2EE16_M_get_use_countEv
FN:774,_ZNSt12__weak_countILN9__gnu_cxx12_Lock_policyE2EEC2Ev
FNDA:0,_ZNSt12__weak_countILN9__gnu_cxx12_Lock_policyE2EEC2Ev
FN:795,_ZNSt12__weak_countILN9__gnu_cxx12_Lock_policyE2EED2Ev
FNDA:0,_ZNSt12__weak_countILN9__gnu_cxx12_Lock_policyE2EED2Ev
FN:814,_ZNSt12__weak_countILN9__gnu_cxx12_Lock_policyE2EEaSERKS2_
FNDA:55,_ZNSt12__weak_countILN9__gnu_cxx12_Lock_policyE2EEaSERKS2_
FN:879,_ZNSt14__shared_countILN9__gnu_cxx12_Lock_policyE2EEC2ERKSt12__weak_countILS1_2EESt9nothrow_t
FNDA:172,_ZNSt14__shared_countILN9__gnu_cxx12_Lock_policyE2EEC2ERKSt12__weak_countILS1_2EESt9nothrow_t
FN:1092,_ZNSt12__shared_ptrIN5Nexus3rpc8NodeImplELN9__gnu_cxx12_Lock_policyE2EEC2Ev
FNDA:55,_ZNSt12__shared_ptrIN5Nexus3rpc8NodeImplELN9__gnu_cxx12_Lock_policyE2EEC2Ev
FN:1152,_ZNSt12__shared_ptrIN5Nexus3rpc8NodeImplELN9__gnu_cxx12_Lock_policyE2EEC2ERKS5_
FNDA:117,_ZNSt12__shared_ptrIN5Nexus3rpc8NodeImplELN9__gnu_cxx12_Lock_policyE2EEC2ERKS5_
FN:1154,_ZNSt12__shared_ptrIN5Nexus3rpc8NodeImplELN9__gnu_cxx12_Lock_policyE2EED2Ev
FNDA:0,_ZNSt12__shared_ptrIN5Nexus3rpc8NodeImplELN9__gnu_cxx12_Lock_policyE2EED2Ev
FN:1161,_ZNSt12__shared_ptrIN5Nexus3rpc8NodeImplELN9__gnu_cxx12_Lock_policyE2EEC2EOS5_
FNDA:0,_ZNSt12__shared_ptrIN5Nexus3rpc8NodeImplELN9__gnu_cxx12_Lock_policyE2EEC2EOS5_
FN:1299,_ZNKSt12__shared_ptrIN5Nexus3rpc8NodeImplELN9__gnu_cxx12_Lock_policyE2EEcvbEv
FNDA:0,_ZNKSt12__shared_ptrIN5Nexus3rpc8NodeImplELN9__gnu_cxx12_Lock_policyE2EEcvbEv
FN:1352,_ZNSt12__shared_ptrIN5Nexus3rpc8NodeImplELN9__gnu_cxx12_Lock_policyE2EEC2ERKSt10__weak_ptrIS2_LS4_2EESt9nothrow_t
FNDA:172,_ZNSt12__shared_ptrIN5Nexus3rpc8NodeImplELN9__gnu_cxx12_Lock_policyE2EEC2ERKSt10__weak_ptrIS2_LS4_2EESt9nothrow_t
FN:1604,_ZNSt10__weak_ptrIN5Nexus3rpc8NodeImplELN9__gnu_cxx12_Lock_policyE2EEC2Ev
FNDA:0,_ZNSt10__weak_ptrIN5Nexus3rpc8NodeImplELN9__gnu_cxx12_Lock_policyE2EEC2Ev
FN:1610,_ZNSt10__weak_ptrIN5Nexus3rpc8NodeImplELN9__gnu_cxx12_Lock_policyE2EED2Ev
FNDA:0,_ZNSt10__weak_ptrIN5Nexus3rpc8NodeImplELN9__gnu_cxx12_Lock_policyE2EED2Ev
FN:1646,_ZNSt10__weak_ptrIN5Nexus3rpc8NodeImplELN9__gnu_cxx12_Lock_policyE2EEaSERKS5_
FNDA:55,_ZNSt10__weak_ptrIN5Nexus3rpc8NodeImplELN9__gnu_cxx12_Lock_policyE2EEaSERKS5_
DA:147,0
DA:148,0
DA:161,0
DA:165,0
DA:168,0
DA:180,0
DA:181,0
DA:184,0
DA:187,0
DA:190,0
DA:191,0
DA:194,0
DA:198,0
DA:207,0
DA:209,0
DA:212,0
DA:216,0
DA:254,0
DA:258,0
DA:261,0
DA:262,0
DA:266,0
DA:269,0
DA:587,0
DA:588,0
DA:702,0
DA:704,0
DA:705,0
DA:706,0
DA:708,0
DA:709,0
DA:711,0
DA:712,0
DA:713,0
DA:731,0
DA:733,0
DA:734,0
DA:735,0
DA:736,0
DA:739,172
DA:740,172
DA:774,0
DA:775,0
DA:795,0
DA:797,0
DA:798,0
DA:799,0
DA:814,55
DA:816,55
DA:817,55
DA:818,55
DA:819,55
DA:820,0
DA:821,55
DA:822,55
DA:879,172
DA:881,172
DA:883,172
DA:884,53
DA:885,172
DA:1092,55
DA:1093,55
DA:1094,55
DA:1152,117
DA:1154,0
DA:1161,0
DA:1162,0
DA:1164,0
DA:1165,0
DA:1166,0
DA:1299,0
DA:1300,0
DA:1352,172
DA:1353,172
DA:1355,172
DA:1356,172
DA:1604,0
DA:1605,0
DA:1606,0
DA:1610,0
DA:1646,55
end_of_record
SF:/home/fz296w/workspace/Nexus/Nexus/include/nexus/core/Node.h
FN:49,_ZNK5Nexus3rpc17ServiceDescriptor13getCapabilityB5cxx11Ev
FNDA:0,_ZNK5Nexus3rpc17ServiceDescriptor13getCapabilityB5cxx11Ev
DA:49,0
DA:50,0
DA:51,0
DA:53,0
end_of_record
SF:/usr/include/c++/11/bits/stl_algobase.h
FN:230,_ZSt3minImERKT_S2_S2_
FNDA:0,_ZSt3minImERKT_S2_S2_
FN:254,_ZSt3maxImERKT_S2_S2_
FNDA:0,_ZSt3maxImERKT_S2_S2_
FN:313,_ZSt12__niter_baseIPN5Nexus3rpc17ServiceDescriptorEET_S4_
FNDA:0,_ZSt12__niter_baseIPN5Nexus3rpc17ServiceDescriptorEET_S4_
FN:313,_ZSt12__niter_baseIPSt10shared_ptrIN5Nexus3rpc8NodeImplEEET_S6_
FNDA:702,_ZSt12__niter_baseIPSt10shared_ptrIN5Nexus3rpc8NodeImplEEET_S6_
FN:328,_ZSt12__niter_wrapIN9__gnu_cxx17__normal_iteratorIPN5Nexus3rpc17ServiceDescriptorESt6vectorIS4_SaIS4_EEEES5_ET_SA_T0_
FNDA:0,_ZSt12__niter_wrapIN9__gnu_cxx17__normal_iteratorIPN5Nexus3rpc17ServiceDescriptorESt6vectorIS4_SaIS4_EEEES5_ET_SA_T0_
FN:335,_ZSt12__niter_wrapIPN5Nexus3rpc17ServiceDescriptorEET_RKS4_S4_
FNDA:0,_ZSt12__niter_wrapIPN5Nexus3rpc17ServiceDescriptorEET_RKS4_S4_
FN:380,_ZNSt11__copy_moveILb0ELb0ESt26random_access_iterator_tagE8__copy_mIPKN5Nexus3rpc17ServiceDescriptorEPS5_EET0_T_SA_S9_
FNDA:0,_ZNSt11__copy_moveILb0ELb0ESt26random_access_iterator_tagE8__copy_mIPKN5Nexus3rpc17ServiceDescriptorEPS5_EET0_T_SA_S9_
FN:380,_ZNSt11__copy_moveILb0ELb0ESt26random_access_iterator_tagE8__copy_mIPN5Nexus3rpc17ServiceDescriptorES6_EET0_T_S8_S7_
FNDA:0,_ZNSt11__copy_moveILb0ELb0ESt26random_access_iterator_tagE8__copy_mIPN5Nexus3rpc17ServiceDescriptorES6_EET0_T_S8_S7_
FN:400,_ZNSt11__copy_moveILb1ELb0ESt26random_access_iterator_tagE8__copy_mIPN5Nexus3rpc17ServiceDescriptorES6_EET0_T_S8_S7_
FNDA:0,_ZNSt11__copy_moveILb1ELb0ESt26random_access_iterator_tagE8__copy_mIPN5Nexus3rpc17ServiceDescriptorES6_EET0_T_S8_S7_
FN:486,_ZSt14__copy_move_a2ILb0EPN5Nexus3rpc17ServiceDescriptorES3_ET1_T0_S5_S4_
FNDA:0,_ZSt14__copy_move_a2ILb0EPN5Nexus3rpc17ServiceDescriptorES3_ET1_T0_S5_S4_
FN:486,_ZSt14__copy_move_a2ILb0EPKN5Nexus3rpc17ServiceDescriptorEPS2_ET1_T0_S7_S6_
FNDA:0,_ZSt14__copy_move_a2ILb0EPKN5Nexus3rpc17ServiceDescriptorEPS2_ET1_T0_S7_S6_
FN:486,_ZSt14__copy_move_a2ILb1EPN5Nexus3rpc17ServiceDescriptorES3_ET1_T0_S5_S4_
FNDA:0,_ZSt14__copy_move_a2ILb1EPN5Nexus3rpc17ServiceDescriptorES3_ET1_T0_S5_S4_
FN:521,_ZSt14__copy_move_a1ILb1EPN5Nexus3rpc17ServiceDescriptorES3_ET1_T0_S5_S4_
FNDA:0,_ZSt14__copy_move_a1ILb1EPN5Nexus3rpc17ServiceDescriptorES3_ET1_T0_S5_S4_
FN:521,_ZSt14__copy_move_a1ILb0EPN5Nexus3rpc17ServiceDescriptorES3_ET1_T0_S5_S4_
FNDA:0,_ZSt14__copy_move_a1ILb0EPN5Nexus3rpc17ServiceDescriptorES3_ET1_T0_S5_S4_
FN:521,_ZSt14__copy_move_a1ILb0EPKN5Nexus3rpc17ServiceDescriptorEPS2_ET1_T0_S7_S6_
FNDA:0,_ZSt14__copy_move_a1ILb0EPKN5Nexus3rpc17ServiceDescriptorEPS2_ET1_T0_S7_S6_
FN:527,_ZSt13__copy_move_aILb1EN9__gnu_cxx17__normal_iteratorIPN5Nexus3rpc17ServiceDescriptorESt6vectorIS4_SaIS4_EEEES9_ET1_T0_SB_SA_
FNDA:0,_ZSt13__copy_move_aILb1EN9__gnu_cxx17__normal_iteratorIPN5Nexus3rpc17ServiceDescriptorESt6vectorIS4_SaIS4_EEEES9_ET1_T0_SB_SA_
FN:527,_ZSt13__copy_move_aILb0EN9__gnu_cxx17__normal_iteratorIPKN5Nexus3rpc17ServiceDescriptorESt6vectorIS4_SaIS4_EEEENS1_IPS4_S9_EEET1_T0_SE_SD_
FNDA:0,_ZSt13__copy_move_aILb0EN9__gnu_cxx17__normal_iteratorIPKN5Nexus3rpc17ServiceDescriptorESt6vectorIS4_SaIS4_EEEENS1_IPS4_S9_EEET1_T0_SE_SD_
FN:527,_ZSt13__copy_move_aILb0EPN5Nexus3rpc17ServiceDescriptorES3_ET1_T0_S5_S4_
FNDA:0,_ZSt13__copy_move_aILb0EPN5Nexus3rpc17ServiceDescriptorES3_ET1_T0_S5_S4_
FN:611,_ZSt4copyIN9__gnu_cxx17__normal_iteratorIPKN5Nexus3rpc17ServiceDescriptorESt6vectorIS4_SaIS4_EEEENS1_IPS4_S9_EEET0_T_SE_SD_
FNDA:0,_ZSt4copyIN9__gnu_cxx17__normal_iteratorIPKN5Nexus3rpc17ServiceDescriptorESt6vectorIS4_SaIS4_EEEENS1_IPS4_S9_EEET0_T_SE_SD_
FN:611,_ZSt4copyIPN5Nexus3rpc17ServiceDescriptorES3_ET0_T_S5_S4_
FNDA:0,_ZSt4copyIPN5Nexus3rpc17ServiceDescriptorES3_ET0_T_S5_S4_
FN:644,_ZSt4moveIN9__gnu_cxx17__normal_iteratorIPN5Nexus3rpc17ServiceDescriptorESt6vectorIS4_SaIS4_EEEES9_ET0_T_SB_SA_
FNDA:0,_ZSt4moveIN9__gnu_cxx17__normal_iteratorIPN5Nexus3rpc17ServiceDescriptorESt6vectorIS4_SaIS4_EEEES9_ET0_T_SB_SA_
FN:714,_ZNSt20__copy_move_backwardILb1ELb0ESt26random_access_iterator_tagE13__copy_move_bIPN5Nexus3rpc17ServiceDescriptorES6_EET0_T_S8_S7_
FNDA:0,_ZNSt20__copy_move_backwardILb1ELb0ESt26random_access_iterator_tagE13__copy_move_bIPN5Nexus3rpc17ServiceDescriptorES6_EET0_T_S8_S7_
FN:750,_ZSt23__copy_move_backward_a2ILb1EPN5Nexus3rpc17ServiceDescriptorES3_ET1_T0_S5_S4_
FNDA:0,_ZSt23__copy_move_backward_a2ILb1EPN5Nexus3rpc17ServiceDescriptorES3_ET1_T0_S5_S4_
FN:768,_ZSt23__copy_move_backward_a1ILb1EPN5Nexus3rpc17ServiceDescriptorES3_ET1_T0_S5_S4_
FNDA:0,_ZSt23__copy_move_backward_a1ILb1EPN5Nexus3rpc17ServiceDescriptorES3_ET1_T0_S5_S4_
FN:796,_ZSt22__copy_move_backward_aILb1EPN5Nexus3rpc17ServiceDescriptorES3_ET1_T0_S5_S4_
FNDA:0,_ZSt22__copy_move_backward_aILb1EPN5Nexus3rpc17ServiceDescriptorES3_ET1_T0_S5_S4_
FN:884,_ZSt13move_backwardIPN5Nexus3rpc17ServiceDescriptorES3_ET0_T_S5_S4_
FNDA:0,_ZSt13move_backwardIPN5Nexus3rpc17ServiceDescriptorES3_ET0_T_S5_S4_
FN:2061,_ZSt9__find_ifIN9__gnu_cxx17__normal_iteratorIPN5Nexus3rpc17ServiceDescriptorESt6vectorIS4_SaIS4_EEEENS0_5__ops10_Iter_predIZNS3_14GlobalRegistry14unregisterNodeERKNSt7__cxx1112basic_stringIcSt11char_traitsIcESaIcEEEEUlRKS4_E_EEET_SP_SP_T0_St26random_access_iterator_tag
FNDA:14,_ZSt9__find_ifIN9__gnu_cxx17__normal_iteratorIPN5Nexus3rpc17ServiceDescriptorESt6vectorIS4_SaIS4_EEEENS0_5__ops10_Iter_predIZNS3_14GlobalRegistry14unregisterNodeERKNSt7__cxx1112basic_stringIcSt11char_traitsIcESaIcEEEEUlRKS4_E_EEET_SP_SP_T0_St26random_access_iterator_tag
FN:2061,_ZSt9__find_ifIN9__gnu_cxx17__normal_iteratorIPN5Nexus3rpc17ServiceDescriptorESt6vectorIS4_SaIS4_EEEENS0_5__ops10_Iter_predIZNS3_14GlobalRegistry17unregisterServiceERKNSt7__cxx1112basic_stringIcSt11char_traitsIcESaIcEEERKS4_EUlSM_E_EEET_SP_SP_T0_St26random_access_iterator_tag
FNDA:11,_ZSt9__find_ifIN9__gnu_cxx17__normal_iteratorIPN5Nexus3rpc17ServiceDescriptorESt6vectorIS4_SaIS4_EEEENS0_5__ops10_Iter_predIZNS3_14GlobalRegistry17unregisterServiceERKNSt7__cxx1112basic_stringIcSt11char_traitsIcESaIcEEERKS4_EUlSM_E_EEET_SP_SP_T0_St26random_access_iterator_tag
FN:2112,_ZSt9__find_ifIN9__gnu_cxx17__normal_iteratorIPN5Nexus3rpc17ServiceDescriptorESt6vectorIS4_SaIS4_EEEENS0_5__ops10_Iter_predIZNS3_14GlobalRegistry17unregisterServiceERKNSt7__cxx1112basic_stringIcSt11char_traitsIcESaIcEEERKS4_EUlSM_E_EEET_SP_SP_T0_
FNDA:11,_ZSt9__find_ifIN9__gnu_cxx17__normal_iteratorIPN5Nexus3rpc17ServiceDescriptorESt6vectorIS4_SaIS4_EEEENS0_5__ops10_Iter_predIZNS3_14GlobalRegistry17unregisterServiceERKNSt7__cxx1112basic_stringIcSt11char_traitsIcESaIcEEERKS4_EUlSM_E_EEET_SP_SP_T0_
FN:2112,_ZSt9__find_ifIN9__gnu_cxx17__normal_iteratorIPN5Nexus3rpc17ServiceDescriptorESt6vectorIS4_SaIS4_EEEENS0_5__ops10_Iter_predIZNS3_14GlobalRegistry14unregisterNodeERKNSt7__cxx1112basic_stringIcSt11char_traitsIcESaIcEEEEUlRKS4_E_EEET_SP_SP_T0_
FNDA:14,_ZSt9__find_ifIN9__gnu_cxx17__normal_iteratorIPN5Nexus3rpc17ServiceDescriptorESt6vectorIS4_SaIS4_EEEENS0_5__ops10_Iter_predIZNS3_14GlobalRegistry14unregisterNodeERKNSt7__cxx1112basic_stringIcSt11char_traitsIcESaIcEEEEUlRKS4_E_EEET_SP_SP_T0_
DA:230,0
DA:235,0
DA:236,0
DA:237,0
DA:254,0
DA:259,0
DA:260,0
DA:261,0
DA:313,702
DA:315,702
DA:313,0
DA:315,0
DA:328,0
DA:329,0
DA:335,0
DA:336,0
DA:380,0
DA:383,0
DA:385,0
DA:386,0
DA:387,0
DA:389,0
DA:380,0
DA:383,0
DA:385,0
DA:386,0
DA:387,0
DA:389,0
DA:400,0
DA:403,0
DA:405,0
DA:406,0
DA:407,0
DA:409,0
DA:486,0
DA:495,0
DA:486,0
DA:495,0
DA:486,0
DA:495,0
DA:521,0
DA:522,0
DA:521,0
DA:522,0
DA:521,0
DA:522,0
DA:527,0
DA:529,0
DA:532,0
DA:527,0
DA:529,0
DA:532,0
DA:527,0
DA:529,0
DA:532,0
DA:611,0
DA:620,0
DA:611,0
DA:620,0
DA:644,0
DA:652,0
DA:653,0
DA:714,0
DA:717,0
DA:718,0
DA:719,0
DA:720,0
DA:750,0
DA:760,0
DA:762,0
DA:768,0
DA:769,0
DA:796,0
DA:798,0
DA:801,0
DA:884,0
DA:894,0
DA:896,0
DA:2061,11
DA:2065,11
DA:2067,11
DA:2069,0
DA:2070,0
DA:2071,0
DA:2073,0
DA:2074,0
DA:2075,0
DA:2077,0
DA:2078,0
DA:2079,0
DA:2081,0
DA:2082,0
DA:2083,0
DA:2086,11
DA:2088,0
DA:2089,0
DA:2090,0
DA:2091,0
DA:2093,2
DA:2094,2
DA:2095,2
DA:2096,0
DA:2098,9
DA:2099,9
DA:2100,9
DA:2101,0
DA:2103,0
DA:2105,0
DA:2061,14
DA:2065,14
DA:2067,14
DA:2069,0
DA:2070,0
DA:2071,0
DA:2073,0
DA:2074,0
DA:2075,0
DA:2077,0
DA:2078,0
DA:2079,0
DA:2081,0
DA:2082,0
DA:2083,0
DA:2086,14
DA:2088,1
DA:2089,1
DA:2090,1
DA:2091,0
DA:2093,0
DA:2094,0
DA:2095,0
DA:2096,0
DA:2098,13
DA:2099,13
DA:2100,12
DA:2101,1
DA:2103,1
DA:2105,1
DA:2112,11
DA:2114,11
DA:2115,22
DA:2112,14
DA:2114,14
DA:2115,28
end_of_record
SF:/usr/include/c++/11/bits/stl_construct.h
FN:109,_ZSt10_ConstructIN5Nexus3rpc17ServiceDescriptorEJS2_EEvPT_DpOT0_
FNDA:0,_ZSt10_ConstructIN5Nexus3rpc17ServiceDescriptorEJS2_EEvPT_DpOT0_
FN:109,_ZSt10_ConstructISt10shared_ptrIN5Nexus3rpc8NodeImplEEJS4_EEvPT_DpOT0_
FNDA:0,_ZSt10_ConstructISt10shared_ptrIN5Nexus3rpc8NodeImplEEJS4_EEvPT_DpOT0_
FN:109,_ZSt10_ConstructIN5Nexus3rpc17ServiceDescriptorEJRKS2_EEvPT_DpOT0_
FNDA:37,_ZSt10_ConstructIN5Nexus3rpc17ServiceDescriptorEJRKS2_EEvPT_DpOT0_
FN:109,_ZSt10_ConstructIN5Nexus3rpc17ServiceDescriptorEJRS2_EEvPT_DpOT0_
FNDA:0,_ZSt10_ConstructIN5Nexus3rpc17ServiceDescriptorEJRS2_EEvPT_DpOT0_
FN:146,_ZSt8_DestroyIN5Nexus3rpc17ServiceDescriptorEEvPT_
FNDA:0,_ZSt8_DestroyIN5Nexus3rpc17ServiceDescriptorEEvPT_
FN:146,_ZSt8_DestroyISt10shared_ptrIN5Nexus3rpc8NodeImplEEEvPT_
FNDA:0,_ZSt8_DestroyISt10shared_ptrIN5Nexus3rpc8NodeImplEEEvPT_
FN:160,_ZNSt12_Destroy_auxILb0EE9__destroyIN9__gnu_cxx17__normal_iteratorIPN5Nexus3rpc17ServiceDescriptorESt6vectorIS6_SaIS6_EEEEEEvT_SC_
FNDA:0,_ZNSt12_Destroy_auxILb0EE9__destroyIN9__gnu_cxx17__normal_iteratorIPN5Nexus3rpc17ServiceDescriptorESt6vectorIS6_SaIS6_EEEEEEvT_SC_
FN:160,_ZNSt12_Destroy_auxILb0EE9__destroyIPN5Nexus3rpc17ServiceDescriptorEEEvT_S6_
FNDA:0,_ZNSt12_Destroy_auxILb0EE9__destroyIPN5Nexus3rpc17ServiceDescriptorEEEvT_S6_
FN:160,_ZNSt12_Destroy_auxILb0EE9__destroyIPSt10shared_ptrIN5Nexus3rpc8NodeImplEEEEvT_S8_
FNDA:0,_ZNSt12_Destroy_auxILb0EE9__destroyIPSt10shared_ptrIN5Nexus3rpc8NodeImplEEEEvT_S8_
FN:182,_ZSt8_DestroyIN9__gnu_cxx17__normal_iteratorIPN5Nexus3rpc17ServiceDescriptorESt6vectorIS4_SaIS4_EEEEEvT_SA_
FNDA:0,_ZSt8_DestroyIN9__gnu_cxx17__normal_iteratorIPN5Nexus3rpc17ServiceDescriptorESt6vectorIS4_SaIS4_EEEEEvT_SA_
FN:182,_ZSt8_DestroyIPN5Nexus3rpc17ServiceDescriptorEEvT_S4_
FNDA:0,_ZSt8_DestroyIPN5Nexus3rpc17ServiceDescriptorEEvT_S4_
FN:182,_ZSt8_DestroyIPSt10shared_ptrIN5Nexus3rpc8NodeImplEEEvT_S6_
FNDA:0,_ZSt8_DestroyIPSt10shared_ptrIN5Nexus3rpc8NodeImplEEEvT_S6_
DA:109,0
DA:119,0
DA:120,0
DA:109,0
DA:119,0
DA:120,0
DA:109,37
DA:119,37
DA:120,37
DA:109,0
DA:119,0
DA:120,0
DA:146,0
DA:151,0
DA:153,0
DA:146,0
DA:151,0
DA:153,0
DA:160,0
DA:162,0
DA:163,0
DA:164,0
DA:160,0
DA:162,0
DA:163,0
DA:164,0
DA:160,0
DA:162,0
DA:163,0
DA:164,0
DA:182,0
DA:196,0
DA:197,0
DA:182,0
DA:196,0
DA:197,0
DA:182,0
DA:196,0
DA:197,0
end_of_record
SF:/usr/include/c++/11/bits/stl_function.h
FN:399,_ZNKSt4lessINSt7__cxx1112basic_stringIcSt11char_traitsIcESaIcEEEEclERKS5_S8_
FNDA:0,_ZNKSt4lessINSt7__cxx1112basic_stringIcSt11char_traitsIcESaIcEEEEclERKS5_S8_
FN:1174,_ZNKSt10_Select1stISt4pairIKNSt7__cxx1112basic_stringIcSt11char_traitsIcESaIcEEESt6vectorIN5Nexus3rpc17ServiceDescriptorESaISB_EEEEclERKSE_
FNDA:83,_ZNKSt10_Select1stISt4pairIKNSt7__cxx1112basic_stringIcSt11char_traitsIcESaIcEEESt6vectorIN5Nexus3rpc17ServiceDescriptorESaISB_EEEEclERKSE_
FN:1174,_ZNKSt10_Select1stISt4pairIKNSt7__cxx1112basic_stringIcSt11char_traitsIcESaIcEEESt8weak_ptrIN5Nexus3rpc8NodeImplEEEEclERKSD_
FNDA:87,_ZNKSt10_Select1stISt4pairIKNSt7__cxx1112basic_stringIcSt11char_traitsIcESaIcEEESt8weak_ptrIN5Nexus3rpc8NodeImplEEEEclERKSD_
DA:399,0
DA:400,0
DA:1174,83
DA:1175,83
DA:1174,87
DA:1175,87
end_of_record
SF:/usr/include/c++/11/bits/stl_tree.h
FN:146,_ZNSt20_Rb_tree_key_compareISt4lessINSt7__cxx1112basic_stringIcSt11char_traitsIcESaIcEEEEEC2Ev
FNDA:0,_ZNSt20_Rb_tree_key_compareISt4lessINSt7__cxx1112basic_stringIcSt11char_traitsIcESaIcEEEEEC2Ev
FN:173,_ZNSt15_Rb_tree_headerC2Ev
FNDA:0,_ZNSt15_Rb_tree_headerC2Ev
FN:206,_ZNSt15_Rb_tree_header8_M_resetEv
FNDA:0,_ZNSt15_Rb_tree_header8_M_resetEv
FN:234,_ZNSt13_Rb_tree_nodeISt4pairIKNSt7__cxx1112basic_stringIcSt11char_traitsIcESaIcEEESt8weak_ptrIN5Nexus3rpc8NodeImplEEEE9_M_valptrEv
FNDA:337,_ZNSt13_Rb_tree_nodeISt4pairIKNSt7__cxx1112basic_stringIcSt11char_traitsIcESaIcEEESt8weak_ptrIN5Nexus3rpc8NodeImplEEEE9_M_valptrEv
FN:234,_ZNSt13_Rb_tree_nodeISt4pairIKNSt7__cxx1112basic_stringIcSt11char_traitsIcESaIcEEESt6vectorIN5Nexus3rpc17ServiceDescriptorESaISB_EEEE9_M_valptrEv
FNDA:157,_ZNSt13_Rb_tree_nodeISt4pairIKNSt7__cxx1112basic_stringIcSt11char_traitsIcESaIcEEESt6vectorIN5Nexus3rpc17ServiceDescriptorESaISB_EEEE9_M_valptrEv
FN:238,_ZNKSt13_Rb_tree_nodeISt4pairIKNSt7__cxx1112basic_stringIcSt11char_traitsIcESaIcEEESt6vectorIN5Nexus3rpc17ServiceDescriptorESaISB_EEEE9_M_valptrEv
FNDA:83,_ZNKSt13_Rb_tree_nodeISt4pairIKNSt7__cxx1112basic_stringIcSt11char_traitsIcESaIcEEESt6vectorIN5Nexus3rpc17ServiceDescriptorESaISB_EEEE9_M_valptrEv
FN:238,_ZNKSt13_Rb_tree_nodeISt4pairIKNSt7__cxx1112basic_stringIcSt11char_traitsIcESaIcEEESt8weak_ptrIN5Nexus3rpc8NodeImplEEEE9_M_valptrEv
FNDA:87,_ZNKSt13_Rb_tree_nodeISt4pairIKNSt7__cxx1112basic_stringIcSt11char_traitsIcESaIcEEESt8weak_ptrIN5Nexus3rpc8NodeImplEEEE9_M_valptrEv
FN:273,_ZNSt17_Rb_tree_iteratorISt4pairIKNSt7__cxx1112basic_stringIcSt11char_traitsIcESaIcEEESt6vectorIN5Nexus3rpc17ServiceDescriptorESaISB_EEEEC2EPSt18_Rb_tree_node_base
FNDA:526,_ZNSt17_Rb_tree_iteratorISt4pairIKNSt7__cxx1112basic_stringIcSt11char_traitsIcESaIcEEESt6vectorIN5Nexus3rpc17ServiceDescriptorESaISB_EEEEC2EPSt18_Rb_tree_node_base
FN:273,_ZNSt17_Rb_tree_iteratorISt4pairIKNSt7__cxx1112basic_stringIcSt11char_traitsIcESaIcEEESt8weak_ptrIN5Nexus3rpc8NodeImplEEEEC2EPSt18_Rb_tree_node_base
FNDA:1242,_ZNSt17_Rb_tree_iteratorISt4pairIKNSt7__cxx1112basic_stringIcSt11char_traitsIcESaIcEEESt8weak_ptrIN5Nexus3rpc8NodeImplEEEEC2EPSt18_Rb_tree_node_base
FN:277,_ZNKSt17_Rb_tree_iteratorISt4pairIKNSt7__cxx1112basic_stringIcSt11char_traitsIcESaIcEEESt6vectorIN5Nexus3rpc17ServiceDescriptorESaISB_EEEEdeEv
FNDA:51,_ZNKSt17_Rb_tree_iteratorISt4pairIKNSt7__cxx1112basic_stringIcSt11char_traitsIcESaIcEEESt6vectorIN5Nexus3rpc17ServiceDescriptorESaISB_EEEEdeEv
FN:277,_ZNKSt17_Rb_tree_iteratorISt4pairIKNSt7__cxx1112basic_stringIcSt11char_traitsIcESaIcEEESt8weak_ptrIN5Nexus3rpc8NodeImplEEEEdeEv
FNDA:55,_ZNKSt17_Rb_tree_iteratorISt4pairIKNSt7__cxx1112basic_stringIcSt11char_traitsIcESaIcEEESt8weak_ptrIN5Nexus3rpc8NodeImplEEEEdeEv
FN:281,_ZNKSt17_Rb_tree_iteratorISt4pairIKNSt7__cxx1112basic_stringIcSt11char_traitsIcESaIcEEESt8weak_ptrIN5Nexus3rpc8NodeImplEEEEptEv
FNDA:172,_ZNKSt17_Rb_tree_iteratorISt4pairIKNSt7__cxx1112basic_stringIcSt11char_traitsIcESaIcEEESt8weak_ptrIN5Nexus3rpc8NodeImplEEEEptEv
FN:281,_ZNKSt17_Rb_tree_iteratorISt4pairIKNSt7__cxx1112basic_stringIcSt11char_traitsIcESaIcEEESt6vectorIN5Nexus3rpc17ServiceDescriptorESaISB_EEEEptEv
FNDA:60,_ZNKSt17_Rb_tree_iteratorISt4pairIKNSt7__cxx1112basic_stringIcSt11char_traitsIcESaIcEEESt6vectorIN5Nexus3rpc17ServiceDescriptorESaISB_EEEEptEv
FN:285,_ZNSt17_Rb_tree_iteratorISt4pairIKNSt7__cxx1112basic_stringIcSt11char_traitsIcESaIcEEESt8weak_ptrIN5Nexus3rpc8NodeImplEEEEppEv
FNDA:170,_ZNSt17_Rb_tree_iteratorISt4pairIKNSt7__cxx1112basic_stringIcSt11char_traitsIcESaIcEEESt8weak_ptrIN5Nexus3rpc8NodeImplEEEEppEv
FN:285,_ZNSt17_Rb_tree_iteratorISt4pairIKNSt7__cxx1112basic_stringIcSt11char_traitsIcESaIcEEESt6vectorIN5Nexus3rpc17ServiceDescriptorESaISB_EEEEppEv
FNDA:46,_ZNSt17_Rb_tree_iteratorISt4pairIKNSt7__cxx1112basic_stringIcSt11char_traitsIcESaIcEEESt6vectorIN5Nexus3rpc17ServiceDescriptorESaISB_EEEEppEv
FN:300,_ZNSt17_Rb_tree_iteratorISt4pairIKNSt7__cxx1112basic_stringIcSt11char_traitsIcESaIcEEESt8weak_ptrIN5Nexus3rpc8NodeImplEEEEmmEv
FNDA:0,_ZNSt17_Rb_tree_iteratorISt4pairIKNSt7__cxx1112basic_stringIcSt11char_traitsIcESaIcEEESt8weak_ptrIN5Nexus3rpc8NodeImplEEEEmmEv
FN:300,_ZNSt17_Rb_tree_iteratorISt4pairIKNSt7__cxx1112basic_stringIcSt11char_traitsIcESaIcEEESt6vectorIN5Nexus3rpc17ServiceDescriptorESaISB_EEEEmmEv
FNDA:0,_ZNSt17_Rb_tree_iteratorISt4pairIKNSt7__cxx1112basic_stringIcSt11char_traitsIcESaIcEEESt6vectorIN5Nexus3rpc17ServiceDescriptorESaISB_EEEEmmEv
FN:315,_ZSteqRKSt17_Rb_tree_iteratorISt4pairIKNSt7__cxx1112basic_stringIcSt11char_traitsIcESaIcEEESt8weak_ptrIN5Nexus3rpc8NodeImplEEEESG_
FNDA:163,_ZSteqRKSt17_Rb_tree_iteratorISt4pairIKNSt7__cxx1112basic_stringIcSt11char_traitsIcESaIcEEESt8weak_ptrIN5Nexus3rpc8NodeImplEEEESG_
FN:315,_ZSteqRKSt17_Rb_tree_iteratorISt4pairIKNSt7__cxx1112basic_stringIcSt11char_traitsIcESaIcEEESt6vectorIN5Nexus3rpc17ServiceDescriptorESaISB_EEEESH_
FNDA:88,_ZSteqRKSt17_Rb_tree_iteratorISt4pairIKNSt7__cxx1112basic_stringIcSt11char_traitsIcESaIcEEESt6vectorIN5Nexus3rpc17ServiceDescriptorESaISB_EEEESH_
FN:320,_ZStneRKSt17_Rb_tree_iteratorISt4pairIKNSt7__cxx1112basic_stringIcSt11char_traitsIcESaIcEEESt6vectorIN5Nexus3rpc17ServiceDescriptorESaISB_EEEESH_
FNDA:182,_ZStneRKSt17_Rb_tree_iteratorISt4pairIKNSt7__cxx1112basic_stringIcSt11char_traitsIcESaIcEEESt6vectorIN5Nexus3rpc17ServiceDescriptorESaISB_EEEESH_
FN:320,_ZStneRKSt17_Rb_tree_iteratorISt4pairIKNSt7__cxx1112basic_stringIcSt11char_traitsIcESaIcEEESt8weak_ptrIN5Nexus3rpc8NodeImplEEEESG_
FNDA:377,_ZStneRKSt17_Rb_tree_iteratorISt4pairIKNSt7__cxx1112basic_stringIcSt11char_traitsIcESaIcEEESt8weak_ptrIN5Nexus3rpc8NodeImplEEEESG_
FN:347,_ZNSt23_Rb_tree_const_iteratorISt4pairIKNSt7__cxx1112basic_stringIcSt11char_traitsIcESaIcEEESt6vectorIN5Nexus3rpc17ServiceDescriptorESaISB_EEEEC2EPKSt18_Rb_tree_node_base
FNDA:0,_ZNSt23_Rb_tree_const_iteratorISt4pairIKNSt7__cxx1112basic_stringIcSt11char_traitsIcESaIcEEESt6vectorIN5Nexus3rpc17ServiceDescriptorESaISB_EEEEC2EPKSt18_Rb_tree_node_base
FN:350,_ZNSt23_Rb_tree_const_iteratorISt4pairIKNSt7__cxx1112basic_stringIcSt11char_traitsIcESaIcEEESt6vectorIN5Nexus3rpc17ServiceDescriptorESaISB_EEEEC2ERKSt17_Rb_tree_iteratorISE_E
FNDA:45,_ZNSt23_Rb_tree_const_iteratorISt4pairIKNSt7__cxx1112basic_stringIcSt11char_traitsIcESaIcEEESt6vectorIN5Nexus3rpc17ServiceDescriptorESaISB_EEEEC2ERKSt17_Rb_tree_iteratorISE_E
FN:350,_ZNSt23_Rb_tree_const_iteratorISt4pairIKNSt7__cxx1112basic_stringIcSt11char_traitsIcESaIcEEESt8weak_ptrIN5Nexus3rpc8NodeImplEEEEC2ERKSt17_Rb_tree_iteratorISD_E
FNDA:332,_ZNSt23_Rb_tree_const_iteratorISt4pairIKNSt7__cxx1112basic_stringIcSt11char_traitsIcESaIcEEESt8weak_ptrIN5Nexus3rpc8NodeImplEEEEC2ERKSt17_Rb_tree_iteratorISD_E
FN:354,_ZNKSt23_Rb_tree_const_iteratorISt4pairIKNSt7__cxx1112basic_stringIcSt11char_traitsIcESaIcEEESt6vectorIN5Nexus3rpc17ServiceDescriptorESaISB_EEEE13_M_const_castEv
FNDA:23,_ZNKSt23_Rb_tree_const_iteratorISt4pairIKNSt7__cxx1112basic_stringIcSt11char_traitsIcESaIcEEESt6vectorIN5Nexus3rpc17ServiceDescriptorESaISB_EEEE13_M_const_castEv
FN:354,_ZNKSt23_Rb_tree_const_iteratorISt4pairIKNSt7__cxx1112basic_stringIcSt11char_traitsIcESaIcEEESt8weak_ptrIN5Nexus3rpc8NodeImplEEEE13_M_const_castEv
FNDA:55,_ZNKSt23_Rb_tree_const_iteratorISt4pairIKNSt7__cxx1112basic_stringIcSt11char_traitsIcESaIcEEESt8weak_ptrIN5Nexus3rpc8NodeImplEEEE13_M_const_castEv
FN:362,_ZNKSt23_Rb_tree_const_iteratorISt4pairIKNSt7__cxx1112basic_stringIcSt11char_traitsIcESaIcEEESt6vectorIN5Nexus3rpc17ServiceDescriptorESaISB_EEEEptEv
FNDA:0,_ZNKSt23_Rb_tree_const_iteratorISt4pairIKNSt7__cxx1112basic_stringIcSt11char_traitsIcESaIcEEESt6vectorIN5Nexus3rpc17ServiceDescriptorESaISB_EEEEptEv
FN:366,_ZNSt23_Rb_tree_const_iteratorISt4pairIKNSt7__cxx1112basic_stringIcSt11char_traitsIcESaIcEEESt6vectorIN5Nexus3rpc17ServiceDescriptorESaISB_EEEEppEv
FNDA:0,_ZNSt23_Rb_tree_const_iteratorISt4pairIKNSt7__cxx1112basic_stringIcSt11char_traitsIcESaIcEEESt6vectorIN5Nexus3rpc17ServiceDescriptorESaISB_EEEEppEv
FN:373,_ZNSt23_Rb_tree_const_iteratorISt4pairIKNSt7__cxx1112basic_stringIcSt11char_traitsIcESaIcEEESt8weak_ptrIN5Nexus3rpc8NodeImplEEEEppEi
FNDA:0,_ZNSt23_Rb_tree_const_iteratorISt4pairIKNSt7__cxx1112basic_stringIcSt11char_traitsIcESaIcEEESt8weak_ptrIN5Nexus3rpc8NodeImplEEEEppEi
FN:396,_ZSteqRKSt23_Rb_tree_const_iteratorISt4pairIKNSt7__cxx1112basic_stringIcSt11char_traitsIcESaIcEEESt8weak_ptrIN5Nexus3rpc8NodeImplEEEESG_
FNDA:110,_ZSteqRKSt23_Rb_tree_const_iteratorISt4pairIKNSt7__cxx1112basic_stringIcSt11char_traitsIcESaIcEEESt8weak_ptrIN5Nexus3rpc8NodeImplEEEESG_
FN:401,_ZStneRKSt23_Rb_tree_const_iteratorISt4pairIKNSt7__cxx1112basic_stringIcSt11char_traitsIcESaIcEEESt6vectorIN5Nexus3rpc17ServiceDescriptorESaISB_EEEESH_
FNDA:0,_ZStneRKSt23_Rb_tree_const_iteratorISt4pairIKNSt7__cxx1112basic_stringIcSt11char_traitsIcESaIcEEESt6vectorIN5Nexus3rpc17ServiceDescriptorESaISB_EEEESH_
FN:401,_ZStneRKSt23_Rb_tree_const_iteratorISt4pairIKNSt7__cxx1112basic_stringIcSt11char_traitsIcESaIcEEESt8weak_ptrIN5Nexus3rpc8NodeImplEEEESG_
FNDA:4,_ZStneRKSt23_Rb_tree_const_iteratorISt4pairIKNSt7__cxx1112basic_stringIcSt11char_traitsIcESaIcEEESt8weak_ptrIN5Nexus3rpc8NodeImplEEEESG_
FN:547,_ZNSt8_Rb_treeINSt7__cxx1112basic_stringIcSt11char_traitsIcESaIcEEESt4pairIKS5_St8weak_ptrIN5Nexus3rpc8NodeImplEEESt10_Select1stISD_ESt4lessIS5_ESaISD_EE21_M_get_Node_allocatorEv
FNDA:220,_ZNSt8_Rb_treeINSt7__cxx1112basic_stringIcSt11char_traitsIcESaIcEEESt4pairIKS5_St8weak_ptrIN5Nexus3rpc8NodeImplEEESt10_Select1stISD_ESt4lessIS5_ESaISD_EE21_M_get_Node_allocatorEv
FN:547,_ZNSt8_Rb_treeINSt7__cxx1112basic_stringIcSt11char_traitsIcESaIcEEESt4pairIKS5_St6vectorIN5Nexus3rpc17ServiceDescriptorESaISB_EEESt10_Select1stISE_ESt4lessIS5_ESaISE_EE21_M_get_Node_allocatorEv
FNDA:92,_ZNSt8_Rb_treeINSt7__cxx1112basic_stringIcSt11char_traitsIcESaIcEEESt4pairIKS5_St6vectorIN5Nexus3rpc17ServiceDescriptorESaISB_EEESt10_Select1stISE_ESt4lessIS5_ESaISE_EE21_M_get_Node_allocatorEv
FN:560,_ZNSt8_Rb_treeINSt7__cxx1112basic_stringIcSt11char_traitsIcESaIcEEESt4pairIKS5_St6vectorIN5Nexus3rpc17ServiceDescriptorESaISB_EEESt10_Select1stISE_ESt4lessIS5_ESaISE_EE11_M_get_nodeEv
FNDA:23,_ZNSt8_Rb_treeINSt7__cxx1112basic_stringIcSt11char_traitsIcESaIcEEESt4pairIKS5_St6vectorIN5Nexus3rpc17ServiceDescriptorESaISB_EEESt10_Select1stISE_ESt4lessIS5_ESaISE_EE11_M_get_nodeEv
FN:560,_ZNSt8_Rb_treeINSt7__cxx1112basic_stringIcSt11char_traitsIcESaIcEEESt4pairIKS5_St8weak_ptrIN5Nexus3rpc8NodeImplEEESt10_Select1stISD_ESt4lessIS5_ESaISD_EE11_M_get_nodeEv
FNDA:55,_ZNSt8_Rb_treeINSt7__cxx1112basic_stringIcSt11char_traitsIcESaIcEEESt4pairIKS5_St8weak_ptrIN5Nexus3rpc8NodeImplEEESt10_Select1stISD_ESt4lessIS5_ESaISD_EE11_M_get_nodeEv
FN:564,_ZNSt8_Rb_treeINSt7__cxx1112basic_stringIcSt11char_traitsIcESaIcEEESt4pairIKS5_St6vectorIN5Nexus3rpc17ServiceDescriptorESaISB_EEESt10_Select1stISE_ESt4lessIS5_ESaISE_EE11_M_put_nodeEPSt13_Rb_tree_nodeISE_E
FNDA:23,_ZNSt8_Rb_treeINSt7__cxx1112basic_stringIcSt11char_traitsIcESaIcEEESt4pairIKS5_St6vectorIN5Nexus3rpc17ServiceDescriptorESaISB_EEESt10_Select1stISE_ESt4lessIS5_ESaISE_EE11_M_put_nodeEPSt13_Rb_tree_nodeISE_E
FN:564,_ZNSt8_Rb_treeINSt7__cxx1112basic_stringIcSt11char_traitsIcESaIcEEESt4pairIKS5_St8weak_ptrIN5Nexus3rpc8NodeImplEEESt10_Select1stISD_ESt4lessIS5_ESaISD_EE11_M_put_nodeEPSt13_Rb_tree_nodeISD_E
FNDA:55,_ZNSt8_Rb_treeINSt7__cxx1112basic_stringIcSt11char_traitsIcESaIcEEESt4pairIKS5_St8weak_ptrIN5Nexus3rpc8NodeImplEEESt10_Select1stISD_ESt4lessIS5_ESaISD_EE11_M_put_nodeEPSt13_Rb_tree_nodeISD_E
FN:590,_ZNSt8_Rb_treeINSt7__cxx1112basic_stringIcSt11char_traitsIcESaIcEEESt4pairIKS5_St6vectorIN5Nexus3rpc17ServiceDescriptorESaISB_EEESt10_Select1stISE_ESt4lessIS5_ESaISE_EE17_M_construct_nodeIJRKSt21piecewise_construct_tSt5tupleIJRS7_EESP_IJEEEEEvPSt13_Rb_tree_nodeISE_EDpOT_
FNDA:23,_ZNSt8_Rb_treeINSt7__cxx1112basic_stringIcSt11char_traitsIcESaIcEEESt4pairIKS5_St6vectorIN5Nexus3rpc17ServiceDescriptorESaISB_EEESt10_Select1stISE_ESt4lessIS5_ESaISE_EE17_M_construct_nodeIJRKSt21piecewise_construct_tSt5tupleIJRS7_EESP_IJEEEEEvPSt13_Rb_tree_nodeISE_EDpOT_
FN:590,_ZNSt8_Rb_treeINSt7__cxx1112basic_stringIcSt11char_traitsIcESaIcEEESt4pairIKS5_St8weak_ptrIN5Nexus3rpc8NodeImplEEESt10_Select1stISD_ESt4lessIS5_ESaISD_EE17_M_construct_nodeIJRKSt21piecewise_construct_tSt5tupleIJRS7_EESO_IJEEEEEvPSt13_Rb_tree_nodeISD_EDpOT_
FNDA:55,_ZNSt8_Rb_treeINSt7__cxx1112basic_stringIcSt11char_traitsIcESaIcEEESt4pairIKS5_St8weak_ptrIN5Nexus3rpc8NodeImplEEESt10_Select1stISD_ESt4lessIS5_ESaISD_EE17_M_construct_nodeIJRKSt21piecewise_construct_tSt5tupleIJRS7_EESO_IJEEEEEvPSt13_Rb_tree_nodeISD_EDpOT_
FN:609,_ZNSt8_Rb_treeINSt7__cxx1112basic_stringIcSt11char_traitsIcESaIcEEESt4pairIKS5_St6vectorIN5Nexus3rpc17ServiceDescriptorESaISB_EEESt10_Select1stISE_ESt4lessIS5_ESaISE_EE14_M_create_nodeIJRKSt21piecewise_construct_tSt5tupleIJRS7_EESP_IJEEEEEPSt13_Rb_tree_nodeISE_EDpOT_
FNDA:23,_ZNSt8_Rb_treeINSt7__cxx1112basic_stringIcSt11char_traitsIcESaIcEEESt4pairIKS5_St6vectorIN5Nexus3rpc17ServiceDescriptorESaISB_EEESt10_Select1stISE_ESt4lessIS5_ESaISE_EE14_M_create_nodeIJRKSt21piecewise_construct_tSt5tupleIJRS7_EESP_IJEEEEEPSt13_Rb_tree_nodeISE_EDpOT_
FN:609,_ZNSt8_Rb_treeINSt7__cxx1112basic_stringIcSt11char_traitsIcESaIcEEESt4pairIKS5_St8weak_ptrIN5Nexus3rpc8NodeImplEEESt10_Select1stISD_ESt4lessIS5_ESaISD_EE14_M_create_nodeIJRKSt21piecewise_construct_tSt5tupleIJRS7_EESO_IJEEEEEPSt13_Rb_tree_nodeISD_EDpOT_
FNDA:55,_ZNSt8_Rb_treeINSt7__cxx1112basic_stringIcSt11char_traitsIcESaIcEEESt4pairIKS5_St8weak_ptrIN5Nexus3rpc8NodeImplEEESt10_Select1stISD_ESt4lessIS5_ESaISD_EE14_M_create_nodeIJRKSt21piecewise_construct_tSt5tupleIJRS7_EESO_IJEEEEEPSt13_Rb_tree_nodeISD_EDpOT_
FN:618,_ZNSt8_Rb_treeINSt7__cxx1112basic_stringIcSt11char_traitsIcESaIcEEESt4pairIKS5_St8weak_ptrIN5Nexus3rpc8NodeImplEEESt10_Select1stISD_ESt4lessIS5_ESaISD_EE15_M_destroy_nodeEPSt13_Rb_tree_nodeISD_E
FNDA:55,_ZNSt8_Rb_treeINSt7__cxx1112basic_stringIcSt11char_traitsIcESaIcEEESt4pairIKS5_St8weak_ptrIN5Nexus3rpc8NodeImplEEESt10_Select1stISD_ESt4lessIS5_ESaISD_EE15_M_destroy_nodeEPSt13_Rb_tree_nodeISD_E
FN:618,_ZNSt8_Rb_treeINSt7__cxx1112basic_stringIcSt11char_traitsIcESaIcEEESt4pairIKS5_St6vectorIN5Nexus3rpc17ServiceDescriptorESaISB_EEESt10_Select1stISE_ESt4lessIS5_ESaISE_EE15_M_destroy_nodeEPSt13_Rb_tree_nodeISE_E
FNDA:23,_ZNSt8_Rb_treeINSt7__cxx1112basic_stringIcSt11char_traitsIcESaIcEEESt4pairIKS5_St6vectorIN5Nexus3rpc17ServiceDescriptorESaISB_EEESt10_Select1stISE_ESt4lessIS5_ESaISE_EE15_M_destroy_nodeEPSt13_Rb_tree_nodeISE_E
FN:629,_ZNSt8_Rb_treeINSt7__cxx1112basic_stringIcSt11char_traitsIcESaIcEEESt4pairIKS5_St8weak_ptrIN5Nexus3rpc8NodeImplEEESt10_Select1stISD_ESt4lessIS5_ESaISD_EE12_M_drop_nodeEPSt13_Rb_tree_nodeISD_E
FNDA:55,_ZNSt8_Rb_treeINSt7__cxx1112basic_stringIcSt11char_traitsIcESaIcEEESt4pairIKS5_St8weak_ptrIN5Nexus3rpc8NodeImplEEESt10_Select1stISD_ESt4lessIS5_ESaISD_EE12_M_drop_nodeEPSt13_Rb_tree_nodeISD_E
FN:629,_ZNSt8_Rb_treeINSt7__cxx1112basic_stringIcSt11char_traitsIcESaIcEEESt4pairIKS5_St6vectorIN5Nexus3rpc17ServiceDescriptorESaISB_EEESt10_Select1stISE_ESt4lessIS5_ESaISE_EE12_M_drop_nodeEPSt13_Rb_tree_nodeISE_E
FNDA:23,_ZNSt8_Rb_treeINSt7__cxx1112basic_stringIcSt11char_traitsIcESaIcEEESt4pairIKS5_St6vectorIN5Nexus3rpc17ServiceDescriptorESaISB_EEESt10_Select1stISE_ESt4lessIS5_ESaISE_EE12_M_drop_nodeEPSt13_Rb_tree_nodeISE_E
FN:667,_ZNSt8_Rb_treeINSt7__cxx1112basic_stringIcSt11char_traitsIcESaIcEEESt4pairIKS5_St6vectorIN5Nexus3rpc17ServiceDescriptorESaISB_EEESt10_Select1stISE_ESt4lessIS5_ESaISE_EE13_Rb_tree_implISI_Lb1EEC2Ev
FNDA:5,_ZNSt8_Rb_treeINSt7__cxx1112basic_stringIcSt11char_traitsIcESaIcEEESt4pairIKS5_St6vectorIN5Nexus3rpc17ServiceDescriptorESaISB_EEESt10_Select1stISE_ESt4lessIS5_ESaISE_EE13_Rb_tree_implISI_Lb1EEC2Ev
FN:667,_ZNSt8_Rb_treeINSt7__cxx1112basic_stringIcSt11char_traitsIcESaIcEEESt4pairIKS5_St8weak_ptrIN5Nexus3rpc8NodeImplEEESt10_Select1stISD_ESt4lessIS5_ESaISD_EE13_Rb_tree_implISH_Lb1EEC2Ev
FNDA:5,_ZNSt8_Rb_treeINSt7__cxx1112basic_stringIcSt11char_traitsIcESaIcEEESt4pairIKS5_St8weak_ptrIN5Nexus3rpc8NodeImplEEESt10_Select1stISD_ESt4lessIS5_ESaISD_EE13_Rb_tree_implISH_Lb1EEC2Ev
FN:718,_ZNSt8_Rb_treeINSt7__cxx1112basic_stringIcSt11char_traitsIcESaIcEEESt4pairIKS5_St8weak_ptrIN5Nexus3rpc8NodeImplEEESt10_Select1stISD_ESt4lessIS5_ESaISD_EE11_M_leftmostEv
FNDA:0,_ZNSt8_Rb_treeINSt7__cxx1112basic_stringIcSt11char_traitsIcESaIcEEESt4pairIKS5_St8weak_ptrIN5Nexus3rpc8NodeImplEEESt10_Select1stISD_ESt4lessIS5_ESaISD_EE11_M_leftmostEv
FN:718,_ZNSt8_Rb_treeINSt7__cxx1112basic_stringIcSt11char_traitsIcESaIcEEESt4pairIKS5_St6vectorIN5Nexus3rpc17ServiceDescriptorESaISB_EEESt10_Select1stISE_ESt4lessIS5_ESaISE_EE11_M_leftmostEv
FNDA:0,_ZNSt8_Rb_treeINSt7__cxx1112basic_stringIcSt11char_traitsIcESaIcEEESt4pairIKS5_St6vectorIN5Nexus3rpc17ServiceDescriptorESaISB_EEESt10_Select1stISE_ESt4lessIS5_ESaISE_EE11_M_leftmostEv
FN:726,_ZNSt8_Rb_treeINSt7__cxx1112basic_stringIcSt11char_traitsIcESaIcEEESt4pairIKS5_St8weak_ptrIN5Nexus3rpc8NodeImplEEESt10_Select1stISD_ESt4lessIS5_ESaISD_EE12_M_rightmostEv
FNDA:8,_ZNSt8_Rb_treeINSt7__cxx1112basic_stringIcSt11char_traitsIcESaIcEEESt4pairIKS5_St8weak_ptrIN5Nexus3rpc8NodeImplEEESt10_Select1stISD_ESt4lessIS5_ESaISD_EE12_M_rightmostEv
FN:726,_ZNSt8_Rb_treeINSt7__cxx1112basic_stringIcSt11char_traitsIcESaIcEEESt4pairIKS5_St6vectorIN5Nexus3rpc17ServiceDescriptorESaISB_EEESt10_Select1stISE_ESt4lessIS5_ESaISE_EE12_M_rightmostEv
FNDA:0,_ZNSt8_Rb_treeINSt7__cxx1112basic_stringIcSt11char_traitsIcESaIcEEESt4pairIKS5_St6vectorIN5Nexus3rpc17ServiceDescriptorESaISB_EEESt10_Select1stISE_ESt4lessIS5_ESaISE_EE12_M_rightmostEv
FN:734,_ZNKSt8_Rb_treeINSt7__cxx1112basic_stringIcSt11char_traitsIcESaIcEEESt4pairIKS5_St8weak_ptrIN5Nexus3rpc8NodeImplEEESt10_Select1stISD_ESt4lessIS5_ESaISD_EE9_M_mbeginEv
FNDA:278,_ZNKSt8_Rb_treeINSt7__cxx1112basic_stringIcSt11char_traitsIcESaIcEEESt4pairIKS5_St8weak_ptrIN5Nexus3rpc8NodeImplEEESt10_Select1stISD_ESt4lessIS5_ESaISD_EE9_M_mbeginEv
FN:734,_ZNKSt8_Rb_treeINSt7__cxx1112basic_stringIcSt11char_traitsIcESaIcEEESt4pairIKS5_St6vectorIN5Nexus3rpc17ServiceDescriptorESaISB_EEESt10_Select1stISE_ESt4lessIS5_ESaISE_EE9_M_mbeginEv
FNDA:157,_ZNKSt8_Rb_treeINSt7__cxx1112basic_stringIcSt11char_traitsIcESaIcEEESt4pairIKS5_St6vectorIN5Nexus3rpc17ServiceDescriptorESaISB_EEESt10_Select1stISE_ESt4lessIS5_ESaISE_EE9_M_mbeginEv
FN:738,_ZNSt8_Rb_treeINSt7__cxx1112basic_stringIcSt11char_traitsIcESaIcEEESt4pairIKS5_St6vectorIN5Nexus3rpc17ServiceDescriptorESaISB_EEESt10_Select1stISE_ESt4lessIS5_ESaISE_EE8_M_beginEv
FNDA:157,_ZNSt8_Rb_treeINSt7__cxx1112basic_stringIcSt11char_traitsIcESaIcEEESt4pairIKS5_St6vectorIN5Nexus3rpc17ServiceDescriptorESaISB_EEESt10_Select1stISE_ESt4lessIS5_ESaISE_EE8_M_beginEv
FN:738,_ZNSt8_Rb_treeINSt7__cxx1112basic_stringIcSt11char_traitsIcESaIcEEESt4pairIKS5_St8weak_ptrIN5Nexus3rpc8NodeImplEEESt10_Select1stISD_ESt4lessIS5_ESaISD_EE8_M_beginEv
FNDA:278,_ZNSt8_Rb_treeINSt7__cxx1112basic_stringIcSt11char_traitsIcESaIcEEESt4pairIKS5_St8weak_ptrIN5Nexus3rpc8NodeImplEEESt10_Select1stISD_ESt4lessIS5_ESaISD_EE8_M_beginEv
FN:749,_ZNSt8_Rb_treeINSt7__cxx1112basic_stringIcSt11char_traitsIcESaIcEEESt4pairIKS5_St8weak_ptrIN5Nexus3rpc8NodeImplEEESt10_Select1stISD_ESt4lessIS5_ESaISD_EE6_M_endEv
FNDA:330,_ZNSt8_Rb_treeINSt7__cxx1112basic_stringIcSt11char_traitsIcESaIcEEESt4pairIKS5_St8weak_ptrIN5Nexus3rpc8NodeImplEEESt10_Select1stISD_ESt4lessIS5_ESaISD_EE6_M_endEv
FN:749,_ZNSt8_Rb_treeINSt7__cxx1112basic_stringIcSt11char_traitsIcESaIcEEESt4pairIKS5_St6vectorIN5Nexus3rpc17ServiceDescriptorESaISB_EEESt10_Select1stISE_ESt4lessIS5_ESaISE_EE6_M_endEv
FNDA:134,_ZNSt8_Rb_treeINSt7__cxx1112basic_stringIcSt11char_traitsIcESaIcEEESt4pairIKS5_St6vectorIN5Nexus3rpc17ServiceDescriptorESaISB_EEESt10_Select1stISE_ESt4lessIS5_ESaISE_EE6_M_endEv
FN:757,_ZNSt8_Rb_treeINSt7__cxx1112basic_stringIcSt11char_traitsIcESaIcEEESt4pairIKS5_St6vectorIN5Nexus3rpc17ServiceDescriptorESaISB_EEESt10_Select1stISE_ESt4lessIS5_ESaISE_EE6_S_keyEPKSt13_Rb_tree_nodeISE_E
FNDA:83,_ZNSt8_Rb_treeINSt7__cxx1112basic_stringIcSt11char_traitsIcESaIcEEESt4pairIKS5_St6vectorIN5Nexus3rpc17ServiceDescriptorESaISB_EEESt10_Select1stISE_ESt4lessIS5_ESaISE_EE6_S_keyEPKSt13_Rb_tree_nodeISE_E
FN:757,_ZNSt8_Rb_treeINSt7__cxx1112basic_stringIcSt11char_traitsIcESaIcEEESt4pairIKS5_St8weak_ptrIN5Nexus3rpc8NodeImplEEESt10_Select1stISD_ESt4lessIS5_ESaISD_EE6_S_keyEPKSt13_Rb_tree_nodeISD_E
FNDA:87,_ZNSt8_Rb_treeINSt7__cxx1112basic_stringIcSt11char_traitsIcESaIcEEESt4pairIKS5_St8weak_ptrIN5Nexus3rpc8NodeImplEEESt10_Select1stISD_ESt4lessIS5_ESaISD_EE6_S_keyEPKSt13_Rb_tree_nodeISD_E
FN:779,_ZNSt8_Rb_treeINSt7__cxx1112basic_stringIcSt11char_traitsIcESaIcEEESt4pairIKS5_St8weak_ptrIN5Nexus3rpc8NodeImplEEESt10_Select1stISD_ESt4lessIS5_ESaISD_EE7_S_leftEPSt18_Rb_tree_node_base
FNDA:6,_ZNSt8_Rb_treeINSt7__cxx1112basic_stringIcSt11char_traitsIcESaIcEEESt4pairIKS5_St8weak_ptrIN5Nexus3rpc8NodeImplEEESt10_Select1stISD_ESt4lessIS5_ESaISD_EE7_S_leftEPSt18_Rb_tree_node_base
FN:779,_ZNSt8_Rb_treeINSt7__cxx1112basic_stringIcSt11char_traitsIcESaIcEEESt4pairIKS5_St6vectorIN5Nexus3rpc17ServiceDescriptorESaISB_EEESt10_Select1stISE_ESt4lessIS5_ESaISE_EE7_S_leftEPSt18_Rb_tree_node_base
FNDA:38,_ZNSt8_Rb_treeINSt7__cxx1112basic_stringIcSt11char_traitsIcESaIcEEESt4pairIKS5_St6vectorIN5Nexus3rpc17ServiceDescriptorESaISB_EEESt10_Select1stISE_ESt4lessIS5_ESaISE_EE7_S_leftEPSt18_Rb_tree_node_base
FN:787,_ZNSt8_Rb_treeINSt7__cxx1112basic_stringIcSt11char_traitsIcESaIcEEESt4pairIKS5_St8weak_ptrIN5Nexus3rpc8NodeImplEEESt10_Select1stISD_ESt4lessIS5_ESaISD_EE8_S_rightEPSt18_Rb_tree_node_base
FNDA:16,_ZNSt8_Rb_treeINSt7__cxx1112basic_stringIcSt11char_traitsIcESaIcEEESt4pairIKS5_St8weak_ptrIN5Nexus3rpc8NodeImplEEESt10_Select1stISD_ESt4lessIS5_ESaISD_EE8_S_rightEPSt18_Rb_tree_node_base
FN:787,_ZNSt8_Rb_treeINSt7__cxx1112basic_stringIcSt11char_traitsIcESaIcEEESt4pairIKS5_St6vectorIN5Nexus3rpc17ServiceDescriptorESaISB_EEESt10_Select1stISE_ESt4lessIS5_ESaISE_EE8_S_rightEPSt18_Rb_tree_node_base
FNDA:1,_ZNSt8_Rb_treeINSt7__cxx1112basic_stringIcSt11char_traitsIcESaIcEEESt4pairIKS5_St6vectorIN5Nexus3rpc17ServiceDescriptorESaISB_EEESt10_Select1stISE_ESt4lessIS5_ESaISE_EE8_S_rightEPSt18_Rb_tree_node_base
FN:795,_ZNSt8_Rb_treeINSt7__cxx1112basic_stringIcSt11char_traitsIcESaIcEEESt4pairIKS5_St8weak_ptrIN5Nexus3rpc8NodeImplEEESt10_Select1stISD_ESt4lessIS5_ESaISD_EE6_S_keyEPKSt18_Rb_tree_node_base
FNDA:10,_ZNSt8_Rb_treeINSt7__cxx1112basic_stringIcSt11char_traitsIcESaIcEEESt4pairIKS5_St8weak_ptrIN5Nexus3rpc8NodeImplEEESt10_Select1stISD_ESt4lessIS5_ESaISD_EE6_S_keyEPKSt18_Rb_tree_node_base
FN:795,_ZNSt8_Rb_treeINSt7__cxx1112basic_stringIcSt11char_traitsIcESaIcEEESt4pairIKS5_St6vectorIN5Nexus3rpc17ServiceDescriptorESaISB_EEESt10_Select1stISE_ESt4lessIS5_ESaISE_EE6_S_keyEPKSt18_Rb_tree_node_base
FNDA:23,_ZNSt8_Rb_treeINSt7__cxx1112basic_stringIcSt11char_traitsIcESaIcEEESt4pairIKS5_St6vectorIN5Nexus3rpc17ServiceDescriptorESaISB_EEESt10_Select1stISE_ESt4lessIS5_ESaISE_EE6_S_keyEPKSt18_Rb_tree_node_base
FN:928,_ZNSt8_Rb_treeINSt7__cxx1112basic_stringIcSt11char_traitsIcESaIcEEESt4pairIKS5_St8weak_ptrIN5Nexus3rpc8NodeImplEEESt10_Select1stISD_ESt4lessIS5_ESaISD_EEC2Ev
FNDA:5,_ZNSt8_Rb_treeINSt7__cxx1112basic_stringIcSt11char_traitsIcESaIcEEESt4pairIKS5_St8weak_ptrIN5Nexus3rpc8NodeImplEEESt10_Select1stISD_ESt4lessIS5_ESaISD_EEC2Ev
FN:928,_ZNSt8_Rb_treeINSt7__cxx1112basic_stringIcSt11char_traitsIcESaIcEEESt4pairIKS5_St6vectorIN5Nexus3rpc17ServiceDescriptorESaISB_EEESt10_Select1stISE_ESt4lessIS5_ESaISE_EEC2Ev
FNDA:5,_ZNSt8_Rb_treeINSt7__cxx1112basic_stringIcSt11char_traitsIcESaIcEEESt4pairIKS5_St6vectorIN5Nexus3rpc17ServiceDescriptorESaISB_EEESt10_Select1stISE_ESt4lessIS5_ESaISE_EEC2Ev
FN:983,_ZNSt8_Rb_treeINSt7__cxx1112basic_stringIcSt11char_traitsIcESaIcEEESt4pairIKS5_St6vectorIN5Nexus3rpc17ServiceDescriptorESaISB_EEESt10_Select1stISE_ESt4lessIS5_ESaISE_EED2Ev
FNDA:5,_ZNSt8_Rb_treeINSt7__cxx1112basic_stringIcSt11char_traitsIcESaIcEEESt4pairIKS5_St6vectorIN5Nexus3rpc17ServiceDescriptorESaISB_EEESt10_Select1stISE_ESt4lessIS5_ESaISE_EED2Ev
FN:983,_ZNSt8_Rb_treeINSt7__cxx1112basic_stringIcSt11char_traitsIcESaIcEEESt4pairIKS5_St8weak_ptrIN5Nexus3rpc8NodeImplEEESt10_Select1stISD_ESt4lessIS5_ESaISD_EED2Ev
FNDA:5,_ZNSt8_Rb_treeINSt7__cxx1112basic_stringIcSt11char_traitsIcESaIcEEESt4pairIKS5_St8weak_ptrIN5Nexus3rpc8NodeImplEEESt10_Select1stISD_ESt4lessIS5_ESaISD_EED2Ev
FN:991,_ZNKSt8_Rb_treeINSt7__cxx1112basic_stringIcSt11char_traitsIcESaIcEEESt4pairIKS5_St6vectorIN5Nexus3rpc17ServiceDescriptorESaISB_EEESt10_Select1stISE_ESt4lessIS5_ESaISE_EE8key_compEv
FNDA:14,_ZNKSt8_Rb_treeINSt7__cxx1112basic_stringIcSt11char_traitsIcESaIcEEESt4pairIKS5_St6vectorIN5Nexus3rpc17ServiceDescriptorESaISB_EEESt10_Select1stISE_ESt4lessIS5_ESaISE_EE8key_compEv
FN:991,_ZNKSt8_Rb_treeINSt7__cxx1112basic_stringIcSt11char_traitsIcESaIcEEESt4pairIKS5_St8weak_ptrIN5Nexus3rpc8NodeImplEEESt10_Select1stISD_ESt4lessIS5_ESaISD_EE8key_compEv
FNDA:0,_ZNKSt8_Rb_treeINSt7__cxx1112basic_stringIcSt11char_traitsIcESaIcEEESt4pairIKS5_St8weak_ptrIN5Nexus3rpc8NodeImplEEESt10_Select1stISD_ESt4lessIS5_ESaISD_EE8key_compEv
FN:995,_ZNSt8_Rb_treeINSt7__cxx1112basic_stringIcSt11char_traitsIcESaIcEEESt4pairIKS5_St8weak_ptrIN5Nexus3rpc8NodeImplEEESt10_Select1stISD_ESt4lessIS5_ESaISD_EE5beginEv
FNDA:258,_ZNSt8_Rb_treeINSt7__cxx1112basic_stringIcSt11char_traitsIcESaIcEEESt4pairIKS5_St8weak_ptrIN5Nexus3rpc8NodeImplEEESt10_Select1stISD_ESt4lessIS5_ESaISD_EE5beginEv
FN:995,_ZNSt8_Rb_treeINSt7__cxx1112basic_stringIcSt11char_traitsIcESaIcEEESt4pairIKS5_St6vectorIN5Nexus3rpc17ServiceDescriptorESaISB_EEESt10_Select1stISE_ESt4lessIS5_ESaISE_EE5beginEv
FNDA:140,_ZNSt8_Rb_treeINSt7__cxx1112basic_stringIcSt11char_traitsIcESaIcEEESt4pairIKS5_St6vectorIN5Nexus3rpc17ServiceDescriptorESaISB_EEESt10_Select1stISE_ESt4lessIS5_ESaISE_EE5beginEv
FN:999,_ZNKSt8_Rb_treeINSt7__cxx1112basic_stringIcSt11char_traitsIcESaIcEEESt4pairIKS5_St6vectorIN5Nexus3rpc17ServiceDescriptorESaISB_EEESt10_Select1stISE_ESt4lessIS5_ESaISE_EE5beginEv
FNDA:0,_ZNKSt8_Rb_treeINSt7__cxx1112basic_stringIcSt11char_traitsIcESaIcEEESt4pairIKS5_St6vectorIN5Nexus3rpc17ServiceDescriptorESaISB_EEESt10_Select1stISE_ESt4lessIS5_ESaISE_EE5beginEv
FN:1003,_ZNSt8_Rb_treeINSt7__cxx1112basic_stringIcSt11char_traitsIcESaIcEEESt4pairIKS5_St8weak_ptrIN5Nexus3rpc8NodeImplEEESt10_Select1stISD_ESt4lessIS5_ESaISD_EE3endEv
FNDA:597,_ZNSt8_Rb_treeINSt7__cxx1112basic_stringIcSt11char_traitsIcESaIcEEESt4pairIKS5_St8weak_ptrIN5Nexus3rpc8NodeImplEEESt10_Select1stISD_ESt4lessIS5_ESaISD_EE3endEv
FN:1003,_ZNSt8_Rb_treeINSt7__cxx1112basic_stringIcSt11char_traitsIcESaIcEEESt4pairIKS5_St6vectorIN5Nexus3rpc17ServiceDescriptorESaISB_EEESt10_Select1stISE_ESt4lessIS5_ESaISE_EE3endEv
FNDA:252,_ZNSt8_Rb_treeINSt7__cxx1112basic_stringIcSt11char_traitsIcESaIcEEESt4pairIKS5_St6vectorIN5Nexus3rpc17ServiceDescriptorESaISB_EEESt10_Select1stISE_ESt4lessIS5_ESaISE_EE3endEv
FN:1007,_ZNKSt8_Rb_treeINSt7__cxx1112basic_stringIcSt11char_traitsIcESaIcEEESt4pairIKS5_St6vectorIN5Nexus3rpc17ServiceDescriptorESaISB_EEESt10_Select1stISE_ESt4lessIS5_ESaISE_EE3endEv
FNDA:0,_ZNKSt8_Rb_treeINSt7__cxx1112basic_stringIcSt11char_traitsIcESaIcEEESt4pairIKS5_St6vectorIN5Nexus3rpc17ServiceDescriptorESaISB_EEESt10_Select1stISE_ESt4lessIS5_ESaISE_EE3endEv
FN:1031,_ZNKSt8_Rb_treeINSt7__cxx1112basic_stringIcSt11char_traitsIcESaIcEEESt4pairIKS5_St6vectorIN5Nexus3rpc17ServiceDescriptorESaISB_EEESt10_Select1stISE_ESt4lessIS5_ESaISE_EE4sizeEv
FNDA:23,_ZNKSt8_Rb_treeINSt7__cxx1112basic_stringIcSt11char_traitsIcESaIcEEESt4pairIKS5_St6vectorIN5Nexus3rpc17ServiceDescriptorESaISB_EEESt10_Select1stISE_ESt4lessIS5_ESaISE_EE4sizeEv
FN:1031,_ZNKSt8_Rb_treeINSt7__cxx1112basic_stringIcSt11char_traitsIcESaIcEEESt4pairIKS5_St8weak_ptrIN5Nexus3rpc8NodeImplEEESt10_Select1stISD_ESt4lessIS5_ESaISD_EE4sizeEv
FNDA:169,_ZNKSt8_Rb_treeINSt7__cxx1112basic_stringIcSt11char_traitsIcESaIcEEESt4pairIKS5_St8weak_ptrIN5Nexus3rpc8NodeImplEEESt10_Select1stISD_ESt4lessIS5_ESaISD_EE4sizeEv
FN:1204,_ZNSt8_Rb_treeINSt7__cxx1112basic_stringIcSt11char_traitsIcESaIcEEESt4pairIKS5_St6vectorIN5Nexus3rpc17ServiceDescriptorESaISB_EEESt10_Select1stISE_ESt4lessIS5_ESaISE_EE5eraseB5cxx11ESt17_Rb_tree_iteratorISE_E
FNDA:22,_ZNSt8_Rb_treeINSt7__cxx1112basic_stringIcSt11char_traitsIcESaIcEEESt4pairIKS5_St6vectorIN5Nexus3rpc17ServiceDescriptorESaISB_EEESt10_Select1stISE_ESt4lessIS5_ESaISE_EE5eraseB5cxx11ESt17_Rb_tree_iteratorISE_E
FN:1204,_ZNSt8_Rb_treeINSt7__cxx1112basic_stringIcSt11char_traitsIcESaIcEEESt4pairIKS5_St8weak_ptrIN5Nexus3rpc8NodeImplEEESt10_Select1stISD_ESt4lessIS5_ESaISD_EE5eraseB5cxx11ESt17_Rb_tree_iteratorISD_E
FNDA:53,_ZNSt8_Rb_treeINSt7__cxx1112basic_stringIcSt11char_traitsIcESaIcEEESt4pairIKS5_St8weak_ptrIN5Nexus3rpc8NodeImplEEESt10_Select1stISD_ESt4lessIS5_ESaISD_EE5eraseB5cxx11ESt17_Rb_tree_iteratorISD_E
FN:1252,_ZNSt8_Rb_treeINSt7__cxx1112basic_stringIcSt11char_traitsIcESaIcEEESt4pairIKS5_St6vectorIN5Nexus3rpc17ServiceDescriptorESaISB_EEESt10_Select1stISE_ESt4lessIS5_ESaISE_EE5clearEv
FNDA:64,_ZNSt8_Rb_treeINSt7__cxx1112basic_stringIcSt11char_traitsIcESaIcEEESt4pairIKS5_St6vectorIN5Nexus3rpc17ServiceDescriptorESaISB_EEESt10_Select1stISE_ESt4lessIS5_ESaISE_EE5clearEv
FN:1252,_ZNSt8_Rb_treeINSt7__cxx1112basic_stringIcSt11char_traitsIcESaIcEEESt4pairIKS5_St8weak_ptrIN5Nexus3rpc8NodeImplEEESt10_Select1stISD_ESt4lessIS5_ESaISD_EE5clearEv
FNDA:53,_ZNSt8_Rb_treeINSt7__cxx1112basic_stringIcSt11char_traitsIcESaIcEEESt4pairIKS5_St8weak_ptrIN5Nexus3rpc8NodeImplEEESt10_Select1stISD_ESt4lessIS5_ESaISD_EE5clearEv
FN:1269,_ZNSt8_Rb_treeINSt7__cxx1112basic_stringIcSt11char_traitsIcESaIcEEESt4pairIKS5_St8weak_ptrIN5Nexus3rpc8NodeImplEEESt10_Select1stISD_ESt4lessIS5_ESaISD_EE11lower_boundERS7_
FNDA:55,_ZNSt8_Rb_treeINSt7__cxx1112basic_stringIcSt11char_traitsIcESaIcEEESt4pairIKS5_St8weak_ptrIN5Nexus3rpc8NodeImplEEESt10_Select1stISD_ESt4lessIS5_ESaISD_EE11lower_boundERS7_
FN:1269,_ZNSt8_Rb_treeINSt7__cxx1112basic_stringIcSt11char_traitsIcESaIcEEESt4pairIKS5_St6vectorIN5Nexus3rpc17ServiceDescriptorESaISB_EEESt10_Select1stISE_ESt4lessIS5_ESaISE_EE11lower_boundERS7_
FNDA:37,_ZNSt8_Rb_treeINSt7__cxx1112basic_stringIcSt11char_traitsIcESaIcEEESt4pairIKS5_St6vectorIN5Nexus3rpc17ServiceDescriptorESaISB_EEESt10_Select1stISE_ESt4lessIS5_ESaISE_EE11lower_boundERS7_
FN:1883,_ZNSt8_Rb_treeINSt7__cxx1112basic_stringIcSt11char_traitsIcESaIcEEESt4pairIKS5_St6vectorIN5Nexus3rpc17ServiceDescriptorESaISB_EEESt10_Select1stISE_ESt4lessIS5_ESaISE_EE8_M_eraseEPSt13_Rb_tree_nodeISE_E
FNDA:70,_ZNSt8_Rb_treeINSt7__cxx1112basic_stringIcSt11char_traitsIcESaIcEEESt4pairIKS5_St6vectorIN5Nexus3rpc17ServiceDescriptorESaISB_EEESt10_Select1stISE_ESt4lessIS5_ESaISE_EE8_M_eraseEPSt13_Rb_tree_nodeISE_E
FN:1883,_ZNSt8_Rb_treeINSt7__cxx1112basic_stringIcSt11char_traitsIcESaIcEEESt4pairIKS5_St8weak_ptrIN5Nexus3rpc8NodeImplEEESt10_Select1stISD_ESt4lessIS5_ESaISD_EE8_M_eraseEPSt13_Rb_tree_nodeISD_E
FNDA:60,_ZNSt8_Rb_treeINSt7__cxx1112basic_stringIcSt11char_traitsIcESaIcEEESt4pairIKS5_St8weak_ptrIN5Nexus3rpc8NodeImplEEESt10_Select1stISD_ESt4lessIS5_ESaISD_EE8_M_eraseEPSt13_Rb_tree_nodeISD_E
FN:1900,_ZNSt8_Rb_treeINSt7__cxx1112basic_stringIcSt11char_traitsIcESaIcEEESt4pairIKS5_St8weak_ptrIN5Nexus3rpc8NodeImplEEESt10_Select1stISD_ESt4lessIS5_ESaISD_EE14_M_lower_boundEPSt13_Rb_tree_nodeISD_EPSt18_Rb_tree_node_baseRS7_
FNDA:114,_ZNSt8_Rb_treeINSt7__cxx1112basic_stringIcSt11char_traitsIcESaIcEEESt4pairIKS5_St8weak_ptrIN5Nexus3rpc8NodeImplEEESt10_Select1stISD_ESt4lessIS5_ESaISD_EE14_M_lower_boundEPSt13_Rb_tree_nodeISD_EPSt18_Rb_tree_node_baseRS7_
FN:1900,_ZNSt8_Rb_treeINSt7__cxx1112basic_stringIcSt11char_traitsIcESaIcEEESt4pairIKS5_St6vectorIN5Nexus3rpc17ServiceDescriptorESaISB_EEESt10_Select1stISE_ESt4lessIS5_ESaISE_EE14_M_lower_boundEPSt13_Rb_tree_nodeISE_EPSt18_Rb_tree_node_baseRS7_
FNDA:65,_ZNSt8_Rb_treeINSt7__cxx1112basic_stringIcSt11char_traitsIcESaIcEEESt4pairIKS5_St6vectorIN5Nexus3rpc17ServiceDescriptorESaISB_EEESt10_Select1stISE_ESt4lessIS5_ESaISE_EE14_M_lower_boundEPSt13_Rb_tree_nodeISE_EPSt18_Rb_tree_node_baseRS7_
FN:1932,_ZNSt8_Rb_treeINSt7__cxx1112basic_stringIcSt11char_traitsIcESaIcEEESt4pairIKS5_St8weak_ptrIN5Nexus3rpc8NodeImplEEESt10_Select1stISD_ESt4lessIS5_ESaISD_EE14_M_upper_boundEPSt13_Rb_tree_nodeISD_EPSt18_Rb_tree_node_baseRS7_
FNDA:2,_ZNSt8_Rb_treeINSt7__cxx1112basic_stringIcSt11char_traitsIcESaIcEEESt4pairIKS5_St8weak_ptrIN5Nexus3rpc8NodeImplEEESt10_Select1stISD_ESt4lessIS5_ESaISD_EE14_M_upper_boundEPSt13_Rb_tree_nodeISD_EPSt18_Rb_tree_node_baseRS7_
FN:1966,_ZNSt8_Rb_treeINSt7__cxx1112basic_stringIcSt11char_traitsIcESaIcEEESt4pairIKS5_St8weak_ptrIN5Nexus3rpc8NodeImplEEESt10_Select1stISD_ESt4lessIS5_ESaISD_EE11equal_rangeERS7_
FNDA:57,_ZNSt8_Rb_treeINSt7__cxx1112basic_stringIcSt11char_traitsIcESaIcEEESt4pairIKS5_St8weak_ptrIN5Nexus3rpc8NodeImplEEESt10_Select1stISD_ESt4lessIS5_ESaISD_EE11equal_rangeERS7_
FN:2061,_ZNSt8_Rb_treeINSt7__cxx1112basic_stringIcSt11char_traitsIcESaIcEEESt4pairIKS5_St6vectorIN5Nexus3rpc17ServiceDescriptorESaISB_EEESt10_Select1stISE_ESt4lessIS5_ESaISE_EE24_M_get_insert_unique_posERS7_
FNDA:23,_ZNSt8_Rb_treeINSt7__cxx1112basic_stringIcSt11char_traitsIcESaIcEEESt4pairIKS5_St6vectorIN5Nexus3rpc17ServiceDescriptorESaISB_EEESt10_Select1stISE_ESt4lessIS5_ESaISE_EE24_M_get_insert_unique_posERS7_
FN:2061,_ZNSt8_Rb_treeINSt7__cxx1112basic_stringIcSt11char_traitsIcESaIcEEESt4pairIKS5_St8weak_ptrIN5Nexus3rpc8NodeImplEEESt10_Select1stISD_ESt4lessIS5_ESaISD_EE24_M_get_insert_unique_posERS7_
FNDA:51,_ZNSt8_Rb_treeINSt7__cxx1112basic_stringIcSt11char_traitsIcESaIcEEESt4pairIKS5_St8weak_ptrIN5Nexus3rpc8NodeImplEEESt10_Select1stISD_ESt4lessIS5_ESaISD_EE24_M_get_insert_unique_posERS7_
FN:2163,_ZNSt8_Rb_treeINSt7__cxx1112basic_stringIcSt11char_traitsIcESaIcEEESt4pairIKS5_St6vectorIN5Nexus3rpc17ServiceDescriptorESaISB_EEESt10_Select1stISE_ESt4lessIS5_ESaISE_EE29_M_get_insert_hint_unique_posESt23_Rb_tree_const_iteratorISE_ERS7_
FNDA:23,_ZNSt8_Rb_treeINSt7__cxx1112basic_stringIcSt11char_traitsIcESaIcEEESt4pairIKS5_St6vectorIN5Nexus3rpc17ServiceDescriptorESaISB_EEESt10_Select1stISE_ESt4lessIS5_ESaISE_EE29_M_get_insert_hint_unique_posESt23_Rb_tree_const_iteratorISE_ERS7_
FN:2163,_ZNSt8_Rb_treeINSt7__cxx1112basic_stringIcSt11char_traitsIcESaIcEEESt4pairIKS5_St8weak_ptrIN5Nexus3rpc8NodeImplEEESt10_Select1stISD_ESt4lessIS5_ESaISD_EE29_M_get_insert_hint_unique_posESt23_Rb_tree_const_iteratorISD_ERS7_
FNDA:55,_ZNSt8_Rb_treeINSt7__cxx1112basic_stringIcSt11char_traitsIcESaIcEEESt4pairIKS5_St8weak_ptrIN5Nexus3rpc8NodeImplEEESt10_Select1stISD_ESt4lessIS5_ESaISD_EE29_M_get_insert_hint_unique_posESt23_Rb_tree_const_iteratorISD_ERS7_
FN:2330,_ZNSt8_Rb_treeINSt7__cxx1112basic_stringIcSt11char_traitsIcESaIcEEESt4pairIKS5_St8weak_ptrIN5Nexus3rpc8NodeImplEEESt10_Select1stISD_ESt4lessIS5_ESaISD_EE14_M_insert_nodeEPSt18_Rb_tree_node_baseSL_PSt13_Rb_tree_nodeISD_E
FNDA:55,_ZNSt8_Rb_treeINSt7__cxx1112basic_stringIcSt11char_traitsIcESaIcEEESt4pairIKS5_St8weak_ptrIN5Nexus3rpc8NodeImplEEESt10_Select1stISD_ESt4lessIS5_ESaISD_EE14_M_insert_nodeEPSt18_Rb_tree_node_baseSL_PSt13_Rb_tree_nodeISD_E
FN:2330,_ZNSt8_Rb_treeINSt7__cxx1112basic_stringIcSt11char_traitsIcESaIcEEESt4pairIKS5_St6vectorIN5Nexus3rpc17ServiceDescriptorESaISB_EEESt10_Select1stISE_ESt4lessIS5_ESaISE_EE14_M_insert_nodeEPSt18_Rb_tree_node_baseSM_PSt13_Rb_tree_nodeISE_E
FNDA:23,_ZNSt8_Rb_treeINSt7__cxx1112basic_stringIcSt11char_traitsIcESaIcEEESt4pairIKS5_St6vectorIN5Nexus3rpc17ServiceDescriptorESaISB_EEESt10_Select1stISE_ESt4lessIS5_ESaISE_EE14_M_insert_nodeEPSt18_Rb_tree_node_baseSM_PSt13_Rb_tree_nodeISE_E
FN:2428,_ZNSt8_Rb_treeINSt7__cxx1112basic_stringIcSt11char_traitsIcESaIcEEESt4pairIKS5_St8weak_ptrIN5Nexus3rpc8NodeImplEEESt10_Select1stISD_ESt4lessIS5_ESaISD_EE22_M_emplace_hint_uniqueIJRKSt21piecewise_construct_tSt5tupleIJRS7_EESO_IJEEEEESt17_Rb_tree_iteratorISD_ESt23_Rb_tree_const_iteratorISD_EDpOT_
FNDA:55,_ZNSt8_Rb_treeINSt7__cxx1112basic_stringIcSt11char_traitsIcESaIcEEESt4pairIKS5_St8weak_ptrIN5Nexus3rpc8NodeImplEEESt10_Select1stISD_ESt4lessIS5_ESaISD_EE22_M_emplace_hint_uniqueIJRKSt21piecewise_construct_tSt5tupleIJRS7_EESO_IJEEEEESt17_Rb_tree_iteratorISD_ESt23_Rb_tree_const_iteratorISD_EDpOT_
FN:2428,_ZNSt8_Rb_treeINSt7__cxx1112basic_stringIcSt11char_traitsIcESaIcEEESt4pairIKS5_St6vectorIN5Nexus3rpc17ServiceDescriptorESaISB_EEESt10_Select1stISE_ESt4lessIS5_ESaISE_EE22_M_emplace_hint_uniqueIJRKSt21piecewise_construct_tSt5tupleIJRS7_EESP_IJEEEEESt17_Rb_tree_iteratorISE_ESt23_Rb_tree_const_iteratorISE_EDpOT_
FNDA:23,_ZNSt8_Rb_treeINSt7__cxx1112basic_stringIcSt11char_traitsIcESaIcEEESt4pairIKS5_St6vectorIN5Nexus3rpc17ServiceDescriptorESaISB_EEESt10_Select1stISE_ESt4lessIS5_ESaISE_EE22_M_emplace_hint_uniqueIJRKSt21piecewise_construct_tSt5tupleIJRS7_EESP_IJEEEEESt17_Rb_tree_iteratorISE_ESt23_Rb_tree_const_iteratorISE_EDpOT_
FN:2480,_ZNSt8_Rb_treeINSt7__cxx1112basic_stringIcSt11char_traitsIcESaIcEEESt4pairIKS5_St8weak_ptrIN5Nexus3rpc8NodeImplEEESt10_Select1stISD_ESt4lessIS5_ESaISD_EE12_M_erase_auxESt23_Rb_tree_const_iteratorISD_E
FNDA:53,_ZNSt8_Rb_treeINSt7__cxx1112basic_stringIcSt11char_traitsIcESaIcEEESt4pairIKS5_St8weak_ptrIN5Nexus3rpc8NodeImplEEESt10_Select1stISD_ESt4lessIS5_ESaISD_EE12_M_erase_auxESt23_Rb_tree_const_iteratorISD_E
FN:2480,_ZNSt8_Rb_treeINSt7__cxx1112basic_stringIcSt11char_traitsIcESaIcEEESt4pairIKS5_St6vectorIN5Nexus3rpc17ServiceDescriptorESaISB_EEESt10_Select1stISE_ESt4lessIS5_ESaISE_EE12_M_erase_auxESt23_Rb_tree_const_iteratorISE_E
FNDA:22,_ZNSt8_Rb_treeINSt7__cxx1112basic_stringIcSt11char_traitsIcESaIcEEESt4pairIKS5_St6vectorIN5Nexus3rpc17ServiceDescriptorESaISB_EEESt10_Select1stISE_ESt4lessIS5_ESaISE_EE12_M_erase_auxESt23_Rb_tree_const_iteratorISE_E
FN:2494,_ZNSt8_Rb_treeINSt7__cxx1112basic_stringIcSt11char_traitsIcESaIcEEESt4pairIKS5_St8weak_ptrIN5Nexus3rpc8NodeImplEEESt10_Select1stISD_ESt4lessIS5_ESaISD_EE12_M_erase_auxESt23_Rb_tree_const_iteratorISD_ESL_
FNDA:57,_ZNSt8_Rb_treeINSt7__cxx1112basic_stringIcSt11char_traitsIcESaIcEEESt4pairIKS5_St8weak_ptrIN5Nexus3rpc8NodeImplEEESt10_Select1stISD_ESt4lessIS5_ESaISD_EE12_M_erase_auxESt23_Rb_tree_const_iteratorISD_ESL_
FN:2507,_ZNSt8_Rb_treeINSt7__cxx1112basic_stringIcSt11char_traitsIcESaIcEEESt4pairIKS5_St8weak_ptrIN5Nexus3rpc8NodeImplEEESt10_Select1stISD_ESt4lessIS5_ESaISD_EE5eraseERS7_
FNDA:57,_ZNSt8_Rb_treeINSt7__cxx1112basic_stringIcSt11char_traitsIcESaIcEEESt4pairIKS5_St8weak_ptrIN5Nexus3rpc8NodeImplEEESt10_Select1stISD_ESt4lessIS5_ESaISD_EE5eraseERS7_
FN:2520,_ZNSt8_Rb_treeINSt7__cxx1112basic_stringIcSt11char_traitsIcESaIcEEESt4pairIKS5_St8weak_ptrIN5Nexus3rpc8NodeImplEEESt10_Select1stISD_ESt4lessIS5_ESaISD_EE4findERS7_
FNDA:57,_ZNSt8_Rb_treeINSt7__cxx1112basic_stringIcSt11char_traitsIcESaIcEEESt4pairIKS5_St8weak_ptrIN5Nexus3rpc8NodeImplEEESt10_Select1stISD_ESt4lessIS5_ESaISD_EE4findERS7_
FN:2520,_ZNSt8_Rb_treeINSt7__cxx1112basic_stringIcSt11char_traitsIcESaIcEEESt4pairIKS5_St6vectorIN5Nexus3rpc17ServiceDescriptorESaISB_EEESt10_Select1stISE_ESt4lessIS5_ESaISE_EE4findERS7_
FNDA:28,_ZNSt8_Rb_treeINSt7__cxx1112basic_stringIcSt11char_traitsIcESaIcEEESt4pairIKS5_St6vectorIN5Nexus3rpc17ServiceDescriptorESaISB_EEESt10_Select1stISE_ESt4lessIS5_ESaISE_EE4findERS7_
DA:146,0
DA:150,0
DA:173,0
DA:174,0
DA:175,0
DA:176,0
DA:177,0
DA:206,0
DA:208,0
DA:209,0
DA:210,0
DA:211,0
DA:212,0
DA:234,337
DA:235,337
DA:234,157
DA:235,157
DA:238,87
DA:239,87
DA:238,83
DA:239,83
DA:273,526
DA:274,526
DA:273,1242
DA:274,1242
DA:277,51
DA:278,51
DA:277,55
DA:278,55
DA:281,172
DA:282,172
DA:281,60
DA:282,60
DA:285,170
DA:287,170
DA:288,170
DA:285,46
DA:287,46
DA:288,46
DA:300,0
DA:302,0
DA:303,0
DA:300,0
DA:302,0
DA:303,0
DA:315,88
DA:316,88
DA:315,163
DA:316,163
DA:320,377
DA:321,377
DA:320,182
DA:321,182
DA:347,0
DA:348,0
DA:350,45
DA:351,45
DA:350,332
DA:351,332
DA:354,23
DA:355,23
DA:354,55
DA:355,55
DA:362,0
DA:363,0
DA:366,0
DA:368,0
DA:369,0
DA:373,0
DA:375,0
DA:376,0
DA:377,0
DA:396,110
DA:397,110
DA:401,4
DA:402,4
DA:401,0
DA:402,0
DA:547,92
DA:548,92
DA:547,220
DA:548,220
DA:560,23
DA:561,23
DA:560,55
DA:561,55
DA:564,23
DA:565,23
DA:564,55
DA:565,55
DA:590,23
DA:594,23
DA:595,23
DA:599,0
DA:601,0
DA:602,0
DA:603,0
DA:605,23
DA:590,55
DA:594,55
DA:595,55
DA:599,0
DA:601,0
DA:602,0
DA:603,0
DA:605,55
DA:609,23
DA:611,23
DA:612,23
DA:613,23
DA:609,55
DA:611,55
DA:612,55
DA:613,55
DA:618,23
DA:623,23
DA:624,23
DA:626,23
DA:618,55
DA:623,55
DA:624,55
DA:626,55
DA:629,23
DA:631,23
DA:632,23
DA:633,23
DA:629,55
DA:631,55
DA:632,55
DA:633,55
DA:667,5
DA:671,5
DA:672,5
DA:667,5
DA:671,5
DA:672,5
DA:718,0
DA:719,0
DA:718,0
DA:719,0
DA:726,0
DA:727,0
DA:726,8
DA:727,8
DA:734,157
DA:735,157
DA:734,278
DA:735,278
DA:738,157
DA:739,157
DA:738,278
DA:739,278
DA:749,134
DA:750,134
DA:749,330
DA:750,330
DA:757,83
DA:775,83
DA:757,87
DA:775,87
DA:779,38
DA:780,38
DA:779,6
DA:780,6
DA:787,1
DA:788,1
DA:787,16
DA:788,16
DA:795,23
DA:796,23
DA:795,10
DA:796,10
DA:928,5
DA:928,5
DA:983,5
DA:984,5
DA:983,5
DA:984,5
DA:991,14
DA:992,14
DA:991,0
DA:992,0
DA:995,258
DA:996,258
DA:995,140
DA:996,140
DA:999,0
DA:1000,0
DA:1003,597
DA:1004,597
DA:1003,252
DA:1004,252
DA:1007,0
DA:1008,0
DA:1031,23
DA:1032,23
DA:1031,169
DA:1032,169
DA:1204,53
DA:1206,53
DA:1207,53
DA:1208,53
DA:1209,53
DA:1210,53
DA:1204,22
DA:1206,22
DA:1207,22
DA:1208,22
DA:1209,22
DA:1210,22
DA:1252,53
DA:1254,53
DA:1255,53
DA:1256,53
DA:1252,64
DA:1254,64
DA:1255,64
DA:1256,64
DA:1269,37
DA:1270,37
DA:1269,55
DA:1270,55
DA:1883,70
DA:1887,71
DA:1889,1
DA:1890,1
DA:1891,1
DA:1892,1
DA:1894,70
DA:1883,60
DA:1887,62
DA:1889,2
DA:1890,2
DA:1891,2
DA:1892,2
DA:1894,60
DA:1900,65
DA:1904,102
DA:1905,37
DA:1906,37
DA:1908,0
DA:1909,65
DA:1900,114
DA:1904,124
DA:1905,10
DA:1906,2
DA:1908,8
DA:1909,114
DA:1932,2
DA:1936,2
DA:1937,0
DA:1938,0
DA:1940,0
DA:1941,2
DA:1966,57
DA:1969,57
DA:1970,57
DA:1971,61
DA:1973,6
DA:1974,4
DA:1975,2
DA:1976,0
DA:1979,2
DA:1980,2
DA:1981,2
DA:1982,2
DA:1983,2
DA:1984,2
DA:1985,4
DA:1988,55
DA:1989,110
DA:2061,23
DA:2065,23
DA:2066,23
DA:2067,23
DA:2068,23
DA:2070,0
DA:2071,0
DA:2072,0
DA:2074,23
DA:2075,23
DA:2077,23
DA:2078,23
DA:2080,0
DA:2082,0
DA:2083,0
DA:2084,0
DA:2061,51
DA:2065,51
DA:2066,51
DA:2067,51
DA:2068,51
DA:2070,0
DA:2071,0
DA:2072,0
DA:2074,51
DA:2075,51
DA:2077,51
DA:2078,51
DA:2080,0
DA:2082,0
DA:2083,0
DA:2084,0
DA:2163,23
DA:2167,23
DA:2171,23
DA:2173,23
DA:2174,23
DA:2175,0
DA:2177,23
DA:2179,0
DA:2182,0
DA:2183,0
DA:2184,0
DA:2185,0
DA:2187,0
DA:2188,0
DA:2190,0
DA:2193,0
DA:2195,0
DA:2198,0
DA:2199,0
DA:2200,0
DA:2201,0
DA:2203,0
DA:2204,0
DA:2206,0
DA:2209,0
DA:2213,0
DA:2163,55
DA:2167,55
DA:2171,55
DA:2173,55
DA:2174,55
DA:2175,4
DA:2177,51
DA:2179,0
DA:2182,0
DA:2183,0
DA:2184,0
DA:2185,0
DA:2187,0
DA:2188,0
DA:2190,0
DA:2193,0
DA:2195,0
DA:2198,0
DA:2199,0
DA:2200,0
DA:2201,0
DA:2203,0
DA:2204,0
DA:2206,0
DA:2209,0
DA:2213,0
DA:2330,23
DA:2333,23
DA:2334,46
DA:2337,23
DA:2338,23
DA:2339,23
DA:2340,23
DA:2330,55
DA:2333,55
DA:2334,110
DA:2337,55
DA:2338,55
DA:2339,55
DA:2340,55
DA:2428,23
DA:2431,23
DA:2435,23
DA:2437,23
DA:2438,23
DA:2440,0
DA:2441,0
DA:2443,0
DA:2445,0
DA:2446,0
DA:2428,55
DA:2431,55
DA:2435,55
DA:2437,55
DA:2438,55
DA:2440,0
DA:2441,0
DA:2443,0
DA:2445,0
DA:2446,0
DA:2480,53
DA:2485,53
DA:2486,53
DA:2487,53
DA:2488,53
DA:2489,53
DA:2480,22
DA:2485,22
DA:2486,22
DA:2487,22
DA:2488,22
DA:2489,22
DA:2494,57
DA:2497,57
DA:2498,53
DA:2500,4
DA:2501,0
DA:2502,57
DA:2507,57
DA:2510,57
DA:2511,57
DA:2512,57
DA:2513,57
DA:2520,28
DA:2523,28
DA:2524,56
DA:2525,23
DA:2526,79
DA:2520,57
DA:2523,57
DA:2524,114
DA:2525,2
DA:2526,116
end_of_record
SF:/usr/include/c++/11/bits/char_traits.h
FN:372,_ZNSt11char_traitsIcE7compareEPKcS2_m
FNDA:0,_ZNSt11char_traitsIcE7compareEPKcS2_m
FN:429,_ZNSt11char_traitsIcE4copyEPcPKcm
FNDA:0,_ZNSt11char_traitsIcE4copyEPcPKcm
DA:372,0
DA:374,0
DA:375,0
DA:389,0
DA:429,0
DA:431,0
DA:432,0
DA:437,0
end_of_record
SF:/usr/include/c++/11/bits/cpp_type_traits.h
FN:560,_ZSt12__miter_baseIN9__gnu_cxx17__normal_iteratorIPN5Nexus3rpc17ServiceDescriptorESt6vectorIS4_SaIS4_EEEEET_SA_
FNDA:0,_ZSt12__miter_baseIN9__gnu_cxx17__normal_iteratorIPN5Nexus3rpc17ServiceDescriptorESt6vectorIS4_SaIS4_EEEEET_SA_
FN:560,_ZSt12__miter_baseIPN5Nexus3rpc17ServiceDescriptorEET_S4_
FNDA:0,_ZSt12__miter_baseIPN5Nexus3rpc17ServiceDescriptorEET_S4_
FN:560,_ZSt12__miter_baseIN9__gnu_cxx17__normal_iteratorIPKN5Nexus3rpc17ServiceDescriptorESt6vectorIS4_SaIS4_EEEEET_SB_
FNDA:0,_ZSt12__miter_baseIN9__gnu_cxx17__normal_iteratorIPKN5Nexus3rpc17ServiceDescriptorESt6vectorIS4_SaIS4_EEEEET_SB_
DA:560,0
DA:561,0
DA:560,0
DA:561,0
DA:560,0
DA:561,0
end_of_record
SF:/usr/include/x86_64-linux-gnu/c++/11/bits/gthr-default.h
FN:300,_ZL18__gthread_active_pv
FNDA:0,_ZL18__gthread_active_pv
FN:746,_ZL20__gthread_mutex_lockP15pthread_mutex_t
FNDA:0,_ZL20__gthread_mutex_lockP15pthread_mutex_t
FN:776,_ZL22__gthread_mutex_unlockP15pthread_mutex_t
FNDA:0,_ZL22__gthread_mutex_unlockP15pthread_mutex_t
DA:300,0
DA:302,0
DA:746,0
DA:748,0
DA:749,0
DA:751,0
DA:776,0
DA:778,0
DA:779,0
DA:781,0
end_of_record
SF:/home/fz296w/workspace/Nexus/Nexus/src/registry/GlobalRegistry.cpp
FN:11,_ZN5Nexus3rpc14GlobalRegistry8instanceEv
FNDA:438,_ZN5Nexus3rpc14GlobalRegistry8instanceEv
FN:16,_ZN5Nexus3rpc14GlobalRegistry12registerNodeERKNSt7__cxx1112basic_stringIcSt11char_traitsIcESaIcEEESt8weak_ptrINS0_8NodeImplEE
FNDA:55,_ZN5Nexus3rpc14GlobalRegistry12registerNodeERKNSt7__cxx1112basic_stringIcSt11char_traitsIcESaIcEEESt8weak_ptrINS0_8NodeImplEE
FN:21,_ZN5Nexus3rpc14GlobalRegistry14unregisterNodeERKNSt7__cxx1112basic_stringIcSt11char_traitsIcESaIcEEE
FNDA:57,_ZN5Nexus3rpc14GlobalRegistry14unregisterNodeERKNSt7__cxx1112basic_stringIcSt11char_traitsIcESaIcEEE
FN:38,_ZZN5Nexus3rpc14GlobalRegistry14unregisterNodeERKNSt7__cxx1112basic_stringIcSt11char_traitsIcESaIcEEEENKUlRKNS0_17ServiceDescriptorEE_clESC_
FNDA:16,_ZZN5Nexus3rpc14GlobalRegistry14unregisterNodeERKNSt7__cxx1112basic_stringIcSt11char_traitsIcESaIcEEEENKUlRKNS0_17ServiceDescriptorEE_clESC_
FN:51,_ZN5Nexus3rpc14GlobalRegistry11getAllNodesEv
FNDA:150,_ZN5Nexus3rpc14GlobalRegistry11getAllNodesEv
FN:68,_ZN5Nexus3rpc14GlobalRegistry8findNodeERKNSt7__cxx1112basic_stringIcSt11char_traitsIcESaIcEEE
FNDA:57,_ZN5Nexus3rpc14GlobalRegistry8findNodeERKNSt7__cxx1112basic_stringIcSt11char_traitsIcESaIcEEE
FN:77,_ZN5Nexus3rpc14GlobalRegistry15registerServiceERKNSt7__cxx1112basic_stringIcSt11char_traitsIcESaIcEEERKNS0_17ServiceDescriptorE
FNDA:37,_ZN5Nexus3rpc14GlobalRegistry15registerServiceERKNSt7__cxx1112basic_stringIcSt11char_traitsIcESaIcEEERKNS0_17ServiceDescriptorE
FN:121,_ZN5Nexus3rpc14GlobalRegistry17unregisterServiceERKNSt7__cxx1112basic_stringIcSt11char_traitsIcESaIcEEERKNS0_17ServiceDescriptorE
FNDA:11,_ZN5Nexus3rpc14GlobalRegistry17unregisterServiceERKNSt7__cxx1112basic_stringIcSt11char_traitsIcESaIcEEERKNS0_17ServiceDescriptorE
FN:128,_ZZN5Nexus3rpc14GlobalRegistry17unregisterServiceERKNSt7__cxx1112basic_stringIcSt11char_traitsIcESaIcEEERKNS0_17ServiceDescriptorEENKUlSC_E_clESC_
FNDA:13,_ZZN5Nexus3rpc14GlobalRegistry17unregisterServiceERKNSt7__cxx1112basic_stringIcSt11char_traitsIcESaIcEEERKNS0_17ServiceDescriptorEENKUlSC_E_clESC_
FN:139,_ZN5Nexus3rpc14GlobalRegistry12findServicesERKNSt7__cxx1112basic_stringIcSt11char_traitsIcESaIcEEE
FNDA:77,_ZN5Nexus3rpc14GlobalRegistry12findServicesERKNSt7__cxx1112basic_stringIcSt11char_traitsIcESaIcEEE
FN:160,_ZN5Nexus3rpc14GlobalRegistry13clearServicesEv
FNDA:64,_ZN5Nexus3rpc14GlobalRegistry13clearServicesEv
FN:165,_ZNK5Nexus3rpc14GlobalRegistry12getNodeCountEv
FNDA:0,_ZNK5Nexus3rpc14GlobalRegistry12getNodeCountEv
FN:170,_ZNK5Nexus3rpc14GlobalRegistry15getServiceCountEv
FNDA:0,_ZNK5Nexus3rpc14GlobalRegistry15getServiceCountEv
DA:11,438
DA:12,438
DA:13,438
DA:16,55
DA:17,55
DA:18,55
DA:19,55
DA:21,57
DA:24,57
DA:25,57
DA:26,57
DA:31,57
DA:32,71
DA:33,14
DA:36,28
DA:37,14
DA:38,16
DA:39,14
DA:42,14
DA:43,13
DA:45,1
DA:48,57
DA:49,57
DA:51,150
DA:52,150
DA:53,150
DA:55,320
DA:56,170
DA:57,117
DA:58,117
DA:61,53
DA:62,170
DA:65,300
DA:66,150
DA:68,57
DA:69,57
DA:70,57
DA:71,57
DA:72,2
DA:74,55
DA:75,57
DA:77,37
DA:78,37
DA:79,37
DA:86,37
DA:88,42
DA:89,15
DA:92,15
DA:95,10
DA:97,10
DA:101,6
DA:103,6
DA:106,0
DA:108,0
DA:109,0
DA:113,0
DA:118,27
DA:119,47
DA:121,11
DA:122,11
DA:124,11
DA:125,11
DA:126,11
DA:127,11
DA:128,26
DA:129,13
DA:131,11
DA:133,11
DA:134,9
DA:137,11
DA:139,77
DA:140,77
DA:141,77
DA:143,77
DA:145,83
DA:146,23
DA:147,23
DA:151,17
DA:152,17
DA:153,12
DA:157,154
DA:158,77
DA:160,64
DA:161,64
DA:162,64
DA:163,64
DA:165,0
DA:166,0
DA:167,0
DA:168,0
DA:170,0
DA:171,0
DA:172,0
DA:173,0
DA:174,0
DA:176,0
DA:177,0
end_of_record
SF:/usr/include/c++/11/bits/stl_map.h
FN:185,_ZNSt3mapINSt7__cxx1112basic_stringIcSt11char_traitsIcESaIcEEESt8weak_ptrIN5Nexus3rpc8NodeImplEESt4lessIS5_ESaISt4pairIKS5_SA_EEEC2Ev
FNDA:5,_ZNSt3mapINSt7__cxx1112basic_stringIcSt11char_traitsIcESaIcEEESt8weak_ptrIN5Nexus3rpc8NodeImplEESt4lessIS5_ESaISt4pairIKS5_SA_EEEC2Ev
FN:185,_ZNSt3mapINSt7__cxx1112basic_stringIcSt11char_traitsIcESaIcEEESt6vectorIN5Nexus3rpc17ServiceDescriptorESaIS9_EESt4lessIS5_ESaISt4pairIKS5_SB_EEEC2Ev
FNDA:5,_ZNSt3mapINSt7__cxx1112basic_stringIcSt11char_traitsIcESaIcEEESt6vectorIN5Nexus3rpc17ServiceDescriptorESaIS9_EESt4lessIS5_ESaISt4pairIKS5_SB_EEEC2Ev
FN:302,_ZNSt3mapINSt7__cxx1112basic_stringIcSt11char_traitsIcESaIcEEESt8weak_ptrIN5Nexus3rpc8NodeImplEESt4lessIS5_ESaISt4pairIKS5_SA_EEED2Ev
FNDA:5,_ZNSt3mapINSt7__cxx1112basic_stringIcSt11char_traitsIcESaIcEEESt8weak_ptrIN5Nexus3rpc8NodeImplEESt4lessIS5_ESaISt4pairIKS5_SA_EEED2Ev
FN:302,_ZNSt3mapINSt7__cxx1112basic_stringIcSt11char_traitsIcESaIcEEESt6vectorIN5Nexus3rpc17ServiceDescriptorESaIS9_EESt4lessIS5_ESaISt4pairIKS5_SB_EEED2Ev
FNDA:5,_ZNSt3mapINSt7__cxx1112basic_stringIcSt11char_traitsIcESaIcEEESt6vectorIN5Nexus3rpc17ServiceDescriptorESaIS9_EESt4lessIS5_ESaISt4pairIKS5_SB_EEED2Ev
FN:356,_ZNSt3mapINSt7__cxx1112basic_stringIcSt11char_traitsIcESaIcEEESt6vectorIN5Nexus3rpc17ServiceDescriptorESaIS9_EESt4lessIS5_ESaISt4pairIKS5_SB_EEE5beginEv
FNDA:117,_ZNSt3mapINSt7__cxx1112basic_stringIcSt11char_traitsIcESaIcEEESt6vectorIN5Nexus3rpc17ServiceDescriptorESaIS9_EESt4lessIS5_ESaISt4pairIKS5_SB_EEE5beginEv
FN:356,_ZNSt3mapINSt7__cxx1112basic_stringIcSt11char_traitsIcESaIcEEESt8weak_ptrIN5Nexus3rpc8NodeImplEESt4lessIS5_ESaISt4pairIKS5_SA_EEE5beginEv
FNDA:150,_ZNSt3mapINSt7__cxx1112basic_stringIcSt11char_traitsIcESaIcEEESt8weak_ptrIN5Nexus3rpc8NodeImplEESt4lessIS5_ESaISt4pairIKS5_SA_EEE5beginEv
FN:365,_ZNKSt3mapINSt7__cxx1112basic_stringIcSt11char_traitsIcESaIcEEESt6vectorIN5Nexus3rpc17ServiceDescriptorESaIS9_EESt4lessIS5_ESaISt4pairIKS5_SB_EEE5beginEv
FNDA:0,_ZNKSt3mapINSt7__cxx1112basic_stringIcSt11char_traitsIcESaIcEEESt6vectorIN5Nexus3rpc17ServiceDescriptorESaIS9_EESt4lessIS5_ESaISt4pairIKS5_SB_EEE5beginEv
FN:374,_ZNSt3mapINSt7__cxx1112basic_stringIcSt11char_traitsIcESaIcEEESt6vectorIN5Nexus3rpc17ServiceDescriptorESaIS9_EESt4lessIS5_ESaISt4pairIKS5_SB_EEE3endEv
FNDA:219,_ZNSt3mapINSt7__cxx1112basic_stringIcSt11char_traitsIcESaIcEEESt6vectorIN5Nexus3rpc17ServiceDescriptorESaIS9_EESt4lessIS5_ESaISt4pairIKS5_SB_EEE3endEv
FN:374,_ZNSt3mapINSt7__cxx1112basic_stringIcSt11char_traitsIcESaIcEEESt8weak_ptrIN5Nexus3rpc8NodeImplEESt4lessIS5_ESaISt4pairIKS5_SA_EEE3endEv
FNDA:432,_ZNSt3mapINSt7__cxx1112basic_stringIcSt11char_traitsIcESaIcEEESt8weak_ptrIN5Nexus3rpc8NodeImplEESt4lessIS5_ESaISt4pairIKS5_SA_EEE3endEv
FN:383,_ZNKSt3mapINSt7__cxx1112basic_stringIcSt11char_traitsIcESaIcEEESt6vectorIN5Nexus3rpc17ServiceDescriptorESaIS9_EESt4lessIS5_ESaISt4pairIKS5_SB_EEE3endEv
FNDA:0,_ZNKSt3mapINSt7__cxx1112basic_stringIcSt11char_traitsIcESaIcEEESt6vectorIN5Nexus3rpc17ServiceDescriptorESaIS9_EESt4lessIS5_ESaISt4pairIKS5_SB_EEE3endEv
FN:470,_ZNKSt3mapINSt7__cxx1112basic_stringIcSt11char_traitsIcESaIcEEESt8weak_ptrIN5Nexus3rpc8NodeImplEESt4lessIS5_ESaISt4pairIKS5_SA_EEE4sizeEv
FNDA:0,_ZNKSt3mapINSt7__cxx1112basic_stringIcSt11char_traitsIcESaIcEEESt8weak_ptrIN5Nexus3rpc8NodeImplEESt4lessIS5_ESaISt4pairIKS5_SA_EEE4sizeEv
FN:492,_ZNSt3mapINSt7__cxx1112basic_stringIcSt11char_traitsIcESaIcEEESt8weak_ptrIN5Nexus3rpc8NodeImplEESt4lessIS5_ESaISt4pairIKS5_SA_EEEixERSE_
FNDA:55,_ZNSt3mapINSt7__cxx1112basic_stringIcSt11char_traitsIcESaIcEEESt8weak_ptrIN5Nexus3rpc8NodeImplEESt4lessIS5_ESaISt4pairIKS5_SA_EEEixERSE_
FN:492,_ZNSt3mapINSt7__cxx1112basic_stringIcSt11char_traitsIcESaIcEEESt6vectorIN5Nexus3rpc17ServiceDescriptorESaIS9_EESt4lessIS5_ESaISt4pairIKS5_SB_EEEixERSF_
FNDA:37,_ZNSt3mapINSt7__cxx1112basic_stringIcSt11char_traitsIcESaIcEEESt6vectorIN5Nexus3rpc17ServiceDescriptorESaIS9_EESt4lessIS5_ESaISt4pairIKS5_SB_EEEixERSF_
FN:1037,_ZNSt3mapINSt7__cxx1112basic_stringIcSt11char_traitsIcESaIcEEESt8weak_ptrIN5Nexus3rpc8NodeImplEESt4lessIS5_ESaISt4pairIKS5_SA_EEE5eraseB5cxx11ESt17_Rb_tree_iteratorISF_E
FNDA:53,_ZNSt3mapINSt7__cxx1112basic_stringIcSt11char_traitsIcESaIcEEESt8weak_ptrIN5Nexus3rpc8NodeImplEESt4lessIS5_ESaISt4pairIKS5_SA_EEE5eraseB5cxx11ESt17_Rb_tree_iteratorISF_E
FN:1037,_ZNSt3mapINSt7__cxx1112basic_stringIcSt11char_traitsIcESaIcEEESt6vectorIN5Nexus3rpc17ServiceDescriptorESaIS9_EESt4lessIS5_ESaISt4pairIKS5_SB_EEE5eraseB5cxx11ESt17_Rb_tree_iteratorISG_E
FNDA:22,_ZNSt3mapINSt7__cxx1112basic_stringIcSt11char_traitsIcESaIcEEESt6vectorIN5Nexus3rpc17ServiceDescriptorESaIS9_EESt4lessIS5_ESaISt4pairIKS5_SB_EEE5eraseB5cxx11ESt17_Rb_tree_iteratorISG_E
FN:1068,_ZNSt3mapINSt7__cxx1112basic_stringIcSt11char_traitsIcESaIcEEESt8weak_ptrIN5Nexus3rpc8NodeImplEESt4lessIS5_ESaISt4pairIKS5_SA_EEE5eraseERSE_
FNDA:57,_ZNSt3mapINSt7__cxx1112basic_stringIcSt11char_traitsIcESaIcEEESt8weak_ptrIN5Nexus3rpc8NodeImplEESt4lessIS5_ESaISt4pairIKS5_SA_EEE5eraseERSE_
FN:1133,_ZNSt3mapINSt7__cxx1112basic_stringIcSt11char_traitsIcESaIcEEESt6vectorIN5Nexus3rpc17ServiceDescriptorESaIS9_EESt4lessIS5_ESaISt4pairIKS5_SB_EEE5clearEv
FNDA:64,_ZNSt3mapINSt7__cxx1112basic_stringIcSt11char_traitsIcESaIcEEESt6vectorIN5Nexus3rpc17ServiceDescriptorESaIS9_EESt4lessIS5_ESaISt4pairIKS5_SB_EEE5clearEv
FN:1142,_ZNKSt3mapINSt7__cxx1112basic_stringIcSt11char_traitsIcESaIcEEESt6vectorIN5Nexus3rpc17ServiceDescriptorESaIS9_EESt4lessIS5_ESaISt4pairIKS5_SB_EEE8key_compEv
FNDA:14,_ZNKSt3mapINSt7__cxx1112basic_stringIcSt11char_traitsIcESaIcEEESt6vectorIN5Nexus3rpc17ServiceDescriptorESaIS9_EESt4lessIS5_ESaISt4pairIKS5_SB_EEE8key_compEv
FN:1142,_ZNKSt3mapINSt7__cxx1112basic_stringIcSt11char_traitsIcESaIcEEESt8weak_ptrIN5Nexus3rpc8NodeImplEESt4lessIS5_ESaISt4pairIKS5_SA_EEE8key_compEv
FNDA:0,_ZNKSt3mapINSt7__cxx1112basic_stringIcSt11char_traitsIcESaIcEEESt8weak_ptrIN5Nexus3rpc8NodeImplEESt4lessIS5_ESaISt4pairIKS5_SA_EEE8key_compEv
FN:1169,_ZNSt3mapINSt7__cxx1112basic_stringIcSt11char_traitsIcESaIcEEESt8weak_ptrIN5Nexus3rpc8NodeImplEESt4lessIS5_ESaISt4pairIKS5_SA_EEE4findERSE_
FNDA:57,_ZNSt3mapINSt7__cxx1112basic_stringIcSt11char_traitsIcESaIcEEESt8weak_ptrIN5Nexus3rpc8NodeImplEESt4lessIS5_ESaISt4pairIKS5_SA_EEE4findERSE_
FN:1169,_ZNSt3mapINSt7__cxx1112basic_stringIcSt11char_traitsIcESaIcEEESt6vectorIN5Nexus3rpc17ServiceDescriptorESaIS9_EESt4lessIS5_ESaISt4pairIKS5_SB_EEE4findERSF_
FNDA:28,_ZNSt3mapINSt7__cxx1112basic_stringIcSt11char_traitsIcESaIcEEESt6vectorIN5Nexus3rpc17ServiceDescriptorESaIS9_EESt4lessIS5_ESaISt4pairIKS5_SB_EEE4findERSF_
FN:1258,_ZNSt3mapINSt7__cxx1112basic_stringIcSt11char_traitsIcESaIcEEESt8weak_ptrIN5Nexus3rpc8NodeImplEESt4lessIS5_ESaISt4pairIKS5_SA_EEE11lower_boundERSE_
FNDA:55,_ZNSt3mapINSt7__cxx1112basic_stringIcSt11char_traitsIcESaIcEEESt8weak_ptrIN5Nexus3rpc8NodeImplEESt4lessIS5_ESaISt4pairIKS5_SA_EEE11lower_boundERSE_
FN:1258,_ZNSt3mapINSt7__cxx1112basic_stringIcSt11char_traitsIcESaIcEEESt6vectorIN5Nexus3rpc17ServiceDescriptorESaIS9_EESt4lessIS5_ESaISt4pairIKS5_SB_EEE11lower_boundERSF_
FNDA:37,_ZNSt3mapINSt7__cxx1112basic_stringIcSt11char_traitsIcESaIcEEESt6vectorIN5Nexus3rpc17ServiceDescriptorESaIS9_EESt4lessIS5_ESaISt4pairIKS5_SB_EEE11lower_boundERSF_
DA:185,5
DA:185,5
DA:302,5
DA:302,5
DA:356,150
DA:357,150
DA:356,117
DA:357,117
DA:365,0
DA:366,0
DA:374,432
DA:375,432
DA:374,219
DA:375,219
DA:383,0
DA:384,0
DA:470,0
DA:471,0
DA:492,37
DA:497,37
DA:499,37
DA:501,23
DA:502,23
DA:503,23
DA:507,37
DA:492,55
DA:497,55
DA:499,55
DA:501,55
DA:502,55
DA:503,55
DA:507,55
DA:1037,53
DA:1038,53
DA:1037,22
DA:1038,22
DA:1068,57
DA:1069,57
DA:1133,64
DA:1134,64
DA:1142,14
DA:1143,14
DA:1142,0
DA:1143,0
DA:1169,28
DA:1170,28
DA:1169,57
DA:1170,57
DA:1258,37
DA:1259,37
DA:1258,55
DA:1259,55
end_of_record
SF:/usr/include/c++/11/bits/stl_iterator_base_funcs.h
FN:98,_ZSt10__distanceIPcENSt15iterator_traitsIT_E15difference_typeES2_S2_St26random_access_iterator_tag
FNDA:0,_ZSt10__distanceIPcENSt15iterator_traitsIT_E15difference_typeES2_S2_St26random_access_iterator_tag
FN:98,_ZSt10__distanceIN9__gnu_cxx17__normal_iteratorIPKN5Nexus3rpc17ServiceDescriptorESt6vectorIS4_SaIS4_EEEEENSt15iterator_traitsIT_E15difference_typeESC_SC_St26random_access_iterator_tag
FNDA:23,_ZSt10__distanceIN9__gnu_cxx17__normal_iteratorIPKN5Nexus3rpc17ServiceDescriptorESt6vectorIS4_SaIS4_EEEEENSt15iterator_traitsIT_E15difference_typeESC_SC_St26random_access_iterator_tag
FN:138,_ZSt8distanceIPcENSt15iterator_traitsIT_E15difference_typeES2_S2_
FNDA:0,_ZSt8distanceIPcENSt15iterator_traitsIT_E15difference_typeES2_S2_
FN:138,_ZSt8distanceIN9__gnu_cxx17__normal_iteratorIPKN5Nexus3rpc17ServiceDescriptorESt6vectorIS4_SaIS4_EEEEENSt15iterator_traitsIT_E15difference_typeESC_SC_
FNDA:23,_ZSt8distanceIN9__gnu_cxx17__normal_iteratorIPKN5Nexus3rpc17ServiceDescriptorESt6vectorIS4_SaIS4_EEEEENSt15iterator_traitsIT_E15difference_typeESC_SC_
FN:174,_ZSt9__advanceIN9__gnu_cxx17__normal_iteratorIPKN5Nexus3rpc17ServiceDescriptorESt6vectorIS4_SaIS4_EEEElEvRT_T0_St26random_access_iterator_tag
FNDA:0,_ZSt9__advanceIN9__gnu_cxx17__normal_iteratorIPKN5Nexus3rpc17ServiceDescriptorESt6vectorIS4_SaIS4_EEEElEvRT_T0_St26random_access_iterator_tag
FN:202,_ZSt7advanceIN9__gnu_cxx17__normal_iteratorIPKN5Nexus3rpc17ServiceDescriptorESt6vectorIS4_SaIS4_EEEEmEvRT_T0_
FNDA:0,_ZSt7advanceIN9__gnu_cxx17__normal_iteratorIPKN5Nexus3rpc17ServiceDescriptorESt6vectorIS4_SaIS4_EEEEmEvRT_T0_
DA:98,0
DA:104,0
DA:98,23
DA:104,23
DA:138,0
DA:141,0
DA:142,0
DA:138,23
DA:141,23
DA:142,46
DA:174,0
DA:185,0
DA:186,0
DA:202,0
DA:205,0
DA:206,0
DA:207,0
end_of_record
SF:/usr/include/c++/11/ext/alloc_traits.h
FN:97,_ZN9__gnu_cxx14__alloc_traitsISaIcEcE17_S_select_on_copyERKS1_
FNDA:0,_ZN9__gnu_cxx14__alloc_traitsISaIcEcE17_S_select_on_copyERKS1_
FN:103,_ZN9__gnu_cxx14__alloc_traitsISaIN5Nexus3rpc17ServiceDescriptorEES3_E27_S_propagate_on_copy_assignEv
FNDA:12,_ZN9__gnu_cxx14__alloc_traitsISaIN5Nexus3rpc17ServiceDescriptorEES3_E27_S_propagate_on_copy_assignEv
FN:112,_ZN9__gnu_cxx14__alloc_traitsISaIN5Nexus3rpc17ServiceDescriptorEES3_E15_S_always_equalEv
FNDA:0,_ZN9__gnu_cxx14__alloc_traitsISaIN5Nexus3rpc17ServiceDescriptorEES3_E15_S_always_equalEv
DA:97,0
DA:98,0
DA:103,12
DA:104,12
DA:112,0
DA:113,0
end_of_record
SF:/usr/include/c++/11/ext/aligned_buffer.h
FN:64,_ZN9__gnu_cxx16__aligned_membufISt4pairIKNSt7__cxx1112basic_stringIcSt11char_traitsIcESaIcEEESt8weak_ptrIN5Nexus3rpc8NodeImplEEEE7_M_addrEv
FNDA:337,_ZN9__gnu_cxx16__aligned_membufISt4pairIKNSt7__cxx1112basic_stringIcSt11char_traitsIcESaIcEEESt8weak_ptrIN5Nexus3rpc8NodeImplEEEE7_M_addrEv
FN:64,_ZN9__gnu_cxx16__aligned_membufISt4pairIKNSt7__cxx1112basic_stringIcSt11char_traitsIcESaIcEEESt6vectorIN5Nexus3rpc17ServiceDescriptorESaISC_EEEE7_M_addrEv
FNDA:157,_ZN9__gnu_cxx16__aligned_membufISt4pairIKNSt7__cxx1112basic_stringIcSt11char_traitsIcESaIcEEESt6vectorIN5Nexus3rpc17ServiceDescriptorESaISC_EEEE7_M_addrEv
FN:68,_ZNK9__gnu_cxx16__aligned_membufISt4pairIKNSt7__cxx1112basic_stringIcSt11char_traitsIcESaIcEEESt8weak_ptrIN5Nexus3rpc8NodeImplEEEE7_M_addrEv
FNDA:87,_ZNK9__gnu_cxx16__aligned_membufISt4pairIKNSt7__cxx1112basic_stringIcSt11char_traitsIcESaIcEEESt8weak_ptrIN5Nexus3rpc8NodeImplEEEE7_M_addrEv
FN:68,_ZNK9__gnu_cxx16__aligned_membufISt4pairIKNSt7__cxx1112basic_stringIcSt11char_traitsIcESaIcEEESt6vectorIN5Nexus3rpc17ServiceDescriptorESaISC_EEEE7_M_addrEv
FNDA:83,_ZNK9__gnu_cxx16__aligned_membufISt4pairIKNSt7__cxx1112basic_stringIcSt11char_traitsIcESaIcEEESt6vectorIN5Nexus3rpc17ServiceDescriptorESaISC_EEEE7_M_addrEv
FN:72,_ZN9__gnu_cxx16__aligned_membufISt4pairIKNSt7__cxx1112basic_stringIcSt11char_traitsIcESaIcEEESt8weak_ptrIN5Nexus3rpc8NodeImplEEEE6_M_ptrEv
FNDA:337,_ZN9__gnu_cxx16__aligned_membufISt4pairIKNSt7__cxx1112basic_stringIcSt11char_traitsIcESaIcEEESt8weak_ptrIN5Nexus3rpc8NodeImplEEEE6_M_ptrEv
FN:72,_ZN9__gnu_cxx16__aligned_membufISt4pairIKNSt7__cxx1112basic_stringIcSt11char_traitsIcESaIcEEESt6vectorIN5Nexus3rpc17ServiceDescriptorESaISC_EEEE6_M_ptrEv
FNDA:157,_ZN9__gnu_cxx16__aligned_membufISt4pairIKNSt7__cxx1112basic_stringIcSt11char_traitsIcESaIcEEESt6vectorIN5Nexus3rpc17ServiceDescriptorESaISC_EEEE6_M_ptrEv
FN:76,_ZNK9__gnu_cxx16__aligned_membufISt4pairIKNSt7__cxx1112basic_stringIcSt11char_traitsIcESaIcEEESt8weak_ptrIN5Nexus3rpc8NodeImplEEEE6_M_ptrEv
FNDA:87,_ZNK9__gnu_cxx16__aligned_membufISt4pairIKNSt7__cxx1112basic_stringIcSt11char_traitsIcESaIcEEESt8weak_ptrIN5Nexus3rpc8NodeImplEEEE6_M_ptrEv
FN:76,_ZNK9__gnu_cxx16__aligned_membufISt4pairIKNSt7__cxx1112basic_stringIcSt11char_traitsIcESaIcEEESt6vectorIN5Nexus3rpc17ServiceDescriptorESaISC_EEEE6_M_ptrEv
FNDA:83,_ZNK9__gnu_cxx16__aligned_membufISt4pairIKNSt7__cxx1112basic_stringIcSt11char_traitsIcESaIcEEESt6vectorIN5Nexus3rpc17ServiceDescriptorESaISC_EEEE6_M_ptrEv
DA:64,337
DA:65,337
DA:64,157
DA:65,157
DA:68,87
DA:69,87
DA:68,83
DA:69,83
DA:72,337
DA:73,337
DA:72,157
DA:73,157
DA:76,87
DA:77,87
DA:76,83
DA:77,83
end_of_record
SF:/usr/include/c++/11/bits/stl_iterator_base_types.h
FN:238,_ZSt19__iterator_categoryIPcENSt15iterator_traitsIT_E17iterator_categoryERKS2_
FNDA:0,_ZSt19__iterator_categoryIPcENSt15iterator_traitsIT_E17iterator_categoryERKS2_
FN:238,_ZSt19__iterator_categoryIN9__gnu_cxx17__normal_iteratorIPN5Nexus3rpc17ServiceDescriptorESt6vectorIS4_SaIS4_EEEEENSt15iterator_traitsIT_E17iterator_categoryERKSB_
FNDA:25,_ZSt19__iterator_categoryIN9__gnu_cxx17__normal_iteratorIPN5Nexus3rpc17ServiceDescriptorESt6vectorIS4_SaIS4_EEEEENSt15iterator_traitsIT_E17iterator_categoryERKSB_
FN:238,_ZSt19__iterator_categoryIN9__gnu_cxx17__normal_iteratorIPKN5Nexus3rpc17ServiceDescriptorESt6vectorIS4_SaIS4_EEEEENSt15iterator_traitsIT_E17iterator_categoryERKSC_
FNDA:46,_ZSt19__iterator_categoryIN9__gnu_cxx17__normal_iteratorIPKN5Nexus3rpc17ServiceDescriptorESt6vectorIS4_SaIS4_EEEEENSt15iterator_traitsIT_E17iterator_categoryERKSC_
DA:238,0
DA:239,0
DA:238,25
DA:239,25
DA:238,46
DA:239,46
end_of_record
SF:/usr/include/c++/11/bits/std_mutex.h
FN:65,_ZNSt12__mutex_baseC2Ev
FNDA:0,_ZNSt12__mutex_baseC2Ev
FN:91,_ZNSt5mutexC2Ev
FNDA:0,_ZNSt5mutexC2Ev
FN:98,_ZNSt5mutex4lockEv
FNDA:0,_ZNSt5mutex4lockEv
FN:115,_ZNSt5mutex6unlockEv
FNDA:0,_ZNSt5mutex6unlockEv
FN:228,_ZNSt10lock_guardISt5mutexEC2ERS0_
FNDA:0,_ZNSt10lock_guardISt5mutexEC2ERS0_
FN:234,_ZNSt10lock_guardISt5mutexED2Ev
FNDA:0,_ZNSt10lock_guardISt5mutexED2Ev
DA:65,0
DA:91,0
DA:98,0
DA:100,0
DA:103,0
DA:104,0
DA:105,0
DA:115,0
DA:118,0
DA:119,0
DA:228,0
DA:229,0
DA:234,0
DA:235,0
end_of_record
SF:/usr/include/c++/11/bits/stl_pair.h
FN:322,_ZNSt4pairIPSt18_Rb_tree_node_baseS1_EC2IRS1_Lb1EEEOT_RKS1_
FNDA:0,_ZNSt4pairIPSt18_Rb_tree_node_baseS1_EC2IRS1_Lb1EEEOT_RKS1_
FN:336,_ZNSt4pairIPSt18_Rb_tree_node_baseS1_EC2IRS1_Lb1EEERKS1_OT_
FNDA:0,_ZNSt4pairIPSt18_Rb_tree_node_baseS1_EC2IRS1_Lb1EEERKS1_OT_
FN:352,_ZNSt4pairIPSt18_Rb_tree_node_baseS1_EC2IRPSt13_Rb_tree_nodeIS_IKNSt7__cxx1112basic_stringIcSt11char_traitsIcESaIcEEESt6vectorIN5Nexus3rpc17ServiceDescriptorESaISF_EEEERS1_Lb1EEEOT_OT0_
FNDA:23,_ZNSt4pairIPSt18_Rb_tree_node_baseS1_EC2IRPSt13_Rb_tree_nodeIS_IKNSt7__cxx1112basic_stringIcSt11char_traitsIcESaIcEEESt6vectorIN5Nexus3rpc17ServiceDescriptorESaISF_EEEERS1_Lb1EEEOT_OT0_
FN:352,_ZNSt4pairIPSt18_Rb_tree_node_baseS1_EC2IRPSt13_Rb_tree_nodeIS_IKNSt7__cxx1112basic_stringIcSt11char_traitsIcESaIcEEESt8weak_ptrIN5Nexus3rpc8NodeImplEEEERS1_Lb1EEEOT_OT0_
FNDA:51,_ZNSt4pairIPSt18_Rb_tree_node_baseS1_EC2IRPSt13_Rb_tree_nodeIS_IKNSt7__cxx1112basic_stringIcSt11char_traitsIcESaIcEEESt8weak_ptrIN5Nexus3rpc8NodeImplEEEERS1_Lb1EEEOT_OT0_
FN:352,_ZNSt4pairISt17_Rb_tree_iteratorIS_IKNSt7__cxx1112basic_stringIcSt11char_traitsIcESaIcEEESt8weak_ptrIN5Nexus3rpc8NodeImplEEEESE_EC2ISE_SE_Lb1EEEOT_OT0_
FNDA:57,_ZNSt4pairISt17_Rb_tree_iteratorIS_IKNSt7__cxx1112basic_stringIcSt11char_traitsIcESaIcEEESt8weak_ptrIN5Nexus3rpc8NodeImplEEEESE_EC2ISE_SE_Lb1EEEOT_OT0_
FN:352,_ZNSt4pairIPSt18_Rb_tree_node_baseS1_EC2IRS1_S4_Lb1EEEOT_OT0_
FNDA:0,_ZNSt4pairIPSt18_Rb_tree_node_baseS1_EC2IRS1_S4_Lb1EEEOT_OT0_
DA:322,0
DA:323,0
DA:336,0
DA:337,0
DA:352,23
DA:353,23
DA:352,51
DA:353,51
DA:352,57
DA:353,57
DA:352,0
DA:353,0
end_of_record
SF:/usr/include/c++/11/bits/stl_algo.h
FN:813,_ZSt11__remove_ifIN9__gnu_cxx17__normal_iteratorIPN5Nexus3rpc17ServiceDescriptorESt6vectorIS4_SaIS4_EEEENS0_5__ops10_Iter_predIZNS3_14GlobalRegistry17unregisterServiceERKNSt7__cxx1112basic_stringIcSt11char_traitsIcESaIcEEERKS4_EUlSM_E_EEET_SP_SP_T0_
FNDA:11,_ZSt11__remove_ifIN9__gnu_cxx17__normal_iteratorIPN5Nexus3rpc17ServiceDescriptorESt6vectorIS4_SaIS4_EEEENS0_5__ops10_Iter_predIZNS3_14GlobalRegistry17unregisterServiceERKNSt7__cxx1112basic_stringIcSt11char_traitsIcESaIcEEERKS4_EUlSM_E_EEET_SP_SP_T0_
FN:813,_ZSt11__remove_ifIN9__gnu_cxx17__normal_iteratorIPN5Nexus3rpc17ServiceDescriptorESt6vectorIS4_SaIS4_EEEENS0_5__ops10_Iter_predIZNS3_14GlobalRegistry14unregisterNodeERKNSt7__cxx1112basic_stringIcSt11char_traitsIcESaIcEEEEUlRKS4_E_EEET_SP_SP_T0_
FNDA:14,_ZSt11__remove_ifIN9__gnu_cxx17__normal_iteratorIPN5Nexus3rpc17ServiceDescriptorESt6vectorIS4_SaIS4_EEEENS0_5__ops10_Iter_predIZNS3_14GlobalRegistry14unregisterNodeERKNSt7__cxx1112basic_stringIcSt11char_traitsIcESaIcEEEEUlRKS4_E_EEET_SP_SP_T0_
FN:884,_ZSt9remove_ifIN9__gnu_cxx17__normal_iteratorIPN5Nexus3rpc17ServiceDescriptorESt6vectorIS4_SaIS4_EEEEZNS3_14GlobalRegistry17unregisterServiceERKNSt7__cxx1112basic_stringIcSt11char_traitsIcESaIcEEERKS4_EUlSK_E_ET_SM_SM_T0_
FNDA:11,_ZSt9remove_ifIN9__gnu_cxx17__normal_iteratorIPN5Nexus3rpc17ServiceDescriptorESt6vectorIS4_SaIS4_EEEEZNS3_14GlobalRegistry17unregisterServiceERKNSt7__cxx1112basic_stringIcSt11char_traitsIcESaIcEEERKS4_EUlSK_E_ET_SM_SM_T0_
FN:884,_ZSt9remove_ifIN9__gnu_cxx17__normal_iteratorIPN5Nexus3rpc17ServiceDescriptorESt6vectorIS4_SaIS4_EEEEZNS3_14GlobalRegistry14unregisterNodeERKNSt7__cxx1112basic_stringIcSt11char_traitsIcESaIcEEEEUlRKS4_E_ET_SM_SM_T0_
FNDA:14,_ZSt9remove_ifIN9__gnu_cxx17__normal_iteratorIPN5Nexus3rpc17ServiceDescriptorESt6vectorIS4_SaIS4_EEEEZNS3_14GlobalRegistry14unregisterNodeERKNSt7__cxx1112basic_stringIcSt11char_traitsIcESaIcEEEEUlRKS4_E_ET_SM_SM_T0_
DA:813,11
DA:816,11
DA:817,11
DA:818,0
DA:819,11
DA:820,11
DA:821,13
DA:822,2
DA:824,2
DA:825,2
DA:827,11
DA:813,14
DA:816,14
DA:817,14
DA:818,1
DA:819,13
DA:820,13
DA:821,15
DA:822,2
DA:824,0
DA:825,0
DA:827,13
DA:884,11
DA:894,11
DA:895,11
DA:884,14
DA:894,14
DA:895,14
end_of_record
SF:/usr/include/c++/11/bits/stl_vector.h
FN:97,_ZNSt12_Vector_baseISt10shared_ptrIN5Nexus3rpc8NodeImplEESaIS4_EE17_Vector_impl_dataC2Ev
FNDA:150,_ZNSt12_Vector_baseISt10shared_ptrIN5Nexus3rpc8NodeImplEESaIS4_EE17_Vector_impl_dataC2Ev
FN:97,_ZNSt12_Vector_baseIN5Nexus3rpc17ServiceDescriptorESaIS2_EE17_Vector_impl_dataC2Ev
FNDA:0,_ZNSt12_Vector_baseIN5Nexus3rpc17ServiceDescriptorESaIS2_EE17_Vector_impl_dataC2Ev
FN:131,_ZNSt12_Vector_baseISt10shared_ptrIN5Nexus3rpc8NodeImplEESaIS4_EE12_Vector_implC2Ev
FNDA:150,_ZNSt12_Vector_baseISt10shared_ptrIN5Nexus3rpc8NodeImplEESaIS4_EE12_Vector_implC2Ev
FN:131,_ZNSt12_Vector_baseIN5Nexus3rpc17ServiceDescriptorESaIS2_EE12_Vector_implC2Ev
FNDA:0,_ZNSt12_Vector_baseIN5Nexus3rpc17ServiceDescriptorESaIS2_EE12_Vector_implC2Ev
FN:276,_ZNSt12_Vector_baseISt10shared_ptrIN5Nexus3rpc8NodeImplEESaIS4_EE19_M_get_Tp_allocatorEv
FNDA:0,_ZNSt12_Vector_baseISt10shared_ptrIN5Nexus3rpc8NodeImplEESaIS4_EE19_M_get_Tp_allocatorEv
FN:276,_ZNSt12_Vector_baseIN5Nexus3rpc17ServiceDescriptorESaIS2_EE19_M_get_Tp_allocatorEv
FNDA:0,_ZNSt12_Vector_baseIN5Nexus3rpc17ServiceDescriptorESaIS2_EE19_M_get_Tp_allocatorEv
FN:280,_ZNKSt12_Vector_baseISt10shared_ptrIN5Nexus3rpc8NodeImplEESaIS4_EE19_M_get_Tp_allocatorEv
FNDA:234,_ZNKSt12_Vector_baseISt10shared_ptrIN5Nexus3rpc8NodeImplEESaIS4_EE19_M_get_Tp_allocatorEv
FN:280,_ZNKSt12_Vector_baseIN5Nexus3rpc17ServiceDescriptorESaIS2_EE19_M_get_Tp_allocatorEv
FNDA:0,_ZNKSt12_Vector_baseIN5Nexus3rpc17ServiceDescriptorESaIS2_EE19_M_get_Tp_allocatorEv
FN:288,_ZNSt12_Vector_baseISt10shared_ptrIN5Nexus3rpc8NodeImplEESaIS4_EEC2Ev
FNDA:150,_ZNSt12_Vector_baseISt10shared_ptrIN5Nexus3rpc8NodeImplEESaIS4_EEC2Ev
FN:288,_ZNSt12_Vector_baseIN5Nexus3rpc17ServiceDescriptorESaIS2_EEC2Ev
FNDA:0,_ZNSt12_Vector_baseIN5Nexus3rpc17ServiceDescriptorESaIS2_EEC2Ev
FN:333,_ZNSt12_Vector_baseISt10shared_ptrIN5Nexus3rpc8NodeImplEESaIS4_EED2Ev
FNDA:0,_ZNSt12_Vector_baseISt10shared_ptrIN5Nexus3rpc8NodeImplEESaIS4_EED2Ev
FN:333,_ZNSt12_Vector_baseIN5Nexus3rpc17ServiceDescriptorESaIS2_EED2Ev
FNDA:0,_ZNSt12_Vector_baseIN5Nexus3rpc17ServiceDescriptorESaIS2_EED2Ev
FN:343,_ZNSt12_Vector_baseISt10shared_ptrIN5Nexus3rpc8NodeImplEESaIS4_EE11_M_allocateEm
FNDA:117,_ZNSt12_Vector_baseISt10shared_ptrIN5Nexus3rpc8NodeImplEESaIS4_EE11_M_allocateEm
FN:343,_ZNSt12_Vector_baseIN5Nexus3rpc17ServiceDescriptorESaIS2_EE11_M_allocateEm
FNDA:0,_ZNSt12_Vector_baseIN5Nexus3rpc17ServiceDescriptorESaIS2_EE11_M_allocateEm
FN:350,_ZNSt12_Vector_baseISt10shared_ptrIN5Nexus3rpc8NodeImplEESaIS4_EE13_M_deallocateEPS4_m
FNDA:0,_ZNSt12_Vector_baseISt10shared_ptrIN5Nexus3rpc8NodeImplEESaIS4_EE13_M_deallocateEPS4_m
FN:350,_ZNSt12_Vector_baseIN5Nexus3rpc17ServiceDescriptorESaIS2_EE13_M_deallocateEPS2_m
FNDA:0,_ZNSt12_Vector_baseIN5Nexus3rpc17ServiceDescriptorESaIS2_EE13_M_deallocateEPS2_m
FN:431,_ZNSt6vectorISt10shared_ptrIN5Nexus3rpc8NodeImplEESaIS4_EE19_S_nothrow_relocateESt17integral_constantIbLb1EE
FNDA:234,_ZNSt6vectorISt10shared_ptrIN5Nexus3rpc8NodeImplEESaIS4_EE19_S_nothrow_relocateESt17integral_constantIbLb1EE
FN:431,_ZNSt6vectorIN5Nexus3rpc17ServiceDescriptorESaIS2_EE19_S_nothrow_relocateESt17integral_constantIbLb1EE
FNDA:0,_ZNSt6vectorIN5Nexus3rpc17ServiceDescriptorESaIS2_EE19_S_nothrow_relocateESt17integral_constantIbLb1EE
FN:444,_ZNSt6vectorISt10shared_ptrIN5Nexus3rpc8NodeImplEESaIS4_EE15_S_use_relocateEv
FNDA:234,_ZNSt6vectorISt10shared_ptrIN5Nexus3rpc8NodeImplEESaIS4_EE15_S_use_relocateEv
FN:444,_ZNSt6vectorIN5Nexus3rpc17ServiceDescriptorESaIS2_EE15_S_use_relocateEv
FNDA:0,_ZNSt6vectorIN5Nexus3rpc17ServiceDescriptorESaIS2_EE15_S_use_relocateEv
FN:453,_ZNSt6vectorIN5Nexus3rpc17ServiceDescriptorESaIS2_EE14_S_do_relocateEPS2_S5_S5_RS3_St17integral_constantIbLb1EE
FNDA:0,_ZNSt6vectorIN5Nexus3rpc17ServiceDescriptorESaIS2_EE14_S_do_relocateEPS2_S5_S5_RS3_St17integral_constantIbLb1EE
FN:453,_ZNSt6vectorISt10shared_ptrIN5Nexus3rpc8NodeImplEESaIS4_EE14_S_do_relocateEPS4_S7_S7_RS5_St17integral_constantIbLb1EE
FNDA:234,_ZNSt6vectorISt10shared_ptrIN5Nexus3rpc8NodeImplEESaIS4_EE14_S_do_relocateEPS4_S7_S7_RS5_St17integral_constantIbLb1EE
FN:465,_ZNSt6vectorISt10shared_ptrIN5Nexus3rpc8NodeImplEESaIS4_EE11_S_relocateEPS4_S7_S7_RS5_
FNDA:234,_ZNSt6vectorISt10shared_ptrIN5Nexus3rpc8NodeImplEESaIS4_EE11_S_relocateEPS4_S7_S7_RS5_
FN:465,_ZNSt6vectorIN5Nexus3rpc17ServiceDescriptorESaIS2_EE11_S_relocateEPS2_S5_S5_RS3_
FNDA:0,_ZNSt6vectorIN5Nexus3rpc17ServiceDescriptorESaIS2_EE11_S_relocateEPS2_S5_S5_RS3_
FN:487,_ZNSt6vectorIN5Nexus3rpc17ServiceDescriptorESaIS2_EEC2Ev
FNDA:0,_ZNSt6vectorIN5Nexus3rpc17ServiceDescriptorESaIS2_EEC2Ev
FN:487,_ZNSt6vectorISt10shared_ptrIN5Nexus3rpc8NodeImplEESaIS4_EEC2Ev
FNDA:150,_ZNSt6vectorISt10shared_ptrIN5Nexus3rpc8NodeImplEESaIS4_EEC2Ev
FN:678,_ZNSt6vectorISt10shared_ptrIN5Nexus3rpc8NodeImplEESaIS4_EED2Ev
FNDA:0,_ZNSt6vectorISt10shared_ptrIN5Nexus3rpc8NodeImplEESaIS4_EED2Ev
FN:678,_ZNSt6vectorIN5Nexus3rpc17ServiceDescriptorESaIS2_EED2Ev
FNDA:0,_ZNSt6vectorIN5Nexus3rpc17ServiceDescriptorESaIS2_EED2Ev
FN:811,_ZNSt6vectorIN5Nexus3rpc17ServiceDescriptorESaIS2_EE5beginEv
FNDA:0,_ZNSt6vectorIN5Nexus3rpc17ServiceDescriptorESaIS2_EE5beginEv
FN:811,_ZNSt6vectorISt10shared_ptrIN5Nexus3rpc8NodeImplEESaIS4_EE5beginEv
FNDA:0,_ZNSt6vectorISt10shared_ptrIN5Nexus3rpc8NodeImplEESaIS4_EE5beginEv
FN:820,_ZNKSt6vectorIN5Nexus3rpc17ServiceDescriptorESaIS2_EE5beginEv
FNDA:0,_ZNKSt6vectorIN5Nexus3rpc17ServiceDescriptorESaIS2_EE5beginEv
FN:829,_ZNSt6vectorIN5Nexus3rpc17ServiceDescriptorESaIS2_EE3endEv
FNDA:0,_ZNSt6vectorIN5Nexus3rpc17ServiceDescriptorESaIS2_EE3endEv
FN:829,_ZNSt6vectorISt10shared_ptrIN5Nexus3rpc8NodeImplEESaIS4_EE3endEv
FNDA:0,_ZNSt6vectorISt10shared_ptrIN5Nexus3rpc8NodeImplEESaIS4_EE3endEv
FN:838,_ZNKSt6vectorIN5Nexus3rpc17ServiceDescriptorESaIS2_EE3endEv
FNDA:0,_ZNKSt6vectorIN5Nexus3rpc17ServiceDescriptorESaIS2_EE3endEv
FN:884,_ZNKSt6vectorIN5Nexus3rpc17ServiceDescriptorESaIS2_EE6cbeginEv
FNDA:48,_ZNKSt6vectorIN5Nexus3rpc17ServiceDescriptorESaIS2_EE6cbeginEv
FN:918,_ZNKSt6vectorISt10shared_ptrIN5Nexus3rpc8NodeImplEESaIS4_EE4sizeEv
FNDA:468,_ZNKSt6vectorISt10shared_ptrIN5Nexus3rpc8NodeImplEESaIS4_EE4sizeEv
FN:918,_ZNKSt6vectorIN5Nexus3rpc17ServiceDescriptorESaIS2_EE4sizeEv
FNDA:0,_ZNKSt6vectorIN5Nexus3rpc17ServiceDescriptorESaIS2_EE4sizeEv
FN:923,_ZNKSt6vectorIN5Nexus3rpc17ServiceDescriptorESaIS2_EE8max_sizeEv
FNDA:0,_ZNKSt6vectorIN5Nexus3rpc17ServiceDescriptorESaIS2_EE8max_sizeEv
FN:923,_ZNKSt6vectorISt10shared_ptrIN5Nexus3rpc8NodeImplEESaIS4_EE8max_sizeEv
FNDA:234,_ZNKSt6vectorISt10shared_ptrIN5Nexus3rpc8NodeImplEESaIS4_EE8max_sizeEv
FN:998,_ZNKSt6vectorIN5Nexus3rpc17ServiceDescriptorESaIS2_EE8capacityEv
FNDA:12,_ZNKSt6vectorIN5Nexus3rpc17ServiceDescriptorESaIS2_EE8capacityEv
FN:1007,_ZNKSt6vectorIN5Nexus3rpc17ServiceDescriptorESaIS2_EE5emptyEv
FNDA:0,_ZNKSt6vectorIN5Nexus3rpc17ServiceDescriptorESaIS2_EE5emptyEv
FN:1187,_ZNSt6vectorIN5Nexus3rpc17ServiceDescriptorESaIS2_EE9push_backERKS2_
FNDA:0,_ZNSt6vectorIN5Nexus3rpc17ServiceDescriptorESaIS2_EE9push_backERKS2_
FN:1187,_ZNSt6vectorISt10shared_ptrIN5Nexus3rpc8NodeImplEESaIS4_EE9push_backERKS4_
FNDA:117,_ZNSt6vectorISt10shared_ptrIN5Nexus3rpc8NodeImplEESaIS4_EE9push_backERKS4_
FN:1379,_ZNSt6vectorIN5Nexus3rpc17ServiceDescriptorESaIS2_EE6insertIN9__gnu_cxx17__normal_iteratorIPKS2_S4_EEvEENS7_IPS2_S4_EESA_T_SD_
FNDA:23,_ZNSt6vectorIN5Nexus3rpc17ServiceDescriptorESaIS2_EE6insertIN9__gnu_cxx17__normal_iteratorIPKS2_S4_EEvEENS7_IPS2_S4_EESA_T_SD_
FN:1457,_ZNSt6vectorIN5Nexus3rpc17ServiceDescriptorESaIS2_EE5eraseEN9__gnu_cxx17__normal_iteratorIPKS2_S4_EES9_
FNDA:25,_ZNSt6vectorIN5Nexus3rpc17ServiceDescriptorESaIS2_EE5eraseEN9__gnu_cxx17__normal_iteratorIPKS2_S4_EES9_
FN:1498,_ZNSt6vectorIN5Nexus3rpc17ServiceDescriptorESaIS2_EE5clearEv
FNDA:0,_ZNSt6vectorIN5Nexus3rpc17ServiceDescriptorESaIS2_EE5clearEv
FN:1508,_ZNSt6vectorIN5Nexus3rpc17ServiceDescriptorESaIS2_EE20_M_allocate_and_copyIN9__gnu_cxx17__normal_iteratorIPKS2_S4_EEEEPS2_mT_SC_
FNDA:12,_ZNSt6vectorIN5Nexus3rpc17ServiceDescriptorESaIS2_EE20_M_allocate_and_copyIN9__gnu_cxx17__normal_iteratorIPKS2_S4_EEEEPS2_mT_SC_
FN:1662,_ZNSt6vectorIN5Nexus3rpc17ServiceDescriptorESaIS2_EE18_M_insert_dispatchIN9__gnu_cxx17__normal_iteratorIPKS2_S4_EEEEvNS7_IPS2_S4_EET_SD_St12__false_type
FNDA:23,_ZNSt6vectorIN5Nexus3rpc17ServiceDescriptorESaIS2_EE18_M_insert_dispatchIN9__gnu_cxx17__normal_iteratorIPKS2_S4_EEEEvNS7_IPS2_S4_EET_SD_St12__false_type
FN:1756,_ZNKSt6vectorISt10shared_ptrIN5Nexus3rpc8NodeImplEESaIS4_EE12_M_check_lenEmPKc
FNDA:117,_ZNKSt6vectorISt10shared_ptrIN5Nexus3rpc8NodeImplEESaIS4_EE12_M_check_lenEmPKc
FN:1756,_ZNKSt6vectorIN5Nexus3rpc17ServiceDescriptorESaIS2_EE12_M_check_lenEmPKc
FNDA:0,_ZNKSt6vectorIN5Nexus3rpc17ServiceDescriptorESaIS2_EE12_M_check_lenEmPKc
FN:1776,_ZNSt6vectorISt10shared_ptrIN5Nexus3rpc8NodeImplEESaIS4_EE11_S_max_sizeERKS5_
FNDA:234,_ZNSt6vectorISt10shared_ptrIN5Nexus3rpc8NodeImplEESaIS4_EE11_S_max_sizeERKS5_
FN:1776,_ZNSt6vectorIN5Nexus3rpc17ServiceDescriptorESaIS2_EE11_S_max_sizeERKS3_
FNDA:0,_ZNSt6vectorIN5Nexus3rpc17ServiceDescriptorESaIS2_EE11_S_max_sizeERKS3_
FN:1792,_ZNSt6vectorIN5Nexus3rpc17ServiceDescriptorESaIS2_EE15_M_erase_at_endEPS2_
FNDA:24,_ZNSt6vectorIN5Nexus3rpc17ServiceDescriptorESaIS2_EE15_M_erase_at_endEPS2_
DA:97,0
DA:98,0
DA:99,0
DA:97,150
DA:98,150
DA:99,150
DA:131,0
DA:133,0
DA:134,0
DA:131,150
DA:133,150
DA:134,150
DA:276,0
DA:277,0
DA:276,0
DA:277,0
DA:280,234
DA:281,234
DA:280,0
DA:281,0
DA:288,0
DA:288,150
DA:333,0
DA:335,0
DA:336,0
DA:337,0
DA:333,0
DA:335,0
DA:336,0
DA:337,0
DA:343,0
DA:346,0
DA:343,117
DA:346,117
DA:350,0
DA:353,0
DA:354,0
DA:355,0
DA:350,0
DA:353,0
DA:354,0
DA:355,0
DA:431,0
DA:436,0
DA:431,234
DA:436,234
DA:444,0
DA:449,0
DA:444,234
DA:449,234
DA:453,0
DA:456,0
DA:453,234
DA:456,234
DA:465,0
DA:469,0
DA:465,234
DA:469,234
DA:487,0
DA:487,150
DA:678,0
DA:680,0
DA:681,0
DA:683,0
DA:678,0
DA:680,0
DA:681,0
DA:683,0
DA:811,0
DA:812,0
DA:811,0
DA:812,0
DA:820,0
DA:821,0
DA:829,0
DA:830,0
DA:829,0
DA:830,0
DA:838,0
DA:839,0
DA:884,48
DA:885,48
DA:918,468
DA:919,468
DA:918,0
DA:919,0
DA:923,0
DA:924,0
DA:923,234
DA:924,234
DA:998,12
DA:999,12
DA:1000,12
DA:1007,0
DA:1008,0
DA:1187,0
DA:1189,0
DA:1192,0
DA:1194,0
DA:1198,0
DA:1199,0
DA:1187,117
DA:1189,117
DA:1192,0
DA:1194,0
DA:1198,117
DA:1199,117
DA:1379,23
DA:1382,23
DA:1383,23
DA:1385,23
DA:1457,25
DA:1459,25
DA:1460,25
DA:1461,50
DA:1498,0
DA:1499,0
DA:1508,12
DA:1511,12
DA:1514,12
DA:1515,12
DA:1516,12
DA:1518,0
DA:1520,0
DA:1521,0
DA:1662,23
DA:1665,23
DA:1666,23
DA:1667,23
DA:1756,0
DA:1758,0
DA:1759,0
DA:1761,0
DA:1762,0
DA:1756,117
DA:1758,117
DA:1759,0
DA:1761,117
DA:1762,117
DA:1776,0
DA:1781,0
DA:1783,0
DA:1784,0
DA:1776,234
DA:1781,234
DA:1783,234
DA:1784,234
DA:1792,24
DA:1794,24
DA:1796,24
DA:1797,24
DA:1798,24
DA:1801,24
end_of_record
SF:/usr/include/c++/11/new
FN:174,_ZnwmPv
FNDA:0,_ZnwmPv
FN:180,_ZdlPvS_
FNDA:0,_ZdlPvS_
DA:174,0
DA:175,0
DA:180,0
end_of_record
SF:/home/fz296w/workspace/Nexus/Nexus/include/nexus/registry/GlobalRegistry.h
FN:42,_ZN5Nexus3rpc14GlobalRegistryC2Ev
FNDA:5,_ZN5Nexus3rpc14GlobalRegistryC2Ev
FN:43,_ZN5Nexus3rpc14GlobalRegistryD2Ev
FNDA:5,_ZN5Nexus3rpc14GlobalRegistryD2Ev
DA:42,5
DA:43,5
end_of_record
SF:/usr/include/c++/11/bits/vector.tcc
FN:184,_ZNSt6vectorIN5Nexus3rpc17ServiceDescriptorESaIS2_EE8_M_eraseEN9__gnu_cxx17__normal_iteratorIPS2_S4_EES8_
FNDA:25,_ZNSt6vectorIN5Nexus3rpc17ServiceDescriptorESaIS2_EE8_M_eraseEN9__gnu_cxx17__normal_iteratorIPS2_S4_EES8_
FN:198,_ZNSt6vectorIN5Nexus3rpc17ServiceDescriptorESaIS2_EEaSERKS4_
FNDA:12,_ZNSt6vectorIN5Nexus3rpc17ServiceDescriptorESaIS2_EEaSERKS4_
FN:426,_ZNSt6vectorIN5Nexus3rpc17ServiceDescriptorESaIS2_EE17_M_realloc_insertIJRKS2_EEEvN9__gnu_cxx17__normal_iteratorIPS2_S4_EEDpOT_
FNDA:0,_ZNSt6vectorIN5Nexus3rpc17ServiceDescriptorESaIS2_EE17_M_realloc_insertIJRKS2_EEEvN9__gnu_cxx17__normal_iteratorIPS2_S4_EEDpOT_
FN:426,_ZNSt6vectorISt10shared_ptrIN5Nexus3rpc8NodeImplEESaIS4_EE17_M_realloc_insertIJRKS4_EEEvN9__gnu_cxx17__normal_iteratorIPS4_S6_EEDpOT_
FNDA:117,_ZNSt6vectorISt10shared_ptrIN5Nexus3rpc8NodeImplEESaIS4_EE17_M_realloc_insertIJRKS4_EEEvN9__gnu_cxx17__normal_iteratorIPS4_S6_EEDpOT_
FN:721,_ZNSt6vectorIN5Nexus3rpc17ServiceDescriptorESaIS2_EE15_M_range_insertIN9__gnu_cxx17__normal_iteratorIPKS2_S4_EEEEvNS7_IPS2_S4_EET_SD_St20forward_iterator_tag
FNDA:23,_ZNSt6vectorIN5Nexus3rpc17ServiceDescriptorESaIS2_EE15_M_range_insertIN9__gnu_cxx17__normal_iteratorIPKS2_S4_EEEEvNS7_IPS2_S4_EET_SD_St20forward_iterator_tag
DA:184,25
DA:187,25
DA:189,24
DA:190,0
DA:191,24
DA:193,25
DA:198,12
DA:201,12
DA:205,12
DA:207,0
DA:208,0
DA:211,0
DA:212,0
DA:213,0
DA:214,0
DA:215,0
DA:216,0
DA:217,0
DA:219,0
DA:220,0
DA:223,12
DA:224,12
DA:226,12
DA:228,12
DA:229,12
DA:230,12
DA:231,12
DA:232,12
DA:233,12
DA:234,12
DA:236,0
DA:238,0
DA:239,0
DA:243,0
DA:245,0
DA:246,0
DA:248,0
DA:250,12
DA:252,12
DA:426,0
DA:436,0
DA:437,0
DA:438,0
DA:439,0
DA:440,0
DA:441,0
DA:449,0
DA:450,0
DA:456,0
DA:459,0
DA:461,0
DA:462,0
DA:464,0
DA:466,0
DA:467,0
DA:474,0
DA:475,0
DA:477,0
DA:481,0
DA:482,0
DA:485,0
DA:487,0
DA:488,0
DA:489,0
DA:491,0
DA:492,0
DA:493,0
DA:496,0
DA:498,0
DA:500,0
DA:501,0
DA:502,0
DA:503,0
DA:504,0
DA:505,0
DA:426,117
DA:436,117
DA:437,117
DA:438,117
DA:439,117
DA:440,117
DA:441,117
DA:449,117
DA:450,117
DA:456,117
DA:459,117
DA:461,117
DA:462,117
DA:464,117
DA:466,117
DA:467,117
DA:474,0
DA:475,0
DA:477,0
DA:481,0
DA:482,0
DA:485,0
DA:487,0
DA:488,0
DA:489,0
DA:491,0
DA:492,0
DA:493,0
DA:496,117
DA:498,0
DA:500,117
DA:501,117
DA:502,117
DA:503,117
DA:504,117
DA:505,117
DA:721,23
DA:725,23
DA:727,23
DA:728,23
DA:729,23
DA:731,0
DA:732,0
DA:733,0
DA:736,0
DA:739,0
DA:740,0
DA:742,0
DA:744,0
DA:748,0
DA:749,0
DA:751,0
DA:753,0
DA:754,0
DA:756,0
DA:759,0
DA:760,0
DA:762,0
DA:768,23
DA:769,23
DA:770,23
DA:775,23
DA:776,23
DA:778,23
DA:780,23
DA:783,23
DA:784,23
DA:786,0
DA:788,0
DA:789,0
DA:790,0
DA:791,0
DA:793,23
DA:794,23
DA:796,23
DA:797,23
DA:798,23
DA:799,23
DA:800,23
DA:801,23
DA:804,23
end_of_record
SF:/usr/include/c++/11/ext/type_traits.h
FN:152,_ZN9__gnu_cxx17__is_null_pointerIcEEbPT_
FNDA:0,_ZN9__gnu_cxx17__is_null_pointerIcEEbPT_
DA:152,0
DA:153,0
end_of_record
SF:/usr/include/c++/11/bits/basic_string.tcc
FN:206,_ZNSt7__cxx1112basic_stringIcSt11char_traitsIcESaIcEE12_M_constructIPcEEvT_S7_St20forward_iterator_tag
FNDA:0,_ZNSt7__cxx1112basic_stringIcSt11char_traitsIcESaIcEE12_M_constructIPcEEvT_S7_St20forward_iterator_tag
DA:206,0
DA:211,0
DA:212,0
DA:215,0
DA:217,0
DA:219,0
DA:220,0
DA:225,0
DA:226,0
DA:228,0
DA:229,0
DA:232,0
DA:233,0
end_of_record
SF:/usr/include/c++/11/bits/shared_ptr.h
FN:148,_ZNSt10shared_ptrIN5Nexus3rpc8NodeImplEEC2Ev
FNDA:55,_ZNSt10shared_ptrIN5Nexus3rpc8NodeImplEEC2Ev
FN:150,_ZNSt10shared_ptrIN5Nexus3rpc8NodeImplEEC2ERKS3_
FNDA:117,_ZNSt10shared_ptrIN5Nexus3rpc8NodeImplEEC2ERKS3_
FN:304,_ZNSt10shared_ptrIN5Nexus3rpc8NodeImplEEC2EOS3_
FNDA:18,_ZNSt10shared_ptrIN5Nexus3rpc8NodeImplEEC2EOS3_
FN:357,_ZNSt10shared_ptrIN5Nexus3rpc8NodeImplEEC2EDn
FNDA:55,_ZNSt10shared_ptrIN5Nexus3rpc8NodeImplEEC2EDn
FN:417,_ZNSt10shared_ptrIN5Nexus3rpc8NodeImplEEC2ERKSt8weak_ptrIS2_ESt9nothrow_t
FNDA:172,_ZNSt10shared_ptrIN5Nexus3rpc8NodeImplEEC2ERKSt8weak_ptrIS2_ESt9nothrow_t
FN:699,_ZNSt8weak_ptrIN5Nexus3rpc8NodeImplEEC2Ev
FNDA:0,_ZNSt8weak_ptrIN5Nexus3rpc8NodeImplEEC2Ev
FN:719,_ZNSt8weak_ptrIN5Nexus3rpc8NodeImplEEaSERKS3_
FNDA:55,_ZNSt8weak_ptrIN5Nexus3rpc8NodeImplEEaSERKS3_
FN:749,_ZNKSt8weak_ptrIN5Nexus3rpc8NodeImplEE4lockEv
FNDA:172,_ZNKSt8weak_ptrIN5Nexus3rpc8NodeImplEE4lockEv
DA:148,55
DA:150,117
DA:304,18
DA:305,18
DA:357,55
DA:417,172
DA:418,172
DA:699,0
DA:719,55
DA:749,172
DA:750,172
end_of_record
SF:/usr/include/c++/11/bits/basic_string.h
FN:251,_ZNSt7__cxx1112basic_stringIcSt11char_traitsIcESaIcEE16_M_construct_auxIPcEEvT_S7_St12__false_type
FNDA:0,_ZNSt7__cxx1112basic_stringIcSt11char_traitsIcESaIcEE16_M_construct_auxIPcEEvT_S7_St12__false_type
FN:271,_ZNSt7__cxx1112basic_stringIcSt11char_traitsIcESaIcEE12_M_constructIPcEEvT_S7_
FNDA:0,_ZNSt7__cxx1112basic_stringIcSt11char_traitsIcESaIcEE12_M_constructIPcEEvT_S7_
FN:6132,_ZStplIcSt11char_traitsIcESaIcEENSt7__cxx1112basic_stringIT_T0_T1_EERKS8_PKS5_
FNDA:0,_ZStplIcSt11char_traitsIcESaIcEENSt7__cxx1112basic_stringIT_T0_T1_EERKS8_PKS5_
FN:6160,_ZStplIcSt11char_traitsIcESaIcEENSt7__cxx1112basic_stringIT_T0_T1_EEOS8_RKS8_
FNDA:0,_ZStplIcSt11char_traitsIcESaIcEENSt7__cxx1112basic_stringIT_T0_T1_EEOS8_RKS8_
FN:6206,_ZStplIcSt11char_traitsIcESaIcEENSt7__cxx1112basic_stringIT_T0_T1_EEOS8_PKS5_
FNDA:0,_ZStplIcSt11char_traitsIcESaIcEENSt7__cxx1112basic_stringIT_T0_T1_EEOS8_PKS5_
FN:6234,_ZSteqIcEN9__gnu_cxx11__enable_ifIXsrSt9__is_charIT_E7__valueEbE6__typeERKNSt7__cxx1112basic_stringIS3_St11char_traitsIS3_ESaIS3_EEESE_
FNDA:0,_ZSteqIcEN9__gnu_cxx11__enable_ifIXsrSt9__is_charIT_E7__valueEbE6__typeERKNSt7__cxx1112basic_stringIS3_St11char_traitsIS3_ESaIS3_EEESE_
FN:6340,_ZStltIcSt11char_traitsIcESaIcEEbRKNSt7__cxx1112basic_stringIT_T0_T1_EESA_
FNDA:0,_ZStltIcSt11char_traitsIcESaIcEEbRKNSt7__cxx1112basic_stringIT_T0_T1_EESA_
DA:251,0
DA:255,0
DA:256,0
DA:271,0
DA:274,0
DA:275,0
DA:6132,0
DA:6135,0
DA:6136,0
DA:6137,0
DA:6138,0
DA:6160,0
DA:6162,0
DA:6206,0
DA:6208,0
DA:6234,0
DA:6236,0
DA:6237,0
DA:6238,0
DA:6340,0
DA:6343,0
end_of_record
SF:/usr/include/c++/11/bits/stl_uninitialized.h
FN:85,_ZNSt20__uninitialized_copyILb0EE13__uninit_copyISt13move_iteratorIPN5Nexus3rpc17ServiceDescriptorEES6_EET0_T_S9_S8_
FNDA:0,_ZNSt20__uninitialized_copyILb0EE13__uninit_copyISt13move_iteratorIPN5Nexus3rpc17ServiceDescriptorEES6_EET0_T_S9_S8_
FN:85,_ZNSt20__uninitialized_copyILb0EE13__uninit_copyISt13move_iteratorIPSt10shared_ptrIN5Nexus3rpc8NodeImplEEES8_EET0_T_SB_SA_
FNDA:0,_ZNSt20__uninitialized_copyILb0EE13__uninit_copyISt13move_iteratorIPSt10shared_ptrIN5Nexus3rpc8NodeImplEEES8_EET0_T_SB_SA_
FN:85,_ZNSt20__uninitialized_copyILb0EE13__uninit_copyIN9__gnu_cxx17__normal_iteratorIPKN5Nexus3rpc17ServiceDescriptorESt6vectorIS6_SaIS6_EEEEPS6_EET0_T_SF_SE_
FNDA:35,_ZNSt20__uninitialized_copyILb0EE13__uninit_copyIN9__gnu_cxx17__normal_iteratorIPKN5Nexus3rpc17ServiceDescriptorESt6vectorIS6_SaIS6_EEEEPS6_EET0_T_SF_SE_
FN:85,_ZNSt20__uninitialized_copyILb0EE13__uninit_copyIPN5Nexus3rpc17ServiceDescriptorES5_EET0_T_S7_S6_
FNDA:0,_ZNSt20__uninitialized_copyILb0EE13__uninit_copyIPN5Nexus3rpc17ServiceDescriptorES5_EET0_T_S7_S6_
FN:126,_ZSt18uninitialized_copyISt13move_iteratorIPN5Nexus3rpc17ServiceDescriptorEES4_ET0_T_S7_S6_
FNDA:0,_ZSt18uninitialized_copyISt13move_iteratorIPN5Nexus3rpc17ServiceDescriptorEES4_ET0_T_S7_S6_
FN:126,_ZSt18uninitialized_copyISt13move_iteratorIPSt10shared_ptrIN5Nexus3rpc8NodeImplEEES6_ET0_T_S9_S8_
FNDA:0,_ZSt18uninitialized_copyISt13move_iteratorIPSt10shared_ptrIN5Nexus3rpc8NodeImplEEES6_ET0_T_S9_S8_
FN:126,_ZSt18uninitialized_copyIPN5Nexus3rpc17ServiceDescriptorES3_ET0_T_S5_S4_
FNDA:0,_ZSt18uninitialized_copyIPN5Nexus3rpc17ServiceDescriptorES3_ET0_T_S5_S4_
FN:126,_ZSt18uninitialized_copyIN9__gnu_cxx17__normal_iteratorIPKN5Nexus3rpc17ServiceDescriptorESt6vectorIS4_SaIS4_EEEEPS4_ET0_T_SD_SC_
FNDA:35,_ZSt18uninitialized_copyIN9__gnu_cxx17__normal_iteratorIPKN5Nexus3rpc17ServiceDescriptorESt6vectorIS4_SaIS4_EEEEPS4_ET0_T_SD_SC_
FN:331,_ZSt22__uninitialized_copy_aIPN5Nexus3rpc17ServiceDescriptorES3_S2_ET0_T_S5_S4_RSaIT1_E
FNDA:0,_ZSt22__uninitialized_copy_aIPN5Nexus3rpc17ServiceDescriptorES3_S2_ET0_T_S5_S4_RSaIT1_E
FN:331,_ZSt22__uninitialized_copy_aIN9__gnu_cxx17__normal_iteratorIPKN5Nexus3rpc17ServiceDescriptorESt6vectorIS4_SaIS4_EEEEPS4_S4_ET0_T_SD_SC_RSaIT1_E
FNDA:35,_ZSt22__uninitialized_copy_aIN9__gnu_cxx17__normal_iteratorIPKN5Nexus3rpc17ServiceDescriptorESt6vectorIS4_SaIS4_EEEEPS4_S4_ET0_T_SD_SC_RSaIT1_E
FN:331,_ZSt22__uninitialized_copy_aISt13move_iteratorIPN5Nexus3rpc17ServiceDescriptorEES4_S3_ET0_T_S7_S6_RSaIT1_E
FNDA:0,_ZSt22__uninitialized_copy_aISt13move_iteratorIPN5Nexus3rpc17ServiceDescriptorEES4_S3_ET0_T_S7_S6_RSaIT1_E
FN:331,_ZSt22__uninitialized_copy_aISt13move_iteratorIPSt10shared_ptrIN5Nexus3rpc8NodeImplEEES6_S5_ET0_T_S9_S8_RSaIT1_E
FNDA:0,_ZSt22__uninitialized_copy_aISt13move_iteratorIPSt10shared_ptrIN5Nexus3rpc8NodeImplEEES6_S5_ET0_T_S9_S8_RSaIT1_E
FN:338,_ZSt22__uninitialized_move_aIPN5Nexus3rpc17ServiceDescriptorES3_SaIS2_EET0_T_S6_S5_RT1_
FNDA:0,_ZSt22__uninitialized_move_aIPN5Nexus3rpc17ServiceDescriptorES3_SaIS2_EET0_T_S6_S5_RT1_
FN:349,_ZSt34__uninitialized_move_if_noexcept_aIPSt10shared_ptrIN5Nexus3rpc8NodeImplEES5_SaIS4_EET0_T_S8_S7_RT1_
FNDA:0,_ZSt34__uninitialized_move_if_noexcept_aIPSt10shared_ptrIN5Nexus3rpc8NodeImplEES5_SaIS4_EET0_T_S8_S7_RT1_
FN:349,_ZSt34__uninitialized_move_if_noexcept_aIPN5Nexus3rpc17ServiceDescriptorES3_SaIS2_EET0_T_S6_S5_RT1_
FNDA:0,_ZSt34__uninitialized_move_if_noexcept_aIPN5Nexus3rpc17ServiceDescriptorES3_SaIS2_EET0_T_S6_S5_RT1_
FN:986,_ZSt19__relocate_object_aISt10shared_ptrIN5Nexus3rpc8NodeImplEES4_SaIS4_EEvPT_PT0_RT1_
FNDA:18,_ZSt19__relocate_object_aISt10shared_ptrIN5Nexus3rpc8NodeImplEES4_SaIS4_EEvPT_PT0_RT1_
FN:986,_ZSt19__relocate_object_aIN5Nexus3rpc17ServiceDescriptorES2_SaIS2_EEvPT_PT0_RT1_
FNDA:0,_ZSt19__relocate_object_aIN5Nexus3rpc17ServiceDescriptorES2_SaIS2_EEvPT_PT0_RT1_
FN:1018,_ZSt14__relocate_a_1IPSt10shared_ptrIN5Nexus3rpc8NodeImplEES5_SaIS4_EET0_T_S8_S7_RT1_
FNDA:234,_ZSt14__relocate_a_1IPSt10shared_ptrIN5Nexus3rpc8NodeImplEES5_SaIS4_EET0_T_S8_S7_RT1_
FN:1018,_ZSt14__relocate_a_1IPN5Nexus3rpc17ServiceDescriptorES3_SaIS2_EET0_T_S6_S5_RT1_
FNDA:0,_ZSt14__relocate_a_1IPN5Nexus3rpc17ServiceDescriptorES3_SaIS2_EET0_T_S6_S5_RT1_
FN:1040,_ZSt12__relocate_aIPSt10shared_ptrIN5Nexus3rpc8NodeImplEES5_SaIS4_EET0_T_S8_S7_RT1_
FNDA:234,_ZSt12__relocate_aIPSt10shared_ptrIN5Nexus3rpc8NodeImplEES5_SaIS4_EET0_T_S8_S7_RT1_
FN:1040,_ZSt12__relocate_aIPN5Nexus3rpc17ServiceDescriptorES3_SaIS2_EET0_T_S6_S5_RT1_
FNDA:0,_ZSt12__relocate_aIPN5Nexus3rpc17ServiceDescriptorES3_SaIS2_EET0_T_S6_S5_RT1_
DA:85,0
DA:88,0
DA:91,0
DA:92,0
DA:93,0
DA:95,0
DA:97,0
DA:98,0
DA:85,0
DA:88,0
DA:91,0
DA:92,0
DA:93,0
DA:95,0
DA:97,0
DA:98,0
DA:85,35
DA:88,35
DA:91,72
DA:92,37
DA:93,35
DA:95,0
DA:97,0
DA:98,0
DA:85,0
DA:88,0
DA:91,0
DA:92,0
DA:93,0
DA:95,0
DA:97,0
DA:98,0
DA:126,0
DA:145,0
DA:151,0
DA:126,0
DA:145,0
DA:151,0
DA:126,35
DA:145,35
DA:151,35
DA:126,0
DA:145,0
DA:151,0
DA:331,0
DA:333,0
DA:331,0
DA:333,0
DA:331,35
DA:333,35
DA:331,0
DA:333,0
DA:338,0
DA:341,0
DA:343,0
DA:349,0
DA:355,0
DA:356,0
DA:349,0
DA:355,0
DA:356,0
DA:986,0
DA:994,0
DA:995,0
DA:996,0
DA:986,18
DA:994,18
DA:995,18
DA:996,18
DA:1018,0
DA:1030,0
DA:1031,0
DA:1032,0
DA:1034,0
DA:1018,234
DA:1030,234
DA:1031,252
DA:1032,18
DA:1034,234
DA:1040,0
DA:1046,0
DA:1048,0
DA:1040,234
DA:1046,234
DA:1048,234
end_of_record
SF:/usr/include/c++/11/ext/new_allocator.h
FN:79,_ZN9__gnu_cxx13new_allocatorIN5Nexus3rpc17ServiceDescriptorEEC2Ev
FNDA:0,_ZN9__gnu_cxx13new_allocatorIN5Nexus3rpc17ServiceDescriptorEEC2Ev
FN:79,_ZN9__gnu_cxx13new_allocatorISt10shared_ptrIN5Nexus3rpc8NodeImplEEEC2Ev
FNDA:150,_ZN9__gnu_cxx13new_allocatorISt10shared_ptrIN5Nexus3rpc8NodeImplEEEC2Ev
FN:79,_ZN9__gnu_cxx13new_allocatorISt13_Rb_tree_nodeISt4pairIKNSt7__cxx1112basic_stringIcSt11char_traitsIcESaIcEEESt6vectorIN5Nexus3rpc17ServiceDescriptorESaISD_EEEEEC2Ev
FNDA:5,_ZN9__gnu_cxx13new_allocatorISt13_Rb_tree_nodeISt4pairIKNSt7__cxx1112basic_stringIcSt11char_traitsIcESaIcEEESt6vectorIN5Nexus3rpc17ServiceDescriptorESaISD_EEEEEC2Ev
FN:79,_ZN9__gnu_cxx13new_allocatorISt13_Rb_tree_nodeISt4pairIKNSt7__cxx1112basic_stringIcSt11char_traitsIcESaIcEEESt8weak_ptrIN5Nexus3rpc8NodeImplEEEEEC2Ev
FNDA:5,_ZN9__gnu_cxx13new_allocatorISt13_Rb_tree_nodeISt4pairIKNSt7__cxx1112basic_stringIcSt11char_traitsIcESaIcEEESt8weak_ptrIN5Nexus3rpc8NodeImplEEEEEC2Ev
FN:82,_ZN9__gnu_cxx13new_allocatorIcEC2ERKS1_
FNDA:0,_ZN9__gnu_cxx13new_allocatorIcEC2ERKS1_
FN:89,_ZN9__gnu_cxx13new_allocatorISt13_Rb_tree_nodeISt4pairIKNSt7__cxx1112basic_stringIcSt11char_traitsIcESaIcEEESt6vectorIN5Nexus3rpc17ServiceDescriptorESaISD_EEEEED2Ev
FNDA:5,_ZN9__gnu_cxx13new_allocatorISt13_Rb_tree_nodeISt4pairIKNSt7__cxx1112basic_stringIcSt11char_traitsIcESaIcEEESt6vectorIN5Nexus3rpc17ServiceDescriptorESaISD_EEEEED2Ev
FN:89,_ZN9__gnu_cxx13new_allocatorISt10shared_ptrIN5Nexus3rpc8NodeImplEEED2Ev
FNDA:0,_ZN9__gnu_cxx13new_allocatorISt10shared_ptrIN5Nexus3rpc8NodeImplEEED2Ev
FN:89,_ZN9__gnu_cxx13new_allocatorIcED2Ev
FNDA:0,_ZN9__gnu_cxx13new_allocatorIcED2Ev
FN:89,_ZN9__gnu_cxx13new_allocatorIN5Nexus3rpc17ServiceDescriptorEED2Ev
FNDA:0,_ZN9__gnu_cxx13new_allocatorIN5Nexus3rpc17ServiceDescriptorEED2Ev
FN:89,_ZN9__gnu_cxx13new_allocatorISt13_Rb_tree_nodeISt4pairIKNSt7__cxx1112basic_stringIcSt11char_traitsIcESaIcEEESt8weak_ptrIN5Nexus3rpc8NodeImplEEEEED2Ev
FNDA:5,_ZN9__gnu_cxx13new_allocatorISt13_Rb_tree_nodeISt4pairIKNSt7__cxx1112basic_stringIcSt11char_traitsIcESaIcEEESt8weak_ptrIN5Nexus3rpc8NodeImplEEEEED2Ev
FN:103,_ZN9__gnu_cxx13new_allocatorIN5Nexus3rpc17ServiceDescriptorEE8allocateEmPKv
FNDA:0,_ZN9__gnu_cxx13new_allocatorIN5Nexus3rpc17ServiceDescriptorEE8allocateEmPKv
FN:103,_ZN9__gnu_cxx13new_allocatorISt10shared_ptrIN5Nexus3rpc8NodeImplEEE8allocateEmPKv
FNDA:117,_ZN9__gnu_cxx13new_allocatorISt10shared_ptrIN5Nexus3rpc8NodeImplEEE8allocateEmPKv
FN:103,_ZN9__gnu_cxx13new_allocatorISt13_Rb_tree_nodeISt4pairIKNSt7__cxx1112basic_stringIcSt11char_traitsIcESaIcEEESt6vectorIN5Nexus3rpc17ServiceDescriptorESaISD_EEEEE8allocateEmPKv
FNDA:23,_ZN9__gnu_cxx13new_allocatorISt13_Rb_tree_nodeISt4pairIKNSt7__cxx1112basic_stringIcSt11char_traitsIcESaIcEEESt6vectorIN5Nexus3rpc17ServiceDescriptorESaISD_EEEEE8allocateEmPKv
FN:103,_ZN9__gnu_cxx13new_allocatorISt13_Rb_tree_nodeISt4pairIKNSt7__cxx1112basic_stringIcSt11char_traitsIcESaIcEEESt8weak_ptrIN5Nexus3rpc8NodeImplEEEEE8allocateEmPKv
FNDA:55,_ZN9__gnu_cxx13new_allocatorISt13_Rb_tree_nodeISt4pairIKNSt7__cxx1112basic_stringIcSt11char_traitsIcESaIcEEESt8weak_ptrIN5Nexus3rpc8NodeImplEEEEE8allocateEmPKv
FN:132,_ZN9__gnu_cxx13new_allocatorISt13_Rb_tree_nodeISt4pairIKNSt7__cxx1112basic_stringIcSt11char_traitsIcESaIcEEESt8weak_ptrIN5Nexus3rpc8NodeImplEEEEE10deallocateEPSG_m
FNDA:55,_ZN9__gnu_cxx13new_allocatorISt13_Rb_tree_nodeISt4pairIKNSt7__cxx1112basic_stringIcSt11char_traitsIcESaIcEEESt8weak_ptrIN5Nexus3rpc8NodeImplEEEEE10deallocateEPSG_m
FN:132,_ZN9__gnu_cxx13new_allocatorISt13_Rb_tree_nodeISt4pairIKNSt7__cxx1112basic_stringIcSt11char_traitsIcESaIcEEESt6vectorIN5Nexus3rpc17ServiceDescriptorESaISD_EEEEE10deallocateEPSH_m
FNDA:23,_ZN9__gnu_cxx13new_allocatorISt13_Rb_tree_nodeISt4pairIKNSt7__cxx1112basic_stringIcSt11char_traitsIcESaIcEEESt6vectorIN5Nexus3rpc17ServiceDescriptorESaISD_EEEEE10deallocateEPSH_m
FN:132,_ZN9__gnu_cxx13new_allocatorIN5Nexus3rpc17ServiceDescriptorEE10deallocateEPS3_m
FNDA:0,_ZN9__gnu_cxx13new_allocatorIN5Nexus3rpc17ServiceDescriptorEE10deallocateEPS3_m
FN:132,_ZN9__gnu_cxx13new_allocatorISt10shared_ptrIN5Nexus3rpc8NodeImplEEE10deallocateEPS5_m
FNDA:0,_ZN9__gnu_cxx13new_allocatorISt10shared_ptrIN5Nexus3rpc8NodeImplEEE10deallocateEPS5_m
FN:154,_ZNK9__gnu_cxx13new_allocatorISt10shared_ptrIN5Nexus3rpc8NodeImplEEE8max_sizeEv
FNDA:234,_ZNK9__gnu_cxx13new_allocatorISt10shared_ptrIN5Nexus3rpc8NodeImplEEE8max_sizeEv
FN:154,_ZNK9__gnu_cxx13new_allocatorIN5Nexus3rpc17ServiceDescriptorEE8max_sizeEv
FNDA:0,_ZNK9__gnu_cxx13new_allocatorIN5Nexus3rpc17ServiceDescriptorEE8max_sizeEv
FN:160,_ZN9__gnu_cxx13new_allocatorISt10shared_ptrIN5Nexus3rpc8NodeImplEEE9constructIS5_JRKS5_EEEvPT_DpOT0_
FNDA:117,_ZN9__gnu_cxx13new_allocatorISt10shared_ptrIN5Nexus3rpc8NodeImplEEE9constructIS5_JRKS5_EEEvPT_DpOT0_
FN:160,_ZN9__gnu_cxx13new_allocatorIN5Nexus3rpc17ServiceDescriptorEE9constructIS3_JRKS3_EEEvPT_DpOT0_
FNDA:0,_ZN9__gnu_cxx13new_allocatorIN5Nexus3rpc17ServiceDescriptorEE9constructIS3_JRKS3_EEEvPT_DpOT0_
FN:160,_ZN9__gnu_cxx13new_allocatorISt10shared_ptrIN5Nexus3rpc8NodeImplEEE9constructIS5_JS5_EEEvPT_DpOT0_
FNDA:18,_ZN9__gnu_cxx13new_allocatorISt10shared_ptrIN5Nexus3rpc8NodeImplEEE9constructIS5_JS5_EEEvPT_DpOT0_
FN:160,_ZN9__gnu_cxx13new_allocatorISt13_Rb_tree_nodeISt4pairIKNSt7__cxx1112basic_stringIcSt11char_traitsIcESaIcEEESt8weak_ptrIN5Nexus3rpc8NodeImplEEEEE9constructISF_JRKSt21piecewise_construct_tSt5tupleIJRS9_EESM_IJEEEEEvPT_DpOT0_
FNDA:55,_ZN9__gnu_cxx13new_allocatorISt13_Rb_tree_nodeISt4pairIKNSt7__cxx1112basic_stringIcSt11char_traitsIcESaIcEEESt8weak_ptrIN5Nexus3rpc8NodeImplEEEEE9constructISF_JRKSt21piecewise_construct_tSt5tupleIJRS9_EESM_IJEEEEEvPT_DpOT0_
FN:160,_ZN9__gnu_cxx13new_allocatorISt13_Rb_tree_nodeISt4pairIKNSt7__cxx1112basic_stringIcSt11char_traitsIcESaIcEEESt6vectorIN5Nexus3rpc17ServiceDescriptorESaISD_EEEEE9constructISG_JRKSt21piecewise_construct_tSt5tupleIJRS9_EESN_IJEEEEEvPT_DpOT0_
FNDA:23,_ZN9__gnu_cxx13new_allocatorISt13_Rb_tree_nodeISt4pairIKNSt7__cxx1112basic_stringIcSt11char_traitsIcESaIcEEESt6vectorIN5Nexus3rpc17ServiceDescriptorESaISD_EEEEE9constructISG_JRKSt21piecewise_construct_tSt5tupleIJRS9_EESN_IJEEEEEvPT_DpOT0_
FN:160,_ZN9__gnu_cxx13new_allocatorIN5Nexus3rpc17ServiceDescriptorEE9constructIS3_JS3_EEEvPT_DpOT0_
FNDA:0,_ZN9__gnu_cxx13new_allocatorIN5Nexus3rpc17ServiceDescriptorEE9constructIS3_JS3_EEEvPT_DpOT0_
FN:166,_ZN9__gnu_cxx13new_allocatorISt10shared_ptrIN5Nexus3rpc8NodeImplEEE7destroyIS5_EEvPT_
FNDA:18,_ZN9__gnu_cxx13new_allocatorISt10shared_ptrIN5Nexus3rpc8NodeImplEEE7destroyIS5_EEvPT_
FN:166,_ZN9__gnu_cxx13new_allocatorIN5Nexus3rpc17ServiceDescriptorEE7destroyIS3_EEvPT_
FNDA:0,_ZN9__gnu_cxx13new_allocatorIN5Nexus3rpc17ServiceDescriptorEE7destroyIS3_EEvPT_
FN:166,_ZN9__gnu_cxx13new_allocatorISt13_Rb_tree_nodeISt4pairIKNSt7__cxx1112basic_stringIcSt11char_traitsIcESaIcEEESt8weak_ptrIN5Nexus3rpc8NodeImplEEEEE7destroyISF_EEvPT_
FNDA:55,_ZN9__gnu_cxx13new_allocatorISt13_Rb_tree_nodeISt4pairIKNSt7__cxx1112basic_stringIcSt11char_traitsIcESaIcEEESt8weak_ptrIN5Nexus3rpc8NodeImplEEEEE7destroyISF_EEvPT_
FN:166,_ZN9__gnu_cxx13new_allocatorISt13_Rb_tree_nodeISt4pairIKNSt7__cxx1112basic_stringIcSt11char_traitsIcESaIcEEESt6vectorIN5Nexus3rpc17ServiceDescriptorESaISD_EEEEE7destroyISG_EEvPT_
FNDA:23,_ZN9__gnu_cxx13new_allocatorISt13_Rb_tree_nodeISt4pairIKNSt7__cxx1112basic_stringIcSt11char_traitsIcESaIcEEESt6vectorIN5Nexus3rpc17ServiceDescriptorESaISD_EEEEE7destroyISG_EEvPT_
FN:197,_ZNK9__gnu_cxx13new_allocatorISt10shared_ptrIN5Nexus3rpc8NodeImplEEE11_M_max_sizeEv
FNDA:351,_ZNK9__gnu_cxx13new_allocatorISt10shared_ptrIN5Nexus3rpc8NodeImplEEE11_M_max_sizeEv
FN:197,_ZNK9__gnu_cxx13new_allocatorIN5Nexus3rpc17ServiceDescriptorEE11_M_max_sizeEv
FNDA:0,_ZNK9__gnu_cxx13new_allocatorIN5Nexus3rpc17ServiceDescriptorEE11_M_max_sizeEv
FN:197,_ZNK9__gnu_cxx13new_allocatorISt13_Rb_tree_nodeISt4pairIKNSt7__cxx1112basic_stringIcSt11char_traitsIcESaIcEEESt8weak_ptrIN5Nexus3rpc8NodeImplEEEEE11_M_max_sizeEv
FNDA:55,_ZNK9__gnu_cxx13new_allocatorISt13_Rb_tree_nodeISt4pairIKNSt7__cxx1112basic_stringIcSt11char_traitsIcESaIcEEESt8weak_ptrIN5Nexus3rpc8NodeImplEEEEE11_M_max_sizeEv
FN:197,_ZNK9__gnu_cxx13new_allocatorISt13_Rb_tree_nodeISt4pairIKNSt7__cxx1112basic_stringIcSt11char_traitsIcESaIcEEESt6vectorIN5Nexus3rpc17ServiceDescriptorESaISD_EEEEE11_M_max_sizeEv
FNDA:23,_ZNK9__gnu_cxx13new_allocatorISt13_Rb_tree_nodeISt4pairIKNSt7__cxx1112basic_stringIcSt11char_traitsIcESaIcEEESt6vectorIN5Nexus3rpc17ServiceDescriptorESaISD_EEEEE11_M_max_sizeEv
DA:79,0
DA:79,150
DA:79,5
DA:79,5
DA:82,0
DA:89,0
DA:89,0
DA:89,5
DA:89,5
DA:89,0
DA:103,23
DA:111,23
DA:115,0
DA:116,0
DA:117,0
DA:127,23
DA:103,55
DA:111,55
DA:115,0
DA:116,0
DA:117,0
DA:127,55
DA:103,0
DA:111,0
DA:115,0
DA:116,0
DA:117,0
DA:127,0
DA:103,117
DA:111,117
DA:115,0
DA:116,0
DA:117,0
DA:127,117
DA:132,23
DA:145,23
DA:150,23
DA:132,55
DA:145,55
DA:150,55
DA:132,0
DA:145,0
DA:150,0
DA:132,0
DA:145,0
DA:150,0
DA:154,0
DA:155,0
DA:154,234
DA:155,234
DA:160,0
DA:162,0
DA:160,18
DA:162,18
DA:160,23
DA:162,23
DA:160,55
DA:162,55
DA:160,0
DA:162,0
DA:160,117
DA:162,117
DA:166,23
DA:168,23
DA:166,55
DA:168,55
DA:166,0
DA:168,0
DA:166,18
DA:168,18
DA:197,23
DA:200,23
DA:197,55
DA:200,55
DA:197,0
DA:200,0
DA:197,351
DA:200,351
end_of_record
SF:/usr/include/c++/11/ext/atomicity.h
DA:52,0
DA:66,0
DA:71,0
DA:84,0
DA:85,0
DA:86,0
DA:92,0
DA:98,0
DA:99,0
DA:101,0
DA:108,0
DA:112,0
end_of_record
SF:/usr/include/c++/11/bits/allocator.h
FN:156,_ZNSaIN5Nexus3rpc17ServiceDescriptorEEC2Ev
FNDA:0,_ZNSaIN5Nexus3rpc17ServiceDescriptorEEC2Ev
FN:156,_ZNSaISt10shared_ptrIN5Nexus3rpc8NodeImplEEEC2Ev
FNDA:150,_ZNSaISt10shared_ptrIN5Nexus3rpc8NodeImplEEEC2Ev
FN:156,_ZNSaISt13_Rb_tree_nodeISt4pairIKNSt7__cxx1112basic_stringIcSt11char_traitsIcESaIcEEESt6vectorIN5Nexus3rpc17ServiceDescriptorESaISB_EEEEEC2Ev
FNDA:5,_ZNSaISt13_Rb_tree_nodeISt4pairIKNSt7__cxx1112basic_stringIcSt11char_traitsIcESaIcEEESt6vectorIN5Nexus3rpc17ServiceDescriptorESaISB_EEEEEC2Ev
FN:156,_ZNSaISt13_Rb_tree_nodeISt4pairIKNSt7__cxx1112basic_stringIcSt11char_traitsIcESaIcEEESt8weak_ptrIN5Nexus3rpc8NodeImplEEEEEC2Ev
FNDA:5,_ZNSaISt13_Rb_tree_nodeISt4pairIKNSt7__cxx1112basic_stringIcSt11char_traitsIcESaIcEEESt8weak_ptrIN5Nexus3rpc8NodeImplEEEEEC2Ev
FN:174,_ZNSaIN5Nexus3rpc17ServiceDescriptorEED2Ev
FNDA:0,_ZNSaIN5Nexus3rpc17ServiceDescriptorEED2Ev
FN:174,_ZNSaISt10shared_ptrIN5Nexus3rpc8NodeImplEEED2Ev
FNDA:0,_ZNSaISt10shared_ptrIN5Nexus3rpc8NodeImplEEED2Ev
FN:174,_ZNSaISt13_Rb_tree_nodeISt4pairIKNSt7__cxx1112basic_stringIcSt11char_traitsIcESaIcEEESt6vectorIN5Nexus3rpc17ServiceDescriptorESaISB_EEEEED2Ev
FNDA:5,_ZNSaISt13_Rb_tree_nodeISt4pairIKNSt7__cxx1112basic_stringIcSt11char_traitsIcESaIcEEESt6vectorIN5Nexus3rpc17ServiceDescriptorESaISB_EEEEED2Ev
FN:174,_ZNSaISt13_Rb_tree_nodeISt4pairIKNSt7__cxx1112basic_stringIcSt11char_traitsIcESaIcEEESt8weak_ptrIN5Nexus3rpc8NodeImplEEEEED2Ev
FNDA:5,_ZNSaISt13_Rb_tree_nodeISt4pairIKNSt7__cxx1112basic_stringIcSt11char_traitsIcESaIcEEESt8weak_ptrIN5Nexus3rpc8NodeImplEEEEED2Ev
FN:209,_ZStneRKSaIN5Nexus3rpc17ServiceDescriptorEES4_
FNDA:0,_ZStneRKSaIN5Nexus3rpc17ServiceDescriptorEES4_
DA:156,0
DA:156,150
DA:156,5
DA:156,5
DA:174,0
DA:174,0
DA:174,5
DA:174,5
DA:209,0
DA:210,0
end_of_record
SF:/usr/include/c++/11/bits/stl_iterator.h
FN:1027,_ZN9__gnu_cxx17__normal_iteratorIPSt10shared_ptrIN5Nexus3rpc8NodeImplEESt6vectorIS5_SaIS5_EEEC2ERKS6_
FNDA:0,_ZN9__gnu_cxx17__normal_iteratorIPSt10shared_ptrIN5Nexus3rpc8NodeImplEESt6vectorIS5_SaIS5_EEEC2ERKS6_
FN:1027,_ZN9__gnu_cxx17__normal_iteratorIPN5Nexus3rpc17ServiceDescriptorESt6vectorIS3_SaIS3_EEEC2ERKS4_
FNDA:0,_ZN9__gnu_cxx17__normal_iteratorIPN5Nexus3rpc17ServiceDescriptorESt6vectorIS3_SaIS3_EEEC2ERKS4_
FN:1027,_ZN9__gnu_cxx17__normal_iteratorIPKN5Nexus3rpc17ServiceDescriptorESt6vectorIS3_SaIS3_EEEC2ERKS5_
FNDA:0,_ZN9__gnu_cxx17__normal_iteratorIPKN5Nexus3rpc17ServiceDescriptorESt6vectorIS3_SaIS3_EEEC2ERKS5_
FN:1033,_ZN9__gnu_cxx17__normal_iteratorIPKN5Nexus3rpc17ServiceDescriptorESt6vectorIS3_SaIS3_EEEC2IPS3_EERKNS0_IT_NS_11__enable_ifIXsrSt10__are_sameISC_SB_E7__valueES8_E6__typeEEE
FNDA:73,_ZN9__gnu_cxx17__normal_iteratorIPKN5Nexus3rpc17ServiceDescriptorESt6vectorIS3_SaIS3_EEEC2IPS3_EERKNS0_IT_NS_11__enable_ifIXsrSt10__are_sameISC_SB_E7__valueES8_E6__typeEEE
FN:1042,_ZNK9__gnu_cxx17__normal_iteratorIPN5Nexus3rpc17ServiceDescriptorESt6vectorIS3_SaIS3_EEEdeEv
FNDA:0,_ZNK9__gnu_cxx17__normal_iteratorIPN5Nexus3rpc17ServiceDescriptorESt6vectorIS3_SaIS3_EEEdeEv
FN:1042,_ZNK9__gnu_cxx17__normal_iteratorIPKN5Nexus3rpc17ServiceDescriptorESt6vectorIS3_SaIS3_EEEdeEv
FNDA:37,_ZNK9__gnu_cxx17__normal_iteratorIPKN5Nexus3rpc17ServiceDescriptorESt6vectorIS3_SaIS3_EEEdeEv
FN:1052,_ZN9__gnu_cxx17__normal_iteratorIPN5Nexus3rpc17ServiceDescriptorESt6vectorIS3_SaIS3_EEEppEv
FNDA:0,_ZN9__gnu_cxx17__normal_iteratorIPN5Nexus3rpc17ServiceDescriptorESt6vectorIS3_SaIS3_EEEppEv
FN:1052,_ZN9__gnu_cxx17__normal_iteratorIPKN5Nexus3rpc17ServiceDescriptorESt6vectorIS3_SaIS3_EEEppEv
FNDA:37,_ZN9__gnu_cxx17__normal_iteratorIPKN5Nexus3rpc17ServiceDescriptorESt6vectorIS3_SaIS3_EEEppEv
FN:1085,_ZN9__gnu_cxx17__normal_iteratorIPKN5Nexus3rpc17ServiceDescriptorESt6vectorIS3_SaIS3_EEEpLEl
FNDA:0,_ZN9__gnu_cxx17__normal_iteratorIPKN5Nexus3rpc17ServiceDescriptorESt6vectorIS3_SaIS3_EEEpLEl
FN:1090,_ZNK9__gnu_cxx17__normal_iteratorIPN5Nexus3rpc17ServiceDescriptorESt6vectorIS3_SaIS3_EEEplEl
FNDA:96,_ZNK9__gnu_cxx17__normal_iteratorIPN5Nexus3rpc17ServiceDescriptorESt6vectorIS3_SaIS3_EEEplEl
FN:1105,_ZNK9__gnu_cxx17__normal_iteratorIPSt10shared_ptrIN5Nexus3rpc8NodeImplEESt6vectorIS5_SaIS5_EEE4baseEv
FNDA:0,_ZNK9__gnu_cxx17__normal_iteratorIPSt10shared_ptrIN5Nexus3rpc8NodeImplEESt6vectorIS5_SaIS5_EEE4baseEv
FN:1105,_ZNK9__gnu_cxx17__normal_iteratorIPKN5Nexus3rpc17ServiceDescriptorESt6vectorIS3_SaIS3_EEE4baseEv
FNDA:0,_ZNK9__gnu_cxx17__normal_iteratorIPKN5Nexus3rpc17ServiceDescriptorESt6vectorIS3_SaIS3_EEE4baseEv
FN:1105,_ZNK9__gnu_cxx17__normal_iteratorIPN5Nexus3rpc17ServiceDescriptorESt6vectorIS3_SaIS3_EEE4baseEv
FNDA:0,_ZNK9__gnu_cxx17__normal_iteratorIPN5Nexus3rpc17ServiceDescriptorESt6vectorIS3_SaIS3_EEE4baseEv
FN:1163,_ZN9__gnu_cxxeqIPKN5Nexus3rpc17ServiceDescriptorESt6vectorIS3_SaIS3_EEEEbRKNS_17__normal_iteratorIT_T0_EESE_
FNDA:0,_ZN9__gnu_cxxeqIPKN5Nexus3rpc17ServiceDescriptorESt6vectorIS3_SaIS3_EEEEbRKNS_17__normal_iteratorIT_T0_EESE_
FN:1163,_ZN9__gnu_cxxeqIPN5Nexus3rpc17ServiceDescriptorESt6vectorIS3_SaIS3_EEEEbRKNS_17__normal_iteratorIT_T0_EESD_
FNDA:25,_ZN9__gnu_cxxeqIPN5Nexus3rpc17ServiceDescriptorESt6vectorIS3_SaIS3_EEEEbRKNS_17__normal_iteratorIT_T0_EESD_
FN:1179,_ZN9__gnu_cxxneIPN5Nexus3rpc17ServiceDescriptorESt6vectorIS3_SaIS3_EEEEbRKNS_17__normal_iteratorIT_T0_EESD_
FNDA:0,_ZN9__gnu_cxxneIPN5Nexus3rpc17ServiceDescriptorESt6vectorIS3_SaIS3_EEEEbRKNS_17__normal_iteratorIT_T0_EESD_
FN:1179,_ZN9__gnu_cxxneIPKN5Nexus3rpc17ServiceDescriptorESt6vectorIS3_SaIS3_EEEEbRKNS_17__normal_iteratorIT_T0_EESE_
FNDA:95,_ZN9__gnu_cxxneIPKN5Nexus3rpc17ServiceDescriptorESt6vectorIS3_SaIS3_EEEEbRKNS_17__normal_iteratorIT_T0_EESE_
FN:1268,_ZN9__gnu_cxxmiIPKN5Nexus3rpc17ServiceDescriptorESt6vectorIS3_SaIS3_EEEENS_17__normal_iteratorIT_T0_E15difference_typeERKSC_SF_
FNDA:96,_ZN9__gnu_cxxmiIPKN5Nexus3rpc17ServiceDescriptorESt6vectorIS3_SaIS3_EEEENS_17__normal_iteratorIT_T0_E15difference_typeERKSC_SF_
FN:1268,_ZN9__gnu_cxxmiIPSt10shared_ptrIN5Nexus3rpc8NodeImplEESt6vectorIS5_SaIS5_EEEENS_17__normal_iteratorIT_T0_E15difference_typeERKSD_SG_
FNDA:117,_ZN9__gnu_cxxmiIPSt10shared_ptrIN5Nexus3rpc8NodeImplEESt6vectorIS5_SaIS5_EEEENS_17__normal_iteratorIT_T0_E15difference_typeERKSD_SG_
FN:1268,_ZN9__gnu_cxxmiIPN5Nexus3rpc17ServiceDescriptorESt6vectorIS3_SaIS3_EEEENS_17__normal_iteratorIT_T0_E15difference_typeERKSB_SE_
FNDA:0,_ZN9__gnu_cxxmiIPN5Nexus3rpc17ServiceDescriptorESt6vectorIS3_SaIS3_EEEENS_17__normal_iteratorIT_T0_E15difference_typeERKSB_SE_
FN:1291,_ZSt12__niter_baseIPKN5Nexus3rpc17ServiceDescriptorESt6vectorIS2_SaIS2_EEET_N9__gnu_cxx17__normal_iteratorIS8_T0_EE
FNDA:0,_ZSt12__niter_baseIPKN5Nexus3rpc17ServiceDescriptorESt6vectorIS2_SaIS2_EEET_N9__gnu_cxx17__normal_iteratorIS8_T0_EE
FN:1291,_ZSt12__niter_baseIPN5Nexus3rpc17ServiceDescriptorESt6vectorIS2_SaIS2_EEET_N9__gnu_cxx17__normal_iteratorIS7_T0_EE
FNDA:0,_ZSt12__niter_baseIPN5Nexus3rpc17ServiceDescriptorESt6vectorIS2_SaIS2_EEET_N9__gnu_cxx17__normal_iteratorIS7_T0_EE
FN:1439,_ZNSt13move_iteratorIPSt10shared_ptrIN5Nexus3rpc8NodeImplEEEC2ES5_
FNDA:0,_ZNSt13move_iteratorIPSt10shared_ptrIN5Nexus3rpc8NodeImplEEEC2ES5_
FN:1439,_ZNSt13move_iteratorIPN5Nexus3rpc17ServiceDescriptorEEC2ES3_
FNDA:0,_ZNSt13move_iteratorIPN5Nexus3rpc17ServiceDescriptorEEC2ES3_
FN:1464,_ZNKSt13move_iteratorIPN5Nexus3rpc17ServiceDescriptorEE4baseEv
FNDA:0,_ZNKSt13move_iteratorIPN5Nexus3rpc17ServiceDescriptorEE4baseEv
FN:1464,_ZNKSt13move_iteratorIPSt10shared_ptrIN5Nexus3rpc8NodeImplEEE4baseEv
FNDA:0,_ZNKSt13move_iteratorIPSt10shared_ptrIN5Nexus3rpc8NodeImplEEE4baseEv
FN:1477,_ZNKSt13move_iteratorIPSt10shared_ptrIN5Nexus3rpc8NodeImplEEEdeEv
FNDA:0,_ZNKSt13move_iteratorIPSt10shared_ptrIN5Nexus3rpc8NodeImplEEEdeEv
FN:1477,_ZNKSt13move_iteratorIPN5Nexus3rpc17ServiceDescriptorEEdeEv
FNDA:0,_ZNKSt13move_iteratorIPN5Nexus3rpc17ServiceDescriptorEEdeEv
FN:1489,_ZNSt13move_iteratorIPSt10shared_ptrIN5Nexus3rpc8NodeImplEEEppEv
FNDA:0,_ZNSt13move_iteratorIPSt10shared_ptrIN5Nexus3rpc8NodeImplEEEppEv
FN:1489,_ZNSt13move_iteratorIPN5Nexus3rpc17ServiceDescriptorEEppEv
FNDA:0,_ZNSt13move_iteratorIPN5Nexus3rpc17ServiceDescriptorEEppEv
FN:1648,_ZSteqIPSt10shared_ptrIN5Nexus3rpc8NodeImplEEEbRKSt13move_iteratorIT_ESA_
FNDA:0,_ZSteqIPSt10shared_ptrIN5Nexus3rpc8NodeImplEEEbRKSt13move_iteratorIT_ESA_
FN:1648,_ZSteqIPN5Nexus3rpc17ServiceDescriptorEEbRKSt13move_iteratorIT_ES8_
FNDA:0,_ZSteqIPN5Nexus3rpc17ServiceDescriptorEEbRKSt13move_iteratorIT_ES8_
FN:1661,_ZStneIPSt10shared_ptrIN5Nexus3rpc8NodeImplEEEbRKSt13move_iteratorIT_ESA_
FNDA:0,_ZStneIPSt10shared_ptrIN5Nexus3rpc8NodeImplEEEbRKSt13move_iteratorIT_ESA_
FN:1661,_ZStneIPN5Nexus3rpc17ServiceDescriptorEEbRKSt13move_iteratorIT_ES8_
FNDA:0,_ZStneIPN5Nexus3rpc17ServiceDescriptorEEbRKSt13move_iteratorIT_ES8_
FN:1706,_ZSt18make_move_iteratorIPN5Nexus3rpc17ServiceDescriptorEESt13move_iteratorIT_ES5_
FNDA:0,_ZSt18make_move_iteratorIPN5Nexus3rpc17ServiceDescriptorEESt13move_iteratorIT_ES5_
FN:1723,_ZSt32__make_move_if_noexcept_iteratorISt10shared_ptrIN5Nexus3rpc8NodeImplEESt13move_iteratorIPS4_EET0_PT_
FNDA:0,_ZSt32__make_move_if_noexcept_iteratorISt10shared_ptrIN5Nexus3rpc8NodeImplEESt13move_iteratorIPS4_EET0_PT_
FN:1723,_ZSt32__make_move_if_noexcept_iteratorIN5Nexus3rpc17ServiceDescriptorESt13move_iteratorIPS2_EET0_PT_
FNDA:0,_ZSt32__make_move_if_noexcept_iteratorIN5Nexus3rpc17ServiceDescriptorESt13move_iteratorIPS2_EET0_PT_
DA:1027,0
DA:1028,0
DA:1027,0
DA:1028,0
DA:1027,0
DA:1028,0
DA:1033,73
DA:1037,73
DA:1042,37
DA:1043,37
DA:1042,0
DA:1043,0
DA:1052,37
DA:1054,37
DA:1055,37
DA:1052,0
DA:1054,0
DA:1055,0
DA:1085,0
DA:1086,0
DA:1090,96
DA:1091,96
DA:1105,0
DA:1106,0
DA:1105,0
DA:1106,0
DA:1105,0
DA:1106,0
DA:1163,25
DA:1166,25
DA:1163,0
DA:1166,0
DA:1179,95
DA:1182,95
DA:1179,0
DA:1182,0
DA:1268,117
DA:1271,117
DA:1268,0
DA:1271,0
DA:1268,96
DA:1271,96
DA:1291,0
DA:1293,0
DA:1291,0
DA:1293,0
DA:1439,0
DA:1440,0
DA:1439,0
DA:1440,0
DA:1464,0
DA:1465,0
DA:1464,0
DA:1465,0
DA:1477,0
DA:1481,0
DA:1477,0
DA:1481,0
DA:1489,0
DA:1491,0
DA:1492,0
DA:1489,0
DA:1491,0
DA:1492,0
DA:1648,0
DA:1650,0
DA:1648,0
DA:1650,0
DA:1661,0
DA:1663,0
DA:1661,0
DA:1663,0
DA:1706,0
DA:1707,0
DA:1723,0
DA:1724,0
DA:1723,0
DA:1724,0
end_of_record
SF:/usr/include/c++/11/tuple
FN:192,_ZNSt10_Head_baseILm0ERKNSt7__cxx1112basic_stringIcSt11char_traitsIcESaIcEEELb0EEC2ES7_
FNDA:0,_ZNSt10_Head_baseILm0ERKNSt7__cxx1112basic_stringIcSt11char_traitsIcESaIcEEELb0EEC2ES7_
FN:233,_ZNSt10_Head_baseILm0ERKNSt7__cxx1112basic_stringIcSt11char_traitsIcESaIcEEELb0EE7_M_headERS8_
FNDA:0,_ZNSt10_Head_baseILm0ERKNSt7__cxx1112basic_stringIcSt11char_traitsIcESaIcEEELb0EE7_M_headERS8_
FN:424,_ZNSt11_Tuple_implILm0EJRKNSt7__cxx1112basic_stringIcSt11char_traitsIcESaIcEEEEE7_M_headERS8_
FNDA:0,_ZNSt11_Tuple_implILm0EJRKNSt7__cxx1112basic_stringIcSt11char_traitsIcESaIcEEEEE7_M_headERS8_
FN:434,_ZNSt11_Tuple_implILm0EJRKNSt7__cxx1112basic_stringIcSt11char_traitsIcESaIcEEEEEC2ES7_
FNDA:0,_ZNSt11_Tuple_implILm0EJRKNSt7__cxx1112basic_stringIcSt11char_traitsIcESaIcEEEEEC2ES7_
FN:454,_ZNSt11_Tuple_implILm0EJRKNSt7__cxx1112basic_stringIcSt11char_traitsIcESaIcEEEEEC2EOS8_
FNDA:0,_ZNSt11_Tuple_implILm0EJRKNSt7__cxx1112basic_stringIcSt11char_traitsIcESaIcEEEEEC2EOS8_
FN:727,_ZNSt5tupleIJRKNSt7__cxx1112basic_stringIcSt11char_traitsIcESaIcEEEEEC2ILb1ELb1EEES7_
FNDA:0,_ZNSt5tupleIJRKNSt7__cxx1112basic_stringIcSt11char_traitsIcESaIcEEEEEC2ILb1ELb1EEES7_
FN:756,_ZNSt5tupleIJRKNSt7__cxx1112basic_stringIcSt11char_traitsIcESaIcEEEEEC2EOS8_
FNDA:0,_ZNSt5tupleIJRKNSt7__cxx1112basic_stringIcSt11char_traitsIcESaIcEEEEEC2EOS8_
FN:1377,_ZSt12__get_helperILm0ERKNSt7__cxx1112basic_stringIcSt11char_traitsIcESaIcEEEJEERT0_RSt11_Tuple_implIXT_EJS8_DpT1_EE
FNDA:0,_ZSt12__get_helperILm0ERKNSt7__cxx1112basic_stringIcSt11char_traitsIcESaIcEEEJEERT0_RSt11_Tuple_implIXT_EJS8_DpT1_EE
FN:1393,_ZSt3getILm0EJRKNSt7__cxx1112basic_stringIcSt11char_traitsIcESaIcEEEEERNSt13tuple_elementIXT_ESt5tupleIJDpT0_EEE4typeERSC_
FNDA:0,_ZSt3getILm0EJRKNSt7__cxx1112basic_stringIcSt11char_traitsIcESaIcEEEEERNSt13tuple_elementIXT_ESt5tupleIJDpT0_EEE4typeERSC_
FN:1804,_ZNSt4pairIKNSt7__cxx1112basic_stringIcSt11char_traitsIcESaIcEEESt6vectorIN5Nexus3rpc17ServiceDescriptorESaISA_EEEC2IJRS6_EJEEESt21piecewise_construct_tSt5tupleIJDpT_EESH_IJDpT0_EE
FNDA:23,_ZNSt4pairIKNSt7__cxx1112basic_stringIcSt11char_traitsIcESaIcEEESt6vectorIN5Nexus3rpc17ServiceDescriptorESaISA_EEEC2IJRS6_EJEEESt21piecewise_construct_tSt5tupleIJDpT_EESH_IJDpT0_EE
FN:1804,_ZNSt4pairIKNSt7__cxx1112basic_stringIcSt11char_traitsIcESaIcEEESt8weak_ptrIN5Nexus3rpc8NodeImplEEEC2IJRS6_EJEEESt21piecewise_construct_tSt5tupleIJDpT_EESG_IJDpT0_EE
FNDA:55,_ZNSt4pairIKNSt7__cxx1112basic_stringIcSt11char_traitsIcESaIcEEESt8weak_ptrIN5Nexus3rpc8NodeImplEEEC2IJRS6_EJEEESt21piecewise_construct_tSt5tupleIJDpT_EESG_IJDpT0_EE
FN:1816,_ZNSt4pairIKNSt7__cxx1112basic_stringIcSt11char_traitsIcESaIcEEESt6vectorIN5Nexus3rpc17ServiceDescriptorESaISA_EEEC2IJRS6_EJLm0EEJEJEEERSt5tupleIJDpT_EERSG_IJDpT1_EESt12_Index_tupleIJXspT0_EEESP_IJXspT2_EEE
FNDA:23,_ZNSt4pairIKNSt7__cxx1112basic_stringIcSt11char_traitsIcESaIcEEESt6vectorIN5Nexus3rpc17ServiceDescriptorESaISA_EEEC2IJRS6_EJLm0EEJEJEEERSt5tupleIJDpT_EERSG_IJDpT1_EESt12_Index_tupleIJXspT0_EEESP_IJXspT2_EEE
FN:1816,_ZNSt4pairIKNSt7__cxx1112basic_stringIcSt11char_traitsIcESaIcEEESt8weak_ptrIN5Nexus3rpc8NodeImplEEEC2IJRS6_EJLm0EEJEJEEERSt5tupleIJDpT_EERSF_IJDpT1_EESt12_Index_tupleIJXspT0_EEESO_IJXspT2_EEE
FNDA:55,_ZNSt4pairIKNSt7__cxx1112basic_stringIcSt11char_traitsIcESaIcEEESt8weak_ptrIN5Nexus3rpc8NodeImplEEEC2IJRS6_EJLm0EEJEJEEERSt5tupleIJDpT_EERSF_IJDpT1_EESt12_Index_tupleIJXspT0_EEESO_IJXspT2_EEE
DA:192,0
DA:193,0
DA:233,0
DA:424,0
DA:434,0
DA:435,0
DA:436,0
DA:454,0
DA:456,0
DA:457,0
DA:727,0
DA:729,0
DA:756,0
DA:1377,0
DA:1378,0
DA:1393,0
DA:1394,0
DA:1804,23
DA:1809,23
DA:1810,23
DA:1804,55
DA:1809,55
DA:1810,55
DA:1816,23
DA:1819,23
DA:1820,23
DA:1821,23
DA:1816,55
DA:1819,55
DA:1820,55
DA:1821,55
end_of_record
SF:/usr/include/c++/11/bits/move.h
FN:49,_ZSt11__addressofIN5Nexus3rpc17ServiceDescriptorEEPT_RS3_
FNDA:0,_ZSt11__addressofIN5Nexus3rpc17ServiceDescriptorEEPT_RS3_
FN:49,_ZSt11__addressofISt10shared_ptrIN5Nexus3rpc8NodeImplEEEPT_RS5_
FNDA:0,_ZSt11__addressofISt10shared_ptrIN5Nexus3rpc8NodeImplEEEPT_RS5_
FN:77,_ZSt7forwardIN5Nexus3rpc17ServiceDescriptorEEOT_RNSt16remove_referenceIS3_E4typeE
FNDA:0,_ZSt7forwardIN5Nexus3rpc17ServiceDescriptorEEOT_RNSt16remove_referenceIS3_E4typeE
FN:77,_ZSt7forwardIRKSt21piecewise_construct_tEOT_RNSt16remove_referenceIS3_E4typeE
FNDA:0,_ZSt7forwardIRKSt21piecewise_construct_tEOT_RNSt16remove_referenceIS3_E4typeE
FN:77,_ZSt7forwardISt5tupleIJRKNSt7__cxx1112basic_stringIcSt11char_traitsIcESaIcEEEEEEOT_RNSt16remove_referenceISA_E4typeE
FNDA:0,_ZSt7forwardISt5tupleIJRKNSt7__cxx1112basic_stringIcSt11char_traitsIcESaIcEEEEEEOT_RNSt16remove_referenceISA_E4typeE
FN:77,_ZSt7forwardISt5tupleIJEEEOT_RNSt16remove_referenceIS2_E4typeE
FNDA:0,_ZSt7forwardISt5tupleIJEEEOT_RNSt16remove_referenceIS2_E4typeE
FN:77,_ZSt7forwardIRKSt10shared_ptrIN5Nexus3rpc8NodeImplEEEOT_RNSt16remove_referenceIS7_E4typeE
FNDA:351,_ZSt7forwardIRKSt10shared_ptrIN5Nexus3rpc8NodeImplEEEOT_RNSt16remove_referenceIS7_E4typeE
FN:77,_ZSt7forwardIRKN5Nexus3rpc17ServiceDescriptorEEOT_RNSt16remove_referenceIS5_E4typeE
FNDA:0,_ZSt7forwardIRKN5Nexus3rpc17ServiceDescriptorEEOT_RNSt16remove_referenceIS5_E4typeE
FN:77,_ZSt7forwardIRPSt18_Rb_tree_node_baseEOT_RNSt16remove_referenceIS3_E4typeE
FNDA:0,_ZSt7forwardIRPSt18_Rb_tree_node_baseEOT_RNSt16remove_referenceIS3_E4typeE
FN:77,_ZSt7forwardISt17_Rb_tree_iteratorISt4pairIKNSt7__cxx1112basic_stringIcSt11char_traitsIcESaIcEEESt8weak_ptrIN5Nexus3rpc8NodeImplEEEEEOT_RNSt16remove_referenceISG_E4typeE
FNDA:114,_ZSt7forwardISt17_Rb_tree_iteratorISt4pairIKNSt7__cxx1112basic_stringIcSt11char_traitsIcESaIcEEESt8weak_ptrIN5Nexus3rpc8NodeImplEEEEEOT_RNSt16remove_referenceISG_E4typeE
FN:77,_ZSt7forwardIRPSt13_Rb_tree_nodeISt4pairIKNSt7__cxx1112basic_stringIcSt11char_traitsIcESaIcEEESt8weak_ptrIN5Nexus3rpc8NodeImplEEEEEOT_RNSt16remove_referenceISI_E4typeE
FNDA:51,_ZSt7forwardIRPSt13_Rb_tree_nodeISt4pairIKNSt7__cxx1112basic_stringIcSt11char_traitsIcESaIcEEESt8weak_ptrIN5Nexus3rpc8NodeImplEEEEEOT_RNSt16remove_referenceISI_E4typeE
FN:77,_ZSt7forwardIRPSt13_Rb_tree_nodeISt4pairIKNSt7__cxx1112basic_stringIcSt11char_traitsIcESaIcEEESt6vectorIN5Nexus3rpc17ServiceDescriptorESaISC_EEEEEOT_RNSt16remove_referenceISJ_E4typeE
FNDA:23,_ZSt7forwardIRPSt13_Rb_tree_nodeISt4pairIKNSt7__cxx1112basic_stringIcSt11char_traitsIcESaIcEEESt6vectorIN5Nexus3rpc17ServiceDescriptorESaISC_EEEEEOT_RNSt16remove_referenceISJ_E4typeE
FN:77,_ZSt7forwardIRN5Nexus3rpc17ServiceDescriptorEEOT_RNSt16remove_referenceIS4_E4typeE
FNDA:0,_ZSt7forwardIRN5Nexus3rpc17ServiceDescriptorEEOT_RNSt16remove_referenceIS4_E4typeE
FN:77,_ZSt7forwardISt10shared_ptrIN5Nexus3rpc8NodeImplEEEOT_RNSt16remove_referenceIS5_E4typeE
FNDA:36,_ZSt7forwardISt10shared_ptrIN5Nexus3rpc8NodeImplEEEOT_RNSt16remove_referenceIS5_E4typeE
FN:77,_ZSt7forwardIRKNSt7__cxx1112basic_stringIcSt11char_traitsIcESaIcEEEEOT_RNSt16remove_referenceIS8_E4typeE
FNDA:0,_ZSt7forwardIRKNSt7__cxx1112basic_stringIcSt11char_traitsIcESaIcEEEEOT_RNSt16remove_referenceIS8_E4typeE
FN:104,_ZSt4moveIRPSt10shared_ptrIN5Nexus3rpc8NodeImplEEEONSt16remove_referenceIT_E4typeEOS8_
FNDA:0,_ZSt4moveIRPSt10shared_ptrIN5Nexus3rpc8NodeImplEEEONSt16remove_referenceIT_E4typeEOS8_
FN:104,_ZSt4moveIRZN5Nexus3rpc14GlobalRegistry17unregisterServiceERKNSt7__cxx1112basic_stringIcSt11char_traitsIcESaIcEEERKNS1_17ServiceDescriptorEEUlSD_E_EONSt16remove_referenceIT_E4typeEOSH_
FNDA:22,_ZSt4moveIRZN5Nexus3rpc14GlobalRegistry17unregisterServiceERKNSt7__cxx1112basic_stringIcSt11char_traitsIcESaIcEEERKNS1_17ServiceDescriptorEEUlSD_E_EONSt16remove_referenceIT_E4typeEOSH_
FN:104,_ZSt4moveIRPN5Nexus3rpc17ServiceDescriptorEEONSt16remove_referenceIT_E4typeEOS6_
FNDA:0,_ZSt4moveIRPN5Nexus3rpc17ServiceDescriptorEEONSt16remove_referenceIT_E4typeEOS6_
FN:104,_ZSt4moveIRN5Nexus3rpc17ServiceDescriptorEEONSt16remove_referenceIT_E4typeEOS5_
FNDA:0,_ZSt4moveIRN5Nexus3rpc17ServiceDescriptorEEONSt16remove_referenceIT_E4typeEOS5_
FN:104,_ZSt4moveIRZN5Nexus3rpc14GlobalRegistry14unregisterNodeERKNSt7__cxx1112basic_stringIcSt11char_traitsIcESaIcEEEEUlRKNS1_17ServiceDescriptorEE_EONSt16remove_referenceIT_E4typeEOSH_
FNDA:28,_ZSt4moveIRZN5Nexus3rpc14GlobalRegistry14unregisterNodeERKNSt7__cxx1112basic_stringIcSt11char_traitsIcESaIcEEEEUlRKNS1_17ServiceDescriptorEE_EONSt16remove_referenceIT_E4typeEOSH_
FN:104,_ZSt4moveIRSt10shared_ptrIN5Nexus3rpc8NodeImplEEEONSt16remove_referenceIT_E4typeEOS7_
FNDA:0,_ZSt4moveIRSt10shared_ptrIN5Nexus3rpc8NodeImplEEEONSt16remove_referenceIT_E4typeEOS7_
FN:104,_ZSt4moveIRNSt7__cxx1112basic_stringIcSt11char_traitsIcESaIcEEEEONSt16remove_referenceIT_E4typeEOS8_
FNDA:0,_ZSt4moveIRNSt7__cxx1112basic_stringIcSt11char_traitsIcESaIcEEEEONSt16remove_referenceIT_E4typeEOS8_
FN:104,_ZSt4moveIRSaIcEEONSt16remove_referenceIT_E4typeEOS3_
FNDA:0,_ZSt4moveIRSaIcEEONSt16remove_referenceIT_E4typeEOS3_
DA:49,0
DA:50,0
DA:49,0
DA:50,0
DA:77,0
DA:78,0
DA:77,0
DA:78,0
DA:77,36
DA:78,36
DA:77,0
DA:78,0
DA:77,23
DA:78,23
DA:77,51
DA:78,51
DA:77,114
DA:78,114
DA:77,0
DA:78,0
DA:77,0
DA:78,0
DA:77,351
DA:78,351
DA:77,0
DA:78,0
DA:77,0
DA:78,0
DA:77,0
DA:78,0
DA:104,0
DA:105,0
DA:104,0
DA:105,0
DA:104,22
DA:105,22
DA:104,0
DA:105,0
DA:104,28
DA:105,28
DA:104,0
DA:105,0
DA:104,0
DA:105,0
DA:104,0
DA:105,0
end_of_record
TN:
SF:/usr/include/c++/11/bits/char_traits.h
FN:393,_ZNSt11char_traitsIcE6lengthEPKc
FNDA:0,_ZNSt11char_traitsIcE6lengthEPKc
DA:393,0
DA:399,0
end_of_record
SF:/usr/include/c++/11/bits/ios_base.h
FN:83,_ZStanSt13_Ios_FmtflagsS_
FNDA:0,_ZStanSt13_Ios_FmtflagsS_
FN:169,_ZStorSt12_Ios_IostateS_
FNDA:0,_ZStorSt12_Ios_IostateS_
FN:181,_ZStoRRSt12_Ios_IostateS_
FNDA:0,_ZStoRRSt12_Ios_IostateS_
FN:649,_ZNKSt8ios_base5flagsEv
FNDA:0,_ZNKSt8ios_base5flagsEv
FN:793,_ZNKSt8ios_base6getlocEv
FNDA:2087,_ZNKSt8ios_base6getlocEv
DA:83,0
DA:84,0
DA:169,0
DA:170,0
DA:181,0
DA:182,0
DA:649,0
DA:650,0
DA:793,2087
DA:794,2087
end_of_record
SF:/home/fz296w/workspace/Nexus/Nexus/src/utils/Logger.cpp
FN:8,_ZN5Nexus3rpc6Logger8instanceEv
FNDA:6872,_ZN5Nexus3rpc6Logger8instanceEv
FN:13,_ZN5Nexus3rpc6LoggerC2Ev
FNDA:5,_ZN5Nexus3rpc6LoggerC2Ev
FN:30,_ZN5Nexus3rpc6Logger8setLevelENS1_5LevelE
FNDA:6,_ZN5Nexus3rpc6Logger8setLevelENS1_5LevelE
FN:35,_ZNK5Nexus3rpc6Logger8getLevelEv
FNDA:4,_ZNK5Nexus3rpc6Logger8getLevelEv
FN:40,_ZN5Nexus3rpc6Logger16setShowTimestampEb
FNDA:0,_ZN5Nexus3rpc6Logger16setShowTimestampEb
FN:45,_ZN5Nexus3rpc6Logger16setShowComponentEb
FNDA:0,_ZN5Nexus3rpc6Logger16setShowComponentEb
FN:50,_ZNK5Nexus3rpc6Logger13levelToStringENS1_5LevelE
FNDA:2087,_ZNK5Nexus3rpc6Logger13levelToStringENS1_5LevelE
FN:65,_ZNK5Nexus3rpc6Logger12getTimestampB5cxx11Ev
FNDA:2087,_ZNK5Nexus3rpc6Logger12getTimestampB5cxx11Ev
FN:82,_ZN5Nexus3rpc6Logger3logENS1_5LevelERKNSt7__cxx1112basic_stringIcSt11char_traitsIcESaIcEEESA_
FNDA:6866,_ZN5Nexus3rpc6Logger3logENS1_5LevelERKNSt7__cxx1112basic_stringIcSt11char_traitsIcESaIcEEESA_
DA:8,6872
DA:9,6872
DA:10,6872
DA:13,5
DA:15,5
DA:16,0
DA:17,0
DA:18,0
DA:19,0
DA:20,0
DA:21,0
DA:22,0
DA:23,0
DA:24,0
DA:25,0
DA:26,0
DA:27,0
DA:28,5
DA:30,6
DA:31,6
DA:32,6
DA:33,6
DA:35,4
DA:36,4
DA:37,4
DA:38,4
DA:40,0
DA:41,0
DA:42,0
DA:43,0
DA:45,0
DA:46,0
DA:47,0
DA:48,0
DA:50,2087
DA:51,2087
DA:52,528
DA:53,528
DA:54,1400
DA:55,1400
DA:56,35
DA:57,35
DA:58,124
DA:59,124
DA:60,0
DA:61,0
DA:65,2087
DA:66,2087
DA:67,2087
DA:68,2087
DA:74,2087
DA:77,2087
DA:78,2087
DA:79,4174
DA:80,2087
DA:82,6866
DA:83,6866
DA:85,6868
DA:86,4781
DA:89,2087
DA:91,2087
DA:92,2087
DA:95,2087
DA:97,2087
DA:98,2087
DA:101,2087
DA:102,6868
end_of_record
SF:/usr/include/c++/11/bits/streambuf_iterator.h
FN:277,_ZNSt19ostreambuf_iteratorIcSt11char_traitsIcEEC2EPSt15basic_streambufIcS1_E
FNDA:2087,_ZNSt19ostreambuf_iteratorIcSt11char_traitsIcEEC2EPSt15basic_streambufIcS1_E
FN:307,_ZNKSt19ostreambuf_iteratorIcSt11char_traitsIcEE6failedEv
FNDA:2087,_ZNKSt19ostreambuf_iteratorIcSt11char_traitsIcEE6failedEv
DA:277,2087
DA:278,2087
DA:307,2087
DA:308,2087
end_of_record
SF:/usr/include/c++/11/bits/stl_iterator_base_funcs.h
FN:98,_ZSt10__distanceIPKcENSt15iterator_traitsIT_E15difference_typeES3_S3_St26random_access_iterator_tag
FNDA:0,_ZSt10__distanceIPKcENSt15iterator_traitsIT_E15difference_typeES3_S3_St26random_access_iterator_tag
FN:138,_ZSt8distanceIPKcENSt15iterator_traitsIT_E15difference_typeES3_S3_
FNDA:0,_ZSt8distanceIPKcENSt15iterator_traitsIT_E15difference_typeES3_S3_
DA:98,0
DA:104,0
DA:138,0
DA:141,0
DA:142,0
end_of_record
SF:/usr/include/c++/11/bits/stl_iterator_base_types.h
FN:238,_ZSt19__iterator_categoryIPKcENSt15iterator_traitsIT_E17iterator_categoryERKS3_
FNDA:0,_ZSt19__iterator_categoryIPKcENSt15iterator_traitsIT_E17iterator_categoryERKS3_
DA:238,0
DA:239,0
end_of_record
SF:/usr/include/x86_64-linux-gnu/c++/11/bits/gthr-default.h
FN:300,_ZL18__gthread_active_pv
FNDA:0,_ZL18__gthread_active_pv
FN:746,_ZL20__gthread_mutex_lockP15pthread_mutex_t
FNDA:0,_ZL20__gthread_mutex_lockP15pthread_mutex_t
FN:776,_ZL22__gthread_mutex_unlockP15pthread_mutex_t
FNDA:0,_ZL22__gthread_mutex_unlockP15pthread_mutex_t
DA:300,0
DA:302,0
DA:746,0
DA:748,0
DA:749,0
DA:751,0
DA:776,0
DA:778,0
DA:779,0
DA:781,0
end_of_record
SF:/usr/include/c++/11/bits/basic_string.h
FN:6248,_ZSteqIcSt11char_traitsIcESaIcEEbRKNSt7__cxx1112basic_stringIT_T0_T1_EEPKS5_
FNDA:0,_ZSteqIcSt11char_traitsIcESaIcEEbRKNSt7__cxx1112basic_stringIT_T0_T1_EEPKS5_
DA:6248,0
DA:6250,0
end_of_record
SF:/usr/include/c++/11/ext/new_allocator.h
FN:79,_ZN9__gnu_cxx13new_allocatorIcEC2Ev
FNDA:0,_ZN9__gnu_cxx13new_allocatorIcEC2Ev
FN:89,_ZN9__gnu_cxx13new_allocatorIcED2Ev
FNDA:0,_ZN9__gnu_cxx13new_allocatorIcED2Ev
DA:79,0
DA:89,0
end_of_record
SF:/usr/include/c++/11/iomanip
FN:165,_ZSt7setfillIcESt8_SetfillIT_ES1_
FNDA:0,_ZSt7setfillIcESt8_SetfillIT_ES1_
FN:225,_ZSt4setwi
FNDA:0,_ZSt4setwi
FN:358,_ZSt8put_timeIcESt9_Put_timeIT_EPK2tmPKS1_
FNDA:2087,_ZSt8put_timeIcESt9_Put_timeIT_EPK2tmPKS1_
FN:363,_ZStlsIcSt11char_traitsIcEERSt13basic_ostreamIT_T0_ES6_St9_Put_timeIS3_E
FNDA:2087,_ZStlsIcSt11char_traitsIcEERSt13basic_ostreamIT_T0_ES6_St9_Put_timeIS3_E
DA:165,0
DA:166,0
DA:225,0
DA:226,0
DA:358,2087
DA:359,2087
DA:363,2087
DA:365,2087
DA:366,2087
DA:368,2087
DA:374,4174
DA:375,2087
DA:377,2087
DA:378,4174
DA:379,2087
DA:380,0
DA:382,0
DA:384,0
DA:385,0
DA:387,0
DA:388,0
DA:389,2087
DA:390,0
DA:392,2087
DA:393,2087
end_of_record
SF:/usr/include/c++/11/chrono
FN:223,_ZNSt6chrono20__duration_cast_implINS_8durationIlSt5ratioILl1ELl1EEEES2_ILl1ELl1000000000EElLb1ELb0EE6__castIlS5_EES4_RKNS1_IT_T0_EE
FNDA:0,_ZNSt6chrono20__duration_cast_implINS_8durationIlSt5ratioILl1ELl1EEEES2_ILl1ELl1000000000EElLb1ELb0EE6__castIlS5_EES4_RKNS1_IT_T0_EE
FN:223,_ZNSt6chrono20__duration_cast_implINS_8durationIlSt5ratioILl1ELl1000EEEES2_ILl1ELl1000000EElLb1ELb0EE6__castIlS2_ILl1ELl1000000000EEEES4_RKNS1_IT_T0_EE
FNDA:0,_ZNSt6chrono20__duration_cast_implINS_8durationIlSt5ratioILl1ELl1000EEEES2_ILl1ELl1000000EElLb1ELb0EE6__castIlS2_ILl1ELl1000000000EEEES4_RKNS1_IT_T0_EE
FN:267,_ZNSt6chrono13duration_castINS_8durationIlSt5ratioILl1ELl1EEEElS2_ILl1ELl1000000000EEEENSt9enable_ifIXsrNS_13__is_durationIT_EE5valueES8_E4typeERKNS1_IT0_T1_EE
FNDA:0,_ZNSt6chrono13duration_castINS_8durationIlSt5ratioILl1ELl1EEEElS2_ILl1ELl1000000000EEEENSt9enable_ifIXsrNS_13__is_durationIT_EE5valueES8_E4typeERKNS1_IT0_T1_EE
FN:267,_ZNSt6chrono13duration_castINS_8durationIlSt5ratioILl1ELl1000EEEElS2_ILl1ELl1000000000EEEENSt9enable_ifIXsrNS_13__is_durationIT_EE5valueES8_E4typeERKNS1_IT0_T1_EE
FNDA:0,_ZNSt6chrono13duration_castINS_8durationIlSt5ratioILl1ELl1000EEEElS2_ILl1ELl1000000000EEEENSt9enable_ifIXsrNS_13__is_durationIT_EE5valueES8_E4typeERKNS1_IT0_T1_EE
FN:521,_ZNSt6chrono8durationIlSt5ratioILl1ELl1000EEEC2IlvEERKT_
FNDA:0,_ZNSt6chrono8durationIlSt5ratioILl1ELl1000EEEC2IlvEERKT_
FN:521,_ZNSt6chrono8durationIlSt5ratioILl1ELl1EEEC2IlvEERKT_
FNDA:0,_ZNSt6chrono8durationIlSt5ratioILl1ELl1EEEC2IlvEERKT_
FN:537,_ZNKSt6chrono8durationIlSt5ratioILl1ELl1EEE5countEv
FNDA:0,_ZNKSt6chrono8durationIlSt5ratioILl1ELl1EEE5countEv
FN:537,_ZNKSt6chrono8durationIlSt5ratioILl1ELl1000EEE5countEv
FNDA:0,_ZNKSt6chrono8durationIlSt5ratioILl1ELl1000EEE5countEv
FN:537,_ZNKSt6chrono8durationIlSt5ratioILl1ELl1000000000EEE5countEv
FNDA:0,_ZNKSt6chrono8durationIlSt5ratioILl1ELl1000000000EEE5countEv
FN:729,_ZNSt6chronormIlSt5ratioILl1ELl1000EEiEENS_8durationINSt9enable_ifIXsrSt14is_convertibleIRKNS4_IXntsrNS_13__is_durationIT1_EE5valueES7_E4typeENSt11common_typeIJT_SA_EE4typeEE5valueESG_E4typeET0_EERKNS3_ISE_SK_EERKS7_
FNDA:2087,_ZNSt6chronormIlSt5ratioILl1ELl1000EEiEENS_8durationINSt9enable_ifIXsrSt14is_convertibleIRKNS4_IXntsrNS_13__is_durationIT1_EE5valueES7_E4typeENSt11common_typeIJT_SA_EE4typeEE5valueESG_E4typeET0_EERKNS3_ISE_SK_EERKS7_
FN:898,_ZNKSt6chrono10time_pointINS_3_V212system_clockENS_8durationIlSt5ratioILl1ELl1000000000EEEEE16time_since_epochEv
FNDA:0,_ZNKSt6chrono10time_pointINS_3_V212system_clockENS_8durationIlSt5ratioILl1ELl1000000000EEEEE16time_since_epochEv
FN:1143,_ZNSt6chrono3_V212system_clock9to_time_tERKNS_10time_pointIS1_NS_8durationIlSt5ratioILl1ELl1000000000EEEEEE
FNDA:2087,_ZNSt6chrono3_V212system_clock9to_time_tERKNS_10time_pointIS1_NS_8durationIlSt5ratioILl1ELl1000000000EEEEEE
DA:223,0
DA:226,0
DA:227,0
DA:223,0
DA:226,0
DA:227,0
DA:267,0
DA:276,0
DA:267,0
DA:276,0
DA:521,0
DA:522,0
DA:521,0
DA:522,0
DA:537,0
DA:538,0
DA:537,0
DA:538,0
DA:537,0
DA:538,0
DA:729,2087
DA:733,2087
DA:898,0
DA:899,0
DA:1143,2087
DA:1146,2087
end_of_record
SF:/usr/include/c++/11/iostream
end_of_record
SF:/usr/include/c++/11/bits/std_mutex.h
FN:65,_ZNSt12__mutex_baseC2Ev
FNDA:0,_ZNSt12__mutex_baseC2Ev
FN:91,_ZNSt5mutexC2Ev
FNDA:0,_ZNSt5mutexC2Ev
FN:98,_ZNSt5mutex4lockEv
FNDA:0,_ZNSt5mutex4lockEv
FN:115,_ZNSt5mutex6unlockEv
FNDA:0,_ZNSt5mutex6unlockEv
FN:228,_ZNSt10lock_guardISt5mutexEC2ERS0_
FNDA:0,_ZNSt10lock_guardISt5mutexEC2ERS0_
FN:234,_ZNSt10lock_guardISt5mutexED2Ev
FNDA:0,_ZNSt10lock_guardISt5mutexED2Ev
DA:65,0
DA:91,0
DA:98,0
DA:100,0
DA:103,0
DA:104,0
DA:105,0
DA:115,0
DA:118,0
DA:119,0
DA:228,0
DA:229,0
DA:234,0
DA:235,0
end_of_record
SF:/usr/include/c++/11/ext/type_traits.h
FN:152,_ZN9__gnu_cxx17__is_null_pointerIKcEEbPT_
FNDA:0,_ZN9__gnu_cxx17__is_null_pointerIKcEEbPT_
DA:152,0
DA:153,0
end_of_record
SF:/usr/include/c++/11/bits/basic_string.tcc
FN:206,_ZNSt7__cxx1112basic_stringIcSt11char_traitsIcESaIcEE12_M_constructIPKcEEvT_S8_St20forward_iterator_tag
FNDA:0,_ZNSt7__cxx1112basic_stringIcSt11char_traitsIcESaIcEE12_M_constructIPKcEEvT_S8_St20forward_iterator_tag
DA:206,0
DA:211,0
DA:212,0
DA:215,0
DA:217,0
DA:219,0
DA:220,0
DA:225,0
DA:226,0
DA:228,0
DA:229,0
DA:232,0
DA:233,0
end_of_record
TN:
SF:/home/fz296w/workspace/Nexus/Nexus/src/core/Config.cpp
FN:12,_ZN5Nexus3rpc12_GLOBAL__N_15clampImEERKT_S5_S5_S5_
FNDA:6,_ZN5Nexus3rpc12_GLOBAL__N_15clampImEERKT_S5_S5_S5_
FN:17,_ZN5Nexus3rpc6Config8instanceEv
FNDA:65,_ZN5Nexus3rpc6Config8instanceEv
FN:22,_ZN5Nexus3rpc6Config11loadFromEnvEv
FNDA:4,_ZN5Nexus3rpc6Config11loadFromEnvEv
FN:63,_ZNK5Nexus3rpc6Config24calculateMemoryFootprintEv
FNDA:2,_ZNK5Nexus3rpc6Config24calculateMemoryFootprintEv
DA:12,6
DA:13,6
DA:17,65
DA:19,65
DA:22,4
DA:24,4
DA:25,2
DA:28,4
DA:29,2
DA:32,4
DA:33,2
DA:36,4
DA:37,2
DA:41,4
DA:42,0
DA:45,4
DA:46,0
DA:49,4
DA:50,0
DA:54,4
DA:55,0
DA:58,4
DA:59,0
DA:61,4
DA:63,2
DA:65,2
DA:68,2
DA:71,2
DA:73,2
end_of_record
TN:
SF:/usr/include/c++/11/tuple
FN:80,_ZNSt10_Head_baseILm1ESt14default_deleteINSt6thread6_StateEELb1EEC2Ev
FNDA:24,_ZNSt10_Head_baseILm1ESt14default_deleteINSt6thread6_StateEELb1EEC2Ev
FN:80,_ZNSt10_Head_baseILm1ESt14default_deleteIN5Nexus3rpc12UdpTransportEELb1EEC2Ev
FNDA:71,_ZNSt10_Head_baseILm1ESt14default_deleteIN5Nexus3rpc12UdpTransportEELb1EEC2Ev
FN:80,_ZNSt10_Head_baseILm1ESt14default_deleteIN5Nexus3rpc23SharedMemoryTransportV3EELb1EEC2Ev
FNDA:6,_ZNSt10_Head_baseILm1ESt14default_deleteIN5Nexus3rpc23SharedMemoryTransportV3EELb1EEC2Ev
FN:124,_ZNSt10_Head_baseILm1ESt14default_deleteINSt6thread6_StateEELb1EE7_M_headERS4_
FNDA:0,_ZNSt10_Head_baseILm1ESt14default_deleteINSt6thread6_StateEELb1EE7_M_headERS4_
FN:124,_ZNSt10_Head_baseILm1ESt14default_deleteIN5Nexus3rpc12UdpTransportEELb1EE7_M_headERS5_
FNDA:48,_ZNSt10_Head_baseILm1ESt14default_deleteIN5Nexus3rpc12UdpTransportEELb1EE7_M_headERS5_
FN:124,_ZNSt10_Head_baseILm1ESt14default_deleteIN5Nexus3rpc23SharedMemoryTransportV3EELb1EE7_M_headERS5_
FNDA:9,_ZNSt10_Head_baseILm1ESt14default_deleteIN5Nexus3rpc23SharedMemoryTransportV3EELb1EE7_M_headERS5_
FN:189,_ZNSt10_Head_baseILm0EPN5Nexus3rpc12UdpTransportELb0EEC2Ev
FNDA:71,_ZNSt10_Head_baseILm0EPN5Nexus3rpc12UdpTransportELb0EEC2Ev
FN:189,_ZNSt10_Head_baseILm0EPNSt6thread6_StateELb0EEC2Ev
FNDA:24,_ZNSt10_Head_baseILm0EPNSt6thread6_StateELb0EEC2Ev
FN:189,_ZNSt10_Head_baseILm0EPN5Nexus3rpc23SharedMemoryTransportV3ELb0EEC2Ev
FNDA:6,_ZNSt10_Head_baseILm0EPN5Nexus3rpc23SharedMemoryTransportV3ELb0EEC2Ev
FN:192,_ZNSt10_Head_baseILm0ERKNSt7__cxx1112basic_stringIcSt11char_traitsIcESaIcEEELb0EEC2ES7_
FNDA:170,_ZNSt10_Head_baseILm0ERKNSt7__cxx1112basic_stringIcSt11char_traitsIcESaIcEEELb0EEC2ES7_
FN:199,_ZNSt10_Head_baseILm0EMN5Nexus3rpc8NodeImplEFvvELb0EEC2IS4_EEOT_
FNDA:122,_ZNSt10_Head_baseILm0EMN5Nexus3rpc8NodeImplEFvvELb0EEC2IS4_EEOT_
FN:199,_ZNSt10_Head_baseILm1EPN5Nexus3rpc8NodeImplELb0EEC2IS3_EEOT_
FNDA:334,_ZNSt10_Head_baseILm1EPN5Nexus3rpc8NodeImplELb0EEC2IS3_EEOT_
FN:199,_ZNSt10_Head_baseILm0EMN5Nexus3rpc8NodeImplEFvmELb0EEC2IS4_EEOT_
FNDA:212,_ZNSt10_Head_baseILm0EMN5Nexus3rpc8NodeImplEFvmELb0EEC2IS4_EEOT_
FN:199,_ZNSt10_Head_baseILm2EmLb0EEC2IRmEEOT_
FNDA:212,_ZNSt10_Head_baseILm2EmLb0EEC2IRmEEOT_
FN:233,_ZNSt10_Head_baseILm0EPN5Nexus3rpc23SharedMemoryTransportV3ELb0EE7_M_headERS4_
FNDA:21,_ZNSt10_Head_baseILm0EPN5Nexus3rpc23SharedMemoryTransportV3ELb0EE7_M_headERS4_
FN:233,_ZNSt10_Head_baseILm0EPN5Nexus3rpc12UdpTransportELb0EE7_M_headERS4_
FNDA:151,_ZNSt10_Head_baseILm0EPN5Nexus3rpc12UdpTransportELb0EE7_M_headERS4_
FN:233,_ZNSt10_Head_baseILm0EPNSt6thread6_StateELb0EE7_M_headERS3_
FNDA:48,_ZNSt10_Head_baseILm0EPNSt6thread6_StateELb0EE7_M_headERS3_
FN:233,_ZNSt10_Head_baseILm2EmLb0EE7_M_headERS0_
FNDA:212,_ZNSt10_Head_baseILm2EmLb0EE7_M_headERS0_
FN:233,_ZNSt10_Head_baseILm0ERKNSt7__cxx1112basic_stringIcSt11char_traitsIcESaIcEEELb0EE7_M_headERS8_
FNDA:170,_ZNSt10_Head_baseILm0ERKNSt7__cxx1112basic_stringIcSt11char_traitsIcESaIcEEELb0EE7_M_headERS8_
FN:233,_ZNSt10_Head_baseILm0EMN5Nexus3rpc8NodeImplEFvvELb0EE7_M_headERS5_
FNDA:122,_ZNSt10_Head_baseILm0EMN5Nexus3rpc8NodeImplEFvvELb0EE7_M_headERS5_
FN:233,_ZNSt10_Head_baseILm1EPN5Nexus3rpc8NodeImplELb0EE7_M_headERS4_
FNDA:334,_ZNSt10_Head_baseILm1EPN5Nexus3rpc8NodeImplELb0EE7_M_headERS4_
FN:233,_ZNSt10_Head_baseILm0EMN5Nexus3rpc8NodeImplEFvmELb0EE7_M_headERS5_
FNDA:210,_ZNSt10_Head_baseILm0EMN5Nexus3rpc8NodeImplEFvmELb0EE7_M_headERS5_
FN:236,_ZNSt10_Head_baseILm0EPN5Nexus3rpc12UdpTransportELb0EE7_M_headERKS4_
FNDA:13228,_ZNSt10_Head_baseILm0EPN5Nexus3rpc12UdpTransportELb0EE7_M_headERKS4_
FN:236,_ZNSt10_Head_baseILm0EPN5Nexus3rpc23SharedMemoryTransportV3ELb0EE7_M_headERKS4_
FNDA:46,_ZNSt10_Head_baseILm0EPN5Nexus3rpc23SharedMemoryTransportV3ELb0EE7_M_headERKS4_
FN:268,_ZNSt11_Tuple_implILm0EJPNSt6thread6_StateESt14default_deleteIS1_EEE7_M_headERS5_
FNDA:48,_ZNSt11_Tuple_implILm0EJPNSt6thread6_StateESt14default_deleteIS1_EEE7_M_headERS5_
FN:268,_ZNSt11_Tuple_implILm0EJMN5Nexus3rpc8NodeImplEFvmEPS2_mEE7_M_headERS6_
FNDA:206,_ZNSt11_Tuple_implILm0EJMN5Nexus3rpc8NodeImplEFvmEPS2_mEE7_M_headERS6_
FN:268,_ZNSt11_Tuple_implILm0EJMN5Nexus3rpc8NodeImplEFvvEPS2_EE7_M_headERS6_
FNDA:122,_ZNSt11_Tuple_implILm0EJMN5Nexus3rpc8NodeImplEFvvEPS2_EE7_M_headERS6_
FN:268,_ZNSt11_Tuple_implILm0EJPN5Nexus3rpc12UdpTransportESt14default_deleteIS2_EEE7_M_headERS6_
FNDA:151,_ZNSt11_Tuple_implILm0EJPN5Nexus3rpc12UdpTransportESt14default_deleteIS2_EEE7_M_headERS6_
FN:268,_ZNSt11_Tuple_implILm0EJPN5Nexus3rpc23SharedMemoryTransportV3ESt14default_deleteIS2_EEE7_M_headERS6_
FNDA:21,_ZNSt11_Tuple_implILm0EJPN5Nexus3rpc23SharedMemoryTransportV3ESt14default_deleteIS2_EEE7_M_headERS6_
FN:268,_ZNSt11_Tuple_implILm1EJPN5Nexus3rpc8NodeImplEmEE7_M_headERS4_
FNDA:212,_ZNSt11_Tuple_implILm1EJPN5Nexus3rpc8NodeImplEmEE7_M_headERS4_
FN:271,_ZNSt11_Tuple_implILm0EJPN5Nexus3rpc23SharedMemoryTransportV3ESt14default_deleteIS2_EEE7_M_headERKS6_
FNDA:46,_ZNSt11_Tuple_implILm0EJPN5Nexus3rpc23SharedMemoryTransportV3ESt14default_deleteIS2_EEE7_M_headERKS6_
FN:271,_ZNSt11_Tuple_implILm0EJPN5Nexus3rpc12UdpTransportESt14default_deleteIS2_EEE7_M_headERKS6_
FNDA:13228,_ZNSt11_Tuple_implILm0EJPN5Nexus3rpc12UdpTransportESt14default_deleteIS2_EEE7_M_headERKS6_
FN:279,_ZNSt11_Tuple_implILm0EJPN5Nexus3rpc12UdpTransportESt14default_deleteIS2_EEEC2Ev
FNDA:71,_ZNSt11_Tuple_implILm0EJPN5Nexus3rpc12UdpTransportESt14default_deleteIS2_EEEC2Ev
FN:279,_ZNSt11_Tuple_implILm0EJPNSt6thread6_StateESt14default_deleteIS1_EEEC2Ev
FNDA:24,_ZNSt11_Tuple_implILm0EJPNSt6thread6_StateESt14default_deleteIS1_EEEC2Ev
FN:279,_ZNSt11_Tuple_implILm0EJPN5Nexus3rpc23SharedMemoryTransportV3ESt14default_deleteIS2_EEEC2Ev
FNDA:6,_ZNSt11_Tuple_implILm0EJPN5Nexus3rpc23SharedMemoryTransportV3ESt14default_deleteIS2_EEEC2Ev
FN:290,_ZNSt11_Tuple_implILm0EJMN5Nexus3rpc8NodeImplEFvmEPS2_mEEC2IS4_JS5_RmEvEEOT_DpOT0_
FNDA:212,_ZNSt11_Tuple_implILm0EJMN5Nexus3rpc8NodeImplEFvmEPS2_mEEC2IS4_JS5_RmEvEEOT_DpOT0_
FN:290,_ZNSt11_Tuple_implILm0EJMN5Nexus3rpc8NodeImplEFvvEPS2_EEC2IS4_JS5_EvEEOT_DpOT0_
FNDA:122,_ZNSt11_Tuple_implILm0EJMN5Nexus3rpc8NodeImplEFvvEPS2_EEC2IS4_JS5_EvEEOT_DpOT0_
FN:290,_ZNSt11_Tuple_implILm1EJPN5Nexus3rpc8NodeImplEmEEC2IS3_JRmEvEEOT_DpOT0_
FNDA:212,_ZNSt11_Tuple_implILm1EJPN5Nexus3rpc8NodeImplEmEEC2IS3_JRmEvEEOT_DpOT0_
FN:424,_ZNSt11_Tuple_implILm1EJSt14default_deleteIN5Nexus3rpc23SharedMemoryTransportV3EEEE7_M_headERS5_
FNDA:9,_ZNSt11_Tuple_implILm1EJSt14default_deleteIN5Nexus3rpc23SharedMemoryTransportV3EEEE7_M_headERS5_
FN:424,_ZNSt11_Tuple_implILm1EJSt14default_deleteIN5Nexus3rpc12UdpTransportEEEE7_M_headERS5_
FNDA:48,_ZNSt11_Tuple_implILm1EJSt14default_deleteIN5Nexus3rpc12UdpTransportEEEE7_M_headERS5_
FN:424,_ZNSt11_Tuple_implILm2EJmEE7_M_headERS0_
FNDA:212,_ZNSt11_Tuple_implILm2EJmEE7_M_headERS0_
FN:424,_ZNSt11_Tuple_implILm1EJPN5Nexus3rpc8NodeImplEEE7_M_headERS4_
FNDA:122,_ZNSt11_Tuple_implILm1EJPN5Nexus3rpc8NodeImplEEE7_M_headERS4_
FN:424,_ZNSt11_Tuple_implILm0EJRKNSt7__cxx1112basic_stringIcSt11char_traitsIcESaIcEEEEE7_M_headERS8_
FNDA:170,_ZNSt11_Tuple_implILm0EJRKNSt7__cxx1112basic_stringIcSt11char_traitsIcESaIcEEEEE7_M_headERS8_
FN:424,_ZNSt11_Tuple_implILm1EJSt14default_deleteINSt6thread6_StateEEEE7_M_headERS4_
FNDA:0,_ZNSt11_Tuple_implILm1EJSt14default_deleteINSt6thread6_StateEEEE7_M_headERS4_
FN:430,_ZNSt11_Tuple_implILm1EJSt14default_deleteIN5Nexus3rpc12UdpTransportEEEEC2Ev
FNDA:71,_ZNSt11_Tuple_implILm1EJSt14default_deleteIN5Nexus3rpc12UdpTransportEEEEC2Ev
FN:430,_ZNSt11_Tuple_implILm1EJSt14default_deleteINSt6thread6_StateEEEEC2Ev
FNDA:24,_ZNSt11_Tuple_implILm1EJSt14default_deleteINSt6thread6_StateEEEEC2Ev
FN:430,_ZNSt11_Tuple_implILm1EJSt14default_deleteIN5Nexus3rpc23SharedMemoryTransportV3EEEEC2Ev
FNDA:6,_ZNSt11_Tuple_implILm1EJSt14default_deleteIN5Nexus3rpc23SharedMemoryTransportV3EEEEC2Ev
FN:434,_ZNSt11_Tuple_implILm0EJRKNSt7__cxx1112basic_stringIcSt11char_traitsIcESaIcEEEEEC2ES7_
FNDA:170,_ZNSt11_Tuple_implILm0EJRKNSt7__cxx1112basic_stringIcSt11char_traitsIcESaIcEEEEEC2ES7_
FN:440,_ZNSt11_Tuple_implILm1EJPN5Nexus3rpc8NodeImplEEEC2IS3_EEOT_
FNDA:122,_ZNSt11_Tuple_implILm1EJPN5Nexus3rpc8NodeImplEEEC2IS3_EEOT_
FN:440,_ZNSt11_Tuple_implILm2EJmEEC2IRmEEOT_
FNDA:212,_ZNSt11_Tuple_implILm2EJmEEC2IRmEEOT_
FN:454,_ZNSt11_Tuple_implILm0EJRKNSt7__cxx1112basic_stringIcSt11char_traitsIcESaIcEEEEEC2EOS8_
FNDA:170,_ZNSt11_Tuple_implILm0EJRKNSt7__cxx1112basic_stringIcSt11char_traitsIcESaIcEEEEEC2EOS8_
FN:727,_ZNSt5tupleIJRKNSt7__cxx1112basic_stringIcSt11char_traitsIcESaIcEEEEEC2ILb1ELb1EEES7_
FNDA:170,_ZNSt5tupleIJRKNSt7__cxx1112basic_stringIcSt11char_traitsIcESaIcEEEEEC2ILb1ELb1EEES7_
FN:742,_ZNSt5tupleIJMN5Nexus3rpc8NodeImplEFvmEPS2_mEEC2IJS4_S5_RmELb1ELb1EEEDpOT_
FNDA:212,_ZNSt5tupleIJMN5Nexus3rpc8NodeImplEFvmEPS2_mEEC2IJS4_S5_RmELb1ELb1EEEDpOT_
FN:756,_ZNSt5tupleIJRKNSt7__cxx1112basic_stringIcSt11char_traitsIcESaIcEEEEEC2EOS8_
FNDA:170,_ZNSt5tupleIJRKNSt7__cxx1112basic_stringIcSt11char_traitsIcESaIcEEEEEC2EOS8_
FN:1049,_ZNSt5tupleIJPN5Nexus3rpc23SharedMemoryTransportV3ESt14default_deleteIS2_EEEC2ILb1ELb1EEEv
FNDA:6,_ZNSt5tupleIJPN5Nexus3rpc23SharedMemoryTransportV3ESt14default_deleteIS2_EEEC2ILb1ELb1EEEv
FN:1049,_ZNSt5tupleIJPN5Nexus3rpc12UdpTransportESt14default_deleteIS2_EEEC2ILb1ELb1EEEv
FNDA:71,_ZNSt5tupleIJPN5Nexus3rpc12UdpTransportESt14default_deleteIS2_EEEC2ILb1ELb1EEEv
FN:1049,_ZNSt5tupleIJPNSt6thread6_StateESt14default_deleteIS1_EEEC2ILb1ELb1EEEv
FNDA:24,_ZNSt5tupleIJPNSt6thread6_StateESt14default_deleteIS1_EEEC2ILb1ELb1EEEv
FN:1077,_ZNSt5tupleIJMN5Nexus3rpc8NodeImplEFvvEPS2_EEC2IS4_S5_Lb1EEEOT_OT0_
FNDA:122,_ZNSt5tupleIJMN5Nexus3rpc8NodeImplEFvvEPS2_EEC2IS4_S5_Lb1EEEOT_OT0_
FN:1377,_ZSt12__get_helperILm0ERKNSt7__cxx1112basic_stringIcSt11char_traitsIcESaIcEEEJEERT0_RSt11_Tuple_implIXT_EJS8_DpT1_EE
FNDA:170,_ZSt12__get_helperILm0ERKNSt7__cxx1112basic_stringIcSt11char_traitsIcESaIcEEEJEERT0_RSt11_Tuple_implIXT_EJS8_DpT1_EE
FN:1377,_ZSt12__get_helperILm0EPN5Nexus3rpc12UdpTransportEJSt14default_deleteIS2_EEERT0_RSt11_Tuple_implIXT_EJS6_DpT1_EE
FNDA:151,_ZSt12__get_helperILm0EPN5Nexus3rpc12UdpTransportEJSt14default_deleteIS2_EEERT0_RSt11_Tuple_implIXT_EJS6_DpT1_EE
FN:1377,_ZSt12__get_helperILm0EPN5Nexus3rpc23SharedMemoryTransportV3EJSt14default_deleteIS2_EEERT0_RSt11_Tuple_implIXT_EJS6_DpT1_EE
FNDA:21,_ZSt12__get_helperILm0EPN5Nexus3rpc23SharedMemoryTransportV3EJSt14default_deleteIS2_EEERT0_RSt11_Tuple_implIXT_EJS6_DpT1_EE
FN:1377,_ZSt12__get_helperILm1ESt14default_deleteIN5Nexus3rpc23SharedMemoryTransportV3EEJEERT0_RSt11_Tuple_implIXT_EJS5_DpT1_EE
FNDA:9,_ZSt12__get_helperILm1ESt14default_deleteIN5Nexus3rpc23SharedMemoryTransportV3EEJEERT0_RSt11_Tuple_implIXT_EJS5_DpT1_EE
FN:1377,_ZSt12__get_helperILm1ESt14default_deleteIN5Nexus3rpc12UdpTransportEEJEERT0_RSt11_Tuple_implIXT_EJS5_DpT1_EE
FNDA:48,_ZSt12__get_helperILm1ESt14default_deleteIN5Nexus3rpc12UdpTransportEEJEERT0_RSt11_Tuple_implIXT_EJS5_DpT1_EE
FN:1377,_ZSt12__get_helperILm2EmJEERT0_RSt11_Tuple_implIXT_EJS0_DpT1_EE
FNDA:212,_ZSt12__get_helperILm2EmJEERT0_RSt11_Tuple_implIXT_EJS0_DpT1_EE
FN:1377,_ZSt12__get_helperILm0EMN5Nexus3rpc8NodeImplEFvvEJPS2_EERT0_RSt11_Tuple_implIXT_EJS6_DpT1_EE
FNDA:122,_ZSt12__get_helperILm0EMN5Nexus3rpc8NodeImplEFvvEJPS2_EERT0_RSt11_Tuple_implIXT_EJS6_DpT1_EE
FN:1377,_ZSt12__get_helperILm1ESt14default_deleteINSt6thread6_StateEEJEERT0_RSt11_Tuple_implIXT_EJS4_DpT1_EE
FNDA:0,_ZSt12__get_helperILm1ESt14default_deleteINSt6thread6_StateEEJEERT0_RSt11_Tuple_implIXT_EJS4_DpT1_EE
FN:1377,_ZSt12__get_helperILm1EPN5Nexus3rpc8NodeImplEJmEERT0_RSt11_Tuple_implIXT_EJS4_DpT1_EE
FNDA:212,_ZSt12__get_helperILm1EPN5Nexus3rpc8NodeImplEJmEERT0_RSt11_Tuple_implIXT_EJS4_DpT1_EE
FN:1377,_ZSt12__get_helperILm1EPN5Nexus3rpc8NodeImplEJEERT0_RSt11_Tuple_implIXT_EJS4_DpT1_EE
FNDA:122,_ZSt12__get_helperILm1EPN5Nexus3rpc8NodeImplEJEERT0_RSt11_Tuple_implIXT_EJS4_DpT1_EE
FN:1377,_ZSt12__get_helperILm0EMN5Nexus3rpc8NodeImplEFvmEJPS2_mEERT0_RSt11_Tuple_implIXT_EJS6_DpT1_EE
FNDA:210,_ZSt12__get_helperILm0EMN5Nexus3rpc8NodeImplEFvmEJPS2_mEERT0_RSt11_Tuple_implIXT_EJS6_DpT1_EE
FN:1377,_ZSt12__get_helperILm0EPNSt6thread6_StateEJSt14default_deleteIS1_EEERT0_RSt11_Tuple_implIXT_EJS5_DpT1_EE
FNDA:48,_ZSt12__get_helperILm0EPNSt6thread6_StateEJSt14default_deleteIS1_EEERT0_RSt11_Tuple_implIXT_EJS5_DpT1_EE
FN:1382,_ZSt12__get_helperILm0EPN5Nexus3rpc12UdpTransportEJSt14default_deleteIS2_EEERKT0_RKSt11_Tuple_implIXT_EJS6_DpT1_EE
FNDA:13228,_ZSt12__get_helperILm0EPN5Nexus3rpc12UdpTransportEJSt14default_deleteIS2_EEERKT0_RKSt11_Tuple_implIXT_EJS6_DpT1_EE
FN:1382,_ZSt12__get_helperILm0EPN5Nexus3rpc23SharedMemoryTransportV3EJSt14default_deleteIS2_EEERKT0_RKSt11_Tuple_implIXT_EJS6_DpT1_EE
FNDA:46,_ZSt12__get_helperILm0EPN5Nexus3rpc23SharedMemoryTransportV3EJSt14default_deleteIS2_EEERKT0_RKSt11_Tuple_implIXT_EJS6_DpT1_EE
FN:1393,_ZSt3getILm0EJRKNSt7__cxx1112basic_stringIcSt11char_traitsIcESaIcEEEEERNSt13tuple_elementIXT_ESt5tupleIJDpT0_EEE4typeERSC_
FNDA:170,_ZSt3getILm0EJRKNSt7__cxx1112basic_stringIcSt11char_traitsIcESaIcEEEEERNSt13tuple_elementIXT_ESt5tupleIJDpT0_EEE4typeERSC_
FN:1393,_ZSt3getILm0EJPN5Nexus3rpc12UdpTransportESt14default_deleteIS2_EEERNSt13tuple_elementIXT_ESt5tupleIJDpT0_EEE4typeERSA_
FNDA:151,_ZSt3getILm0EJPN5Nexus3rpc12UdpTransportESt14default_deleteIS2_EEERNSt13tuple_elementIXT_ESt5tupleIJDpT0_EEE4typeERSA_
FN:1393,_ZSt3getILm0EJPN5Nexus3rpc23SharedMemoryTransportV3ESt14default_deleteIS2_EEERNSt13tuple_elementIXT_ESt5tupleIJDpT0_EEE4typeERSA_
FNDA:21,_ZSt3getILm0EJPN5Nexus3rpc23SharedMemoryTransportV3ESt14default_deleteIS2_EEERNSt13tuple_elementIXT_ESt5tupleIJDpT0_EEE4typeERSA_
FN:1393,_ZSt3getILm1EJPN5Nexus3rpc23SharedMemoryTransportV3ESt14default_deleteIS2_EEERNSt13tuple_elementIXT_ESt5tupleIJDpT0_EEE4typeERSA_
FNDA:9,_ZSt3getILm1EJPN5Nexus3rpc23SharedMemoryTransportV3ESt14default_deleteIS2_EEERNSt13tuple_elementIXT_ESt5tupleIJDpT0_EEE4typeERSA_
FN:1393,_ZSt3getILm1EJPN5Nexus3rpc12UdpTransportESt14default_deleteIS2_EEERNSt13tuple_elementIXT_ESt5tupleIJDpT0_EEE4typeERSA_
FNDA:48,_ZSt3getILm1EJPN5Nexus3rpc12UdpTransportESt14default_deleteIS2_EEERNSt13tuple_elementIXT_ESt5tupleIJDpT0_EEE4typeERSA_
FN:1393,_ZSt3getILm1EJPNSt6thread6_StateESt14default_deleteIS1_EEERNSt13tuple_elementIXT_ESt5tupleIJDpT0_EEE4typeERS9_
FNDA:0,_ZSt3getILm1EJPNSt6thread6_StateESt14default_deleteIS1_EEERNSt13tuple_elementIXT_ESt5tupleIJDpT0_EEE4typeERS9_
FN:1393,_ZSt3getILm0EJPNSt6thread6_StateESt14default_deleteIS1_EEERNSt13tuple_elementIXT_ESt5tupleIJDpT0_EEE4typeERS9_
FNDA:48,_ZSt3getILm0EJPNSt6thread6_StateESt14default_deleteIS1_EEERNSt13tuple_elementIXT_ESt5tupleIJDpT0_EEE4typeERS9_
FN:1399,_ZSt3getILm0EJPN5Nexus3rpc12UdpTransportESt14default_deleteIS2_EEERKNSt13tuple_elementIXT_ESt5tupleIJDpT0_EEE4typeERKSA_
FNDA:13228,_ZSt3getILm0EJPN5Nexus3rpc12UdpTransportESt14default_deleteIS2_EEERKNSt13tuple_elementIXT_ESt5tupleIJDpT0_EEE4typeERKSA_
FN:1399,_ZSt3getILm0EJPN5Nexus3rpc23SharedMemoryTransportV3ESt14default_deleteIS2_EEERKNSt13tuple_elementIXT_ESt5tupleIJDpT0_EEE4typeERKSA_
FNDA:46,_ZSt3getILm0EJPN5Nexus3rpc23SharedMemoryTransportV3ESt14default_deleteIS2_EEERKNSt13tuple_elementIXT_ESt5tupleIJDpT0_EEE4typeERKSA_
FN:1405,_ZSt3getILm2EJMN5Nexus3rpc8NodeImplEFvmEPS2_mEEONSt13tuple_elementIXT_ESt5tupleIJDpT0_EEE4typeEOSA_
FNDA:212,_ZSt3getILm2EJMN5Nexus3rpc8NodeImplEFvmEPS2_mEEONSt13tuple_elementIXT_ESt5tupleIJDpT0_EEE4typeEOSA_
FN:1405,_ZSt3getILm1EJMN5Nexus3rpc8NodeImplEFvvEPS2_EEONSt13tuple_elementIXT_ESt5tupleIJDpT0_EEE4typeEOSA_
FNDA:122,_ZSt3getILm1EJMN5Nexus3rpc8NodeImplEFvvEPS2_EEONSt13tuple_elementIXT_ESt5tupleIJDpT0_EEE4typeEOSA_
FN:1405,_ZSt3getILm0EJMN5Nexus3rpc8NodeImplEFvvEPS2_EEONSt13tuple_elementIXT_ESt5tupleIJDpT0_EEE4typeEOSA_
FNDA:122,_ZSt3getILm0EJMN5Nexus3rpc8NodeImplEFvvEPS2_EEONSt13tuple_elementIXT_ESt5tupleIJDpT0_EEE4typeEOSA_
FN:1405,_ZSt3getILm1EJMN5Nexus3rpc8NodeImplEFvmEPS2_mEEONSt13tuple_elementIXT_ESt5tupleIJDpT0_EEE4typeEOSA_
FNDA:210,_ZSt3getILm1EJMN5Nexus3rpc8NodeImplEFvmEPS2_mEEONSt13tuple_elementIXT_ESt5tupleIJDpT0_EEE4typeEOSA_
FN:1405,_ZSt3getILm0EJMN5Nexus3rpc8NodeImplEFvmEPS2_mEEONSt13tuple_elementIXT_ESt5tupleIJDpT0_EEE4typeEOSA_
FNDA:210,_ZSt3getILm0EJMN5Nexus3rpc8NodeImplEFvmEPS2_mEEONSt13tuple_elementIXT_ESt5tupleIJDpT0_EEE4typeEOSA_
FN:1804,_ZNSt4pairIKNSt7__cxx1112basic_stringIcSt11char_traitsIcESaIcEEEN5Nexus3rpc8NodeImpl16SubscriptionInfoEEC2IJRS6_EJEEESt21piecewise_construct_tSt5tupleIJDpT_EESF_IJDpT0_EE
FNDA:16,_ZNSt4pairIKNSt7__cxx1112basic_stringIcSt11char_traitsIcESaIcEEEN5Nexus3rpc8NodeImpl16SubscriptionInfoEEC2IJRS6_EJEEESt21piecewise_construct_tSt5tupleIJDpT_EESF_IJDpT0_EE
FN:1804,_ZNSt4pairIKNSt7__cxx1112basic_stringIcSt11char_traitsIcESaIcEEESt10shared_ptrIN5Nexus3rpc16LargeDataChannelEEEC2IJRS6_EJEEESt21piecewise_construct_tSt5tupleIJDpT_EESG_IJDpT0_EE
FNDA:0,_ZNSt4pairIKNSt7__cxx1112basic_stringIcSt11char_traitsIcESaIcEEESt10shared_ptrIN5Nexus3rpc16LargeDataChannelEEEC2IJRS6_EJEEESt21piecewise_construct_tSt5tupleIJDpT_EESG_IJDpT0_EE
FN:1804,_ZNSt4pairIKNSt7__cxx1112basic_stringIcSt11char_traitsIcESaIcEEEN5Nexus3rpc8NodeImpl14RemoteNodeInfoEEC2IJRS6_EJEEESt21piecewise_construct_tSt5tupleIJDpT_EESF_IJDpT0_EE
FNDA:2,_ZNSt4pairIKNSt7__cxx1112basic_stringIcSt11char_traitsIcESaIcEEEN5Nexus3rpc8NodeImpl14RemoteNodeInfoEEC2IJRS6_EJEEESt21piecewise_construct_tSt5tupleIJDpT_EESF_IJDpT0_EE
FN:1816,_ZNSt4pairIKNSt7__cxx1112basic_stringIcSt11char_traitsIcESaIcEEEN5Nexus3rpc8NodeImpl14RemoteNodeInfoEEC2IJRS6_EJLm0EEJEJEEERSt5tupleIJDpT_EERSE_IJDpT1_EESt12_Index_tupleIJXspT0_EEESN_IJXspT2_EEE
FNDA:2,_ZNSt4pairIKNSt7__cxx1112basic_stringIcSt11char_traitsIcESaIcEEEN5Nexus3rpc8NodeImpl14RemoteNodeInfoEEC2IJRS6_EJLm0EEJEJEEERSt5tupleIJDpT_EERSE_IJDpT1_EESt12_Index_tupleIJXspT0_EEESN_IJXspT2_EEE
FN:1816,_ZNSt4pairIKNSt7__cxx1112basic_stringIcSt11char_traitsIcESaIcEEESt10shared_ptrIN5Nexus3rpc16LargeDataChannelEEEC2IJRS6_EJLm0EEJEJEEERSt5tupleIJDpT_EERSF_IJDpT1_EESt12_Index_tupleIJXspT0_EEESO_IJXspT2_EEE
FNDA:0,_ZNSt4pairIKNSt7__cxx1112basic_stringIcSt11char_traitsIcESaIcEEESt10shared_ptrIN5Nexus3rpc16LargeDataChannelEEEC2IJRS6_EJLm0EEJEJEEERSt5tupleIJDpT_EERSF_IJDpT1_EESt12_Index_tupleIJXspT0_EEESO_IJXspT2_EEE
FN:1816,_ZNSt4pairIKNSt7__cxx1112basic_stringIcSt11char_traitsIcESaIcEEEN5Nexus3rpc8NodeImpl16SubscriptionInfoEEC2IJRS6_EJLm0EEJEJEEERSt5tupleIJDpT_EERSE_IJDpT1_EESt12_Index_tupleIJXspT0_EEESN_IJXspT2_EEE
FNDA:16,_ZNSt4pairIKNSt7__cxx1112basic_stringIcSt11char_traitsIcESaIcEEEN5Nexus3rpc8NodeImpl16SubscriptionInfoEEC2IJRS6_EJLm0EEJEJEEERSt5tupleIJDpT_EERSE_IJDpT1_EESt12_Index_tupleIJXspT0_EEESN_IJXspT2_EEE
DA:80,24
DA:81,24
DA:80,6
DA:81,6
DA:80,71
DA:81,71
DA:124,0
DA:124,48
DA:124,9
DA:189,24
DA:190,24
DA:189,6
DA:190,6
DA:189,71
DA:190,71
DA:192,170
DA:193,170
DA:199,212
DA:200,212
DA:199,212
DA:200,212
DA:199,334
DA:200,334
DA:199,122
DA:200,122
DA:233,122
DA:233,212
DA:233,334
DA:233,210
DA:233,170
DA:233,48
DA:233,21
DA:233,151
DA:236,46
DA:236,13228
DA:268,122
DA:268,212
DA:268,206
DA:268,48
DA:268,21
DA:268,151
DA:271,46
DA:271,13228
DA:279,24
DA:280,24
DA:279,6
DA:280,6
DA:279,71
DA:280,71
DA:290,212
DA:292,212
DA:293,212
DA:290,212
DA:292,212
DA:293,212
DA:290,122
DA:292,122
DA:293,122
DA:424,122
DA:424,212
DA:424,170
DA:424,0
DA:424,48
DA:424,9
DA:430,24
DA:431,24
DA:430,6
DA:431,6
DA:430,71
DA:431,71
DA:434,170
DA:435,170
DA:436,170
DA:440,212
DA:441,212
DA:442,212
DA:440,122
DA:441,122
DA:442,122
DA:454,170
DA:456,170
DA:457,170
DA:727,170
DA:729,170
DA:742,212
DA:744,212
DA:756,170
DA:1049,24
DA:1051,24
DA:1049,6
DA:1051,6
DA:1049,71
DA:1051,71
DA:1077,122
DA:1079,122
DA:1377,122
DA:1378,122
DA:1377,122
DA:1378,122
DA:1377,212
DA:1378,212
DA:1377,212
DA:1378,212
DA:1377,210
DA:1378,210
DA:1377,170
DA:1378,170
DA:1377,0
DA:1378,0
DA:1377,48
DA:1378,48
DA:1377,48
DA:1378,48
DA:1377,9
DA:1378,9
DA:1377,21
DA:1378,21
DA:1377,151
DA:1378,151
DA:1382,46
DA:1383,46
DA:1382,13228
DA:1383,13228
DA:1393,170
DA:1394,170
DA:1393,0
DA:1394,0
DA:1393,48
DA:1394,48
DA:1393,48
DA:1394,48
DA:1393,9
DA:1394,9
DA:1393,21
DA:1394,21
DA:1393,151
DA:1394,151
DA:1399,46
DA:1400,46
DA:1399,13228
DA:1400,13228
DA:1405,122
DA:1408,122
DA:1405,122
DA:1408,122
DA:1405,212
DA:1408,212
DA:1405,210
DA:1408,210
DA:1405,210
DA:1408,210
DA:1804,2
DA:1809,2
DA:1810,2
DA:1804,0
DA:1809,0
DA:1810,0
DA:1804,16
DA:1809,16
DA:1810,16
DA:1816,2
DA:1819,2
DA:1820,2
DA:1821,2
DA:1816,0
DA:1819,0
DA:1820,0
DA:1821,0
DA:1816,16
DA:1819,16
DA:1820,16
DA:1821,16
end_of_record
SF:/usr/include/c++/11/chrono
FN:211,_ZNSt6chrono20__duration_cast_implINS_8durationIlSt5ratioILl1ELl1EEEES3_lLb1ELb1EE6__castIlS3_EES4_RKNS1_IT_T0_EE
FNDA:63,_ZNSt6chrono20__duration_cast_implINS_8durationIlSt5ratioILl1ELl1EEEES3_lLb1ELb1EE6__castIlS3_EES4_RKNS1_IT_T0_EE
FN:223,_ZNSt6chrono20__duration_cast_implINS_8durationIlSt5ratioILl1ELl1000EEEES2_ILl1ELl1000000EElLb1ELb0EE6__castIlS2_ILl1ELl1000000000EEEES4_RKNS1_IT_T0_EE
FNDA:3603,_ZNSt6chrono20__duration_cast_implINS_8durationIlSt5ratioILl1ELl1000EEEES2_ILl1ELl1000000EElLb1ELb0EE6__castIlS2_ILl1ELl1000000000EEEES4_RKNS1_IT_T0_EE
FN:223,_ZNSt6chrono20__duration_cast_implINS_8durationIlSt5ratioILl1ELl1EEEES2_ILl1ELl1000EElLb1ELb0EE6__castIlS5_EES4_RKNS1_IT_T0_EE
FNDA:0,_ZNSt6chrono20__duration_cast_implINS_8durationIlSt5ratioILl1ELl1EEEES2_ILl1ELl1000EElLb1ELb0EE6__castIlS5_EES4_RKNS1_IT_T0_EE
FN:236,_ZNSt6chrono20__duration_cast_implINS_8durationIlSt5ratioILl1ELl1000EEEES2_ILl1000ELl1EElLb0ELb1EE6__castIlS2_ILl1ELl1EEEES4_RKNS1_IT_T0_EE
FNDA:0,_ZNSt6chrono20__duration_cast_implINS_8durationIlSt5ratioILl1ELl1000EEEES2_ILl1000ELl1EElLb0ELb1EE6__castIlS2_ILl1ELl1EEEES4_RKNS1_IT_T0_EE
FN:236,_ZNSt6chrono20__duration_cast_implINS_8durationIlSt5ratioILl1ELl1000000000EEEES2_ILl1000000ELl1EElLb0ELb1EE6__castIlS2_ILl1ELl1000EEEES4_RKNS1_IT_T0_EE
FNDA:0,_ZNSt6chrono20__duration_cast_implINS_8durationIlSt5ratioILl1ELl1000000000EEEES2_ILl1000000ELl1EElLb0ELb1EE6__castIlS2_ILl1ELl1000EEEES4_RKNS1_IT_T0_EE
FN:236,_ZNSt6chrono20__duration_cast_implINS_8durationIlSt5ratioILl1ELl1000000000EEEES2_ILl1000000000ELl1EElLb0ELb1EE6__castIlS2_ILl1ELl1EEEES4_RKNS1_IT_T0_EE
FNDA:540,_ZNSt6chrono20__duration_cast_implINS_8durationIlSt5ratioILl1ELl1000000000EEEES2_ILl1000000000ELl1EElLb0ELb1EE6__castIlS2_ILl1ELl1EEEES4_RKNS1_IT_T0_EE
FN:267,_ZNSt6chrono13duration_castINS_8durationIlSt5ratioILl1ELl1000EEEElS2_ILl1ELl1EEEENSt9enable_ifIXsrNS_13__is_durationIT_EE5valueES8_E4typeERKNS1_IT0_T1_EE
FNDA:0,_ZNSt6chrono13duration_castINS_8durationIlSt5ratioILl1ELl1000EEEElS2_ILl1ELl1EEEENSt9enable_ifIXsrNS_13__is_durationIT_EE5valueES8_E4typeERKNS1_IT0_T1_EE
FN:267,_ZNSt6chrono13duration_castINS_8durationIlSt5ratioILl1ELl1000000000EEEElS2_ILl1ELl1EEEENSt9enable_ifIXsrNS_13__is_durationIT_EE5valueES8_E4typeERKNS1_IT0_T1_EE
FNDA:540,_ZNSt6chrono13duration_castINS_8durationIlSt5ratioILl1ELl1000000000EEEElS2_ILl1ELl1EEEENSt9enable_ifIXsrNS_13__is_durationIT_EE5valueES8_E4typeERKNS1_IT0_T1_EE
FN:267,_ZNSt6chrono13duration_castINS_8durationIlSt5ratioILl1ELl1EEEElS3_EENSt9enable_ifIXsrNS_13__is_durationIT_EE5valueES7_E4typeERKNS1_IT0_T1_EE
FNDA:63,_ZNSt6chrono13duration_castINS_8durationIlSt5ratioILl1ELl1EEEElS3_EENSt9enable_ifIXsrNS_13__is_durationIT_EE5valueES7_E4typeERKNS1_IT0_T1_EE
FN:267,_ZNSt6chrono13duration_castINS_8durationIlSt5ratioILl1ELl1EEEElS2_ILl1ELl1000EEEENSt9enable_ifIXsrNS_13__is_durationIT_EE5valueES8_E4typeERKNS1_IT0_T1_EE
FNDA:0,_ZNSt6chrono13duration_castINS_8durationIlSt5ratioILl1ELl1EEEElS2_ILl1ELl1000EEEENSt9enable_ifIXsrNS_13__is_durationIT_EE5valueES8_E4typeERKNS1_IT0_T1_EE
FN:267,_ZNSt6chrono13duration_castINS_8durationIlSt5ratioILl1ELl1000000000EEEElS2_ILl1ELl1000EEEENSt9enable_ifIXsrNS_13__is_durationIT_EE5valueES8_E4typeERKNS1_IT0_T1_EE
FNDA:0,_ZNSt6chrono13duration_castINS_8durationIlSt5ratioILl1ELl1000000000EEEElS2_ILl1ELl1000EEEENSt9enable_ifIXsrNS_13__is_durationIT_EE5valueES8_E4typeERKNS1_IT0_T1_EE
FN:267,_ZNSt6chrono13duration_castINS_8durationIlSt5ratioILl1ELl1000EEEElS2_ILl1ELl1000000000EEEENSt9enable_ifIXsrNS_13__is_durationIT_EE5valueES8_E4typeERKNS1_IT0_T1_EE
FNDA:3603,_ZNSt6chrono13duration_castINS_8durationIlSt5ratioILl1ELl1000EEEElS2_ILl1ELl1000000000EEEENSt9enable_ifIXsrNS_13__is_durationIT_EE5valueES8_E4typeERKNS1_IT0_T1_EE
FN:432,_ZNSt6chrono15duration_valuesIlE4zeroEv
FNDA:0,_ZNSt6chrono15duration_valuesIlE4zeroEv
FN:521,_ZNSt6chrono8durationIlSt5ratioILl1ELl1000EEEC2IlvEERKT_
FNDA:0,_ZNSt6chrono8durationIlSt5ratioILl1ELl1000EEEC2IlvEERKT_
FN:521,_ZNSt6chrono8durationIlSt5ratioILl1ELl1EEEC2IlvEERKT_
FNDA:0,_ZNSt6chrono8durationIlSt5ratioILl1ELl1EEEC2IlvEERKT_
FN:521,_ZNSt6chrono8durationIlSt5ratioILl1ELl1EEEC2IivEERKT_
FNDA:63,_ZNSt6chrono8durationIlSt5ratioILl1ELl1EEEC2IivEERKT_
FN:521,_ZNSt6chrono8durationIlSt5ratioILl1ELl1000EEEC2IivEERKT_
FNDA:0,_ZNSt6chrono8durationIlSt5ratioILl1ELl1000EEEC2IivEERKT_
FN:521,_ZNSt6chrono8durationIlSt5ratioILl1ELl1000000000EEEC1IlvEERKT_
FNDA:0,_ZNSt6chrono8durationIlSt5ratioILl1ELl1000000000EEEC1IlvEERKT_
FN:529,_ZNSt6chrono8durationIlSt5ratioILl1ELl1000EEEC2IlS1_ILl1ELl1EEvEERKNS0_IT_T0_EE
FNDA:0,_ZNSt6chrono8durationIlSt5ratioILl1ELl1000EEEC2IlS1_ILl1ELl1EEvEERKNS0_IT_T0_EE
FN:537,_ZNKSt6chrono8durationIlSt5ratioILl1ELl1EEE5countEv
FNDA:0,_ZNKSt6chrono8durationIlSt5ratioILl1ELl1EEE5countEv
FN:537,_ZNKSt6chrono8durationIlSt5ratioILl1ELl1000EEE5countEv
FNDA:0,_ZNKSt6chrono8durationIlSt5ratioILl1ELl1000EEE5countEv
FN:537,_ZNKSt6chrono8durationIlSt5ratioILl1ELl1000000000EEE5countEv
FNDA:0,_ZNKSt6chrono8durationIlSt5ratioILl1ELl1000000000EEE5countEv
FN:623,_ZNSt6chrono8durationIlSt5ratioILl1ELl1EEE4zeroEv
FNDA:63,_ZNSt6chrono8durationIlSt5ratioILl1ELl1EEE4zeroEv
FN:623,_ZNSt6chrono8durationIlSt5ratioILl1ELl1000EEE4zeroEv
FNDA:0,_ZNSt6chrono8durationIlSt5ratioILl1ELl1000EEE4zeroEv
FN:623,_ZNSt6chrono8durationIlSt5ratioILl1ELl1000000000EEE4zeroEv
FNDA:4,_ZNSt6chrono8durationIlSt5ratioILl1ELl1000000000EEE4zeroEv
FN:660,_ZNSt6chronomiIlSt5ratioILl1ELl1EElS2_EENSt11common_typeIJNS_8durationIT_T0_EENS4_IT1_T2_EEEE4typeERKS7_RKSA_
FNDA:63,_ZNSt6chronomiIlSt5ratioILl1ELl1EElS2_EENSt11common_typeIJNS_8durationIT_T0_EENS4_IT1_T2_EEEE4typeERKS7_RKSA_
FN:660,_ZNSt6chronomiIlSt5ratioILl1ELl1000EElS1_ILl1ELl1EEEENSt11common_typeIJNS_8durationIT_T0_EENS5_IT1_T2_EEEE4typeERKS8_RKSB_
FNDA:0,_ZNSt6chronomiIlSt5ratioILl1ELl1000EElS1_ILl1ELl1EEEENSt11common_typeIJNS_8durationIT_T0_EENS5_IT1_T2_EEEE4typeERKS8_RKSB_
FN:660,_ZNSt6chronomiIlSt5ratioILl1ELl1000000000EElS2_EENSt11common_typeIJNS_8durationIT_T0_EENS4_IT1_T2_EEEE4typeERKS7_RKSA_
FNDA:10,_ZNSt6chronomiIlSt5ratioILl1ELl1000000000EElS2_EENSt11common_typeIJNS_8durationIT_T0_EENS4_IT1_T2_EEEE4typeERKS7_RKSA_
FN:772,_ZNSt6chronoltIlSt5ratioILl1ELl1EElS2_EEbRKNS_8durationIT_T0_EERKNS3_IT1_T2_EE
FNDA:63,_ZNSt6chronoltIlSt5ratioILl1ELl1EElS2_EEbRKNS_8durationIT_T0_EERKNS3_IT1_T2_EE
FN:772,_ZNSt6chronoltIlSt5ratioILl1ELl1000EElS2_EEbRKNS_8durationIT_T0_EERKNS3_IT1_T2_EE
FNDA:0,_ZNSt6chronoltIlSt5ratioILl1ELl1000EElS2_EEbRKNS_8durationIT_T0_EERKNS3_IT1_T2_EE
FN:805,_ZNSt6chronoleIlSt5ratioILl1ELl1EElS2_EEbRKNS_8durationIT_T0_EERKNS3_IT1_T2_EE
FNDA:63,_ZNSt6chronoleIlSt5ratioILl1ELl1EElS2_EEbRKNS_8durationIT_T0_EERKNS3_IT1_T2_EE
FN:805,_ZNSt6chronoleIlSt5ratioILl1ELl1000EElS2_EEbRKNS_8durationIT_T0_EERKNS3_IT1_T2_EE
FNDA:0,_ZNSt6chronoleIlSt5ratioILl1ELl1000EElS2_EEbRKNS_8durationIT_T0_EERKNS3_IT1_T2_EE
FN:882,_ZNSt6chrono10time_pointINS_3_V212steady_clockENS_8durationIlSt5ratioILl1ELl1000000000EEEEEC2Ev
FNDA:4,_ZNSt6chrono10time_pointINS_3_V212steady_clockENS_8durationIlSt5ratioILl1ELl1000000000EEEEEC2Ev
FN:898,_ZNKSt6chrono10time_pointINS_3_V212system_clockENS_8durationIlSt5ratioILl1ELl1000000000EEEEE16time_since_epochEv
FNDA:4476,_ZNKSt6chrono10time_pointINS_3_V212system_clockENS_8durationIlSt5ratioILl1ELl1000000000EEEEE16time_since_epochEv
FN:898,_ZNKSt6chrono10time_pointINS_3_V212steady_clockENS_8durationIlSt5ratioILl1ELl1000000000EEEEE16time_since_epochEv
FNDA:3655,_ZNKSt6chrono10time_pointINS_3_V212steady_clockENS_8durationIlSt5ratioILl1ELl1000000000EEEEE16time_since_epochEv
FN:1042,_ZNSt6chronomiINS_3_V212steady_clockENS_8durationIlSt5ratioILl1ELl1000000000EEEES6_EENSt11common_typeIJT0_T1_EE4typeERKNS_10time_pointIT_S8_EERKNSC_ISD_S9_EE
FNDA:10,_ZNSt6chronomiINS_3_V212steady_clockENS_8durationIlSt5ratioILl1ELl1000000000EEEES6_EENSt11common_typeIJT0_T1_EE4typeERKNS_10time_pointIT_S8_EERKNSC_ISD_S9_EE
DA:211,63
DA:214,63
DA:223,0
DA:226,0
DA:227,0
DA:223,3603
DA:226,7206
DA:227,3603
DA:236,0
DA:239,0
DA:240,0
DA:236,0
DA:239,0
DA:240,0
DA:236,540
DA:239,1080
DA:240,540
DA:267,0
DA:276,0
DA:267,0
DA:276,0
DA:267,0
DA:276,0
DA:267,540
DA:276,540
DA:267,63
DA:276,63
DA:267,3603
DA:276,3603
DA:432,0
DA:433,0
DA:521,0
DA:522,0
DA:521,0
DA:522,0
DA:521,63
DA:522,63
DA:521,0
DA:522,0
DA:521,0
DA:522,0
DA:529,0
DA:530,0
DA:537,0
DA:538,0
DA:537,0
DA:538,0
DA:537,0
DA:538,0
DA:623,0
DA:624,0
DA:623,63
DA:624,63
DA:623,4
DA:624,4
DA:660,10
DA:666,10
DA:660,0
DA:666,0
DA:660,63
DA:666,63
DA:772,0
DA:778,0
DA:772,63
DA:778,63
DA:805,0
DA:807,0
DA:805,63
DA:807,63
DA:882,4
DA:883,4
DA:898,3655
DA:899,3655
DA:898,4476
DA:899,4476
DA:1042,10
DA:1044,10
end_of_record
SF:/usr/include/c++/11/iomanip
FN:165,_ZSt7setfillIcESt8_SetfillIT_ES1_
FNDA:2234,_ZSt7setfillIcESt8_SetfillIT_ES1_
FN:225,_ZSt4setwi
FNDA:2234,_ZSt4setwi
DA:165,2234
DA:166,2234
DA:225,2234
DA:226,2234
end_of_record
SF:/usr/include/c++/11/bits/atomic_base.h
FN:98,_ZStorSt12memory_orderSt23__memory_order_modifier
FNDA:77428,_ZStorSt12memory_orderSt23__memory_order_modifier
FN:104,_ZStanSt12memory_orderSt23__memory_order_modifier
FNDA:34316,_ZStanSt12memory_orderSt23__memory_order_modifier
FN:111,_ZSt24__cmpexch_failure_order2St12memory_order
FNDA:77428,_ZSt24__cmpexch_failure_order2St12memory_order
FN:118,_ZSt23__cmpexch_failure_orderSt12memory_order
FNDA:77428,_ZSt23__cmpexch_failure_orderSt12memory_order
FN:345,_ZNSt13__atomic_baseImEC2Em
FNDA:18,_ZNSt13__atomic_baseImEC2Em
FN:345,_ZNSt13__atomic_baseIbEC1Eb
FNDA:18,_ZNSt13__atomic_baseIbEC1Eb
FN:354,_ZNSt13__atomic_baseIbEaSEb
FNDA:12,_ZNSt13__atomic_baseIbEaSEb
DA:98,77428
DA:100,77428
DA:104,34316
DA:106,34316
DA:111,77428
DA:113,77999
DA:114,77999
DA:118,77428
DA:121,77428
DA:345,18
DA:345,18
DA:354,12
DA:356,12
DA:357,12
DA:459,2210
DA:464,2210
DA:465,2210
DA:484,10546
DA:488,10549
DA:558,0
DA:560,0
DA:561,0
DA:579,0
DA:580,0
DA:618,14
end_of_record
SF:/home/fz296w/workspace/Nexus/Nexus/include/nexus/utils/Logger.h
FN:78,_ZN5Nexus3rpc9LogStreamC2ENS0_6Logger5LevelERKNSt7__cxx1112basic_stringIcSt11char_traitsIcESaIcEEE
FNDA:4117,_ZN5Nexus3rpc9LogStreamC2ENS0_6Logger5LevelERKNSt7__cxx1112basic_stringIcSt11char_traitsIcESaIcEEE
FN:80,_ZN5Nexus3rpc9LogStreamD2Ev
FNDA:4123,_ZN5Nexus3rpc9LogStreamD2Ev
FN:83,_ZN5Nexus3rpc9LogStreamlsIA39_cEERS1_RKT_
FNDA:143,_ZN5Nexus3rpc9LogStreamlsIA39_cEERS1_RKT_
FN:83,_ZN5Nexus3rpc9LogStreamlsIA35_cEERS1_RKT_
FNDA:402,_ZN5Nexus3rpc9LogStreamlsIA35_cEERS1_RKT_
FN:83,_ZN5Nexus3rpc9LogStreamlsIA4_cEERS1_RKT_
FNDA:24,_ZN5Nexus3rpc9LogStreamlsIA4_cEERS1_RKT_
FN:83,_ZN5Nexus3rpc9LogStreamlsIA9_cEERS1_RKT_
FNDA:53,_ZN5Nexus3rpc9LogStreamlsIA9_cEERS1_RKT_
FN:83,_ZN5Nexus3rpc9LogStreamlsIA29_cEERS1_RKT_
FNDA:54,_ZN5Nexus3rpc9LogStreamlsIA29_cEERS1_RKT_
FN:83,_ZN5Nexus3rpc9LogStreamlsIA42_cEERS1_RKT_
FNDA:35,_ZN5Nexus3rpc9LogStreamlsIA42_cEERS1_RKT_
FN:83,_ZN5Nexus3rpc9LogStreamlsIA31_cEERS1_RKT_
FNDA:146,_ZN5Nexus3rpc9LogStreamlsIA31_cEERS1_RKT_
FN:83,_ZN5Nexus3rpc9LogStreamlsIA33_cEERS1_RKT_
FNDA:9,_ZN5Nexus3rpc9LogStreamlsIA33_cEERS1_RKT_
FN:83,_ZN5Nexus3rpc9LogStreamlsINSt7__cxx1112basic_stringIcSt11char_traitsIcESaIcEEEEERS1_RKT_
FNDA:3093,_ZN5Nexus3rpc9LogStreamlsINSt7__cxx1112basic_stringIcSt11char_traitsIcESaIcEEEEERS1_RKT_
FN:83,_ZN5Nexus3rpc9LogStreamlsIA7_cEERS1_RKT_
FNDA:248,_ZN5Nexus3rpc9LogStreamlsIA7_cEERS1_RKT_
FN:83,_ZN5Nexus3rpc9LogStreamlsIiEERS1_RKT_
FNDA:937,_ZN5Nexus3rpc9LogStreamlsIiEERS1_RKT_
FN:83,_ZN5Nexus3rpc9LogStreamlsIA23_cEERS1_RKT_
FNDA:168,_ZN5Nexus3rpc9LogStreamlsIA23_cEERS1_RKT_
FN:83,_ZN5Nexus3rpc9LogStreamlsIA24_cEERS1_RKT_
FNDA:430,_ZN5Nexus3rpc9LogStreamlsIA24_cEERS1_RKT_
FN:83,_ZN5Nexus3rpc9LogStreamlsIA2_cEERS1_RKT_
FNDA:902,_ZN5Nexus3rpc9LogStreamlsIA2_cEERS1_RKT_
FN:83,_ZN5Nexus3rpc9LogStreamlsIA54_cEERS1_RKT_
FNDA:52,_ZN5Nexus3rpc9LogStreamlsIA54_cEERS1_RKT_
FN:83,_ZN5Nexus3rpc9LogStreamlsImEERS1_RKT_
FNDA:1089,_ZN5Nexus3rpc9LogStreamlsImEERS1_RKT_
FN:83,_ZN5Nexus3rpc9LogStreamlsIA22_cEERS1_RKT_
FNDA:540,_ZN5Nexus3rpc9LogStreamlsIA22_cEERS1_RKT_
FN:83,_ZN5Nexus3rpc9LogStreamlsIA25_cEERS1_RKT_
FNDA:149,_ZN5Nexus3rpc9LogStreamlsIA25_cEERS1_RKT_
FN:83,_ZN5Nexus3rpc9LogStreamlsIlEERS1_RKT_
FNDA:12,_ZN5Nexus3rpc9LogStreamlsIlEERS1_RKT_
FN:83,_ZN5Nexus3rpc9LogStreamlsItEERS1_RKT_
FNDA:2,_ZN5Nexus3rpc9LogStreamlsItEERS1_RKT_
FN:83,_ZN5Nexus3rpc9LogStreamlsIA36_cEERS1_RKT_
FNDA:27,_ZN5Nexus3rpc9LogStreamlsIA36_cEERS1_RKT_
FN:83,_ZN5Nexus3rpc9LogStreamlsIA5_cEERS1_RKT_
FNDA:270,_ZN5Nexus3rpc9LogStreamlsIA5_cEERS1_RKT_
FN:83,_ZN5Nexus3rpc9LogStreamlsIA13_cEERS1_RKT_
FNDA:446,_ZN5Nexus3rpc9LogStreamlsIA13_cEERS1_RKT_
FN:83,_ZN5Nexus3rpc9LogStreamlsIA14_cEERS1_RKT_
FNDA:263,_ZN5Nexus3rpc9LogStreamlsIA14_cEERS1_RKT_
FN:83,_ZN5Nexus3rpc9LogStreamlsIA55_cEERS1_RKT_
FNDA:4,_ZN5Nexus3rpc9LogStreamlsIA55_cEERS1_RKT_
FN:83,_ZN5Nexus3rpc9LogStreamlsIA21_cEERS1_RKT_
FNDA:191,_ZN5Nexus3rpc9LogStreamlsIA21_cEERS1_RKT_
FN:83,_ZN5Nexus3rpc9LogStreamlsIA37_cEERS1_RKT_
FNDA:8,_ZN5Nexus3rpc9LogStreamlsIA37_cEERS1_RKT_
FN:83,_ZN5Nexus3rpc9LogStreamlsIA8_cEERS1_RKT_
FNDA:286,_ZN5Nexus3rpc9LogStreamlsIA8_cEERS1_RKT_
FN:83,_ZN5Nexus3rpc9LogStreamlsIA30_cEERS1_RKT_
FNDA:6,_ZN5Nexus3rpc9LogStreamlsIA30_cEERS1_RKT_
FN:83,_ZN5Nexus3rpc9LogStreamlsIA46_cEERS1_RKT_
FNDA:0,_ZN5Nexus3rpc9LogStreamlsIA46_cEERS1_RKT_
FN:83,_ZN5Nexus3rpc9LogStreamlsIA43_cEERS1_RKT_
FNDA:10,_ZN5Nexus3rpc9LogStreamlsIA43_cEERS1_RKT_
FN:83,_ZN5Nexus3rpc9LogStreamlsIA47_cEERS1_RKT_
FNDA:72,_ZN5Nexus3rpc9LogStreamlsIA47_cEERS1_RKT_
FN:83,_ZN5Nexus3rpc9LogStreamlsIPKcEERS1_RKT_
FNDA:387,_ZN5Nexus3rpc9LogStreamlsIPKcEERS1_RKT_
FN:83,_ZN5Nexus3rpc9LogStreamlsIA41_cEERS1_RKT_
FNDA:0,_ZN5Nexus3rpc9LogStreamlsIA41_cEERS1_RKT_
FN:83,_ZN5Nexus3rpc9LogStreamlsIA28_cEERS1_RKT_
FNDA:154,_ZN5Nexus3rpc9LogStreamlsIA28_cEERS1_RKT_
FN:83,_ZN5Nexus3rpc9LogStreamlsIA27_cEERS1_RKT_
FNDA:130,_ZN5Nexus3rpc9LogStreamlsIA27_cEERS1_RKT_
DA:78,4117
DA:80,4123
DA:83,3093
DA:84,3093
DA:85,3093
DA:83,402
DA:84,402
DA:85,402
DA:83,143
DA:84,143
DA:85,143
DA:83,24
DA:84,24
DA:85,24
DA:83,53
DA:84,53
DA:85,53
DA:83,54
DA:84,54
DA:85,54
DA:83,35
DA:84,35
DA:85,35
DA:83,146
DA:84,146
DA:85,146
DA:83,9
DA:84,9
DA:85,9
DA:83,130
DA:84,130
DA:85,130
DA:83,248
DA:84,248
DA:85,248
DA:83,937
DA:84,937
DA:85,937
DA:83,168
DA:84,168
DA:85,168
DA:83,430
DA:84,430
DA:85,430
DA:83,902
DA:84,902
DA:85,902
DA:83,52
DA:84,52
DA:85,52
DA:83,1089
DA:84,1089
DA:85,1089
DA:83,540
DA:84,540
DA:85,540
DA:83,8
DA:84,8
DA:85,8
DA:83,12
DA:84,12
DA:85,12
DA:83,2
DA:84,2
DA:85,2
DA:83,27
DA:84,27
DA:85,27
DA:83,270
DA:84,270
DA:85,272
DA:83,446
DA:84,446
DA:85,446
DA:83,263
DA:84,263
DA:85,263
DA:83,4
DA:84,4
DA:85,4
DA:83,191
DA:84,191
DA:85,193
DA:83,286
DA:84,286
DA:85,286
DA:83,149
DA:84,149
DA:85,149
DA:83,6
DA:84,6
DA:85,6
DA:83,0
DA:84,0
DA:85,0
DA:83,10
DA:84,10
DA:85,10
DA:83,72
DA:84,72
DA:85,72
DA:83,387
DA:84,387
DA:85,387
DA:83,0
DA:84,0
DA:85,0
DA:83,154
DA:84,154
DA:85,154
end_of_record
SF:/usr/include/c++/11/bits/vector.tcc
FN:66,_ZNSt6vectorINSt7__cxx1112basic_stringIcSt11char_traitsIcESaIcEEESaIS5_EE7reserveEm
FNDA:6,_ZNSt6vectorINSt7__cxx1112basic_stringIcSt11char_traitsIcESaIcEEESaIS5_EE7reserveEm
FN:66,_ZNSt6vectorISt4pairINSt7__cxx1112basic_stringIcSt11char_traitsIcESaIcEEEtESaIS7_EE7reserveEm
FNDA:6,_ZNSt6vectorISt4pairINSt7__cxx1112basic_stringIcSt11char_traitsIcESaIcEEEtESaIS7_EE7reserveEm
FN:66,_ZNSt6vectorIN5Nexus3rpc8NodeImpl14PendingMessageESaIS3_EE7reserveEm
FNDA:210,_ZNSt6vectorIN5Nexus3rpc8NodeImpl14PendingMessageESaIS3_EE7reserveEm
FN:109,_ZNSt6vectorIN5Nexus3rpc8NodeImpl14PendingMessageESaIS3_EE12emplace_backIJS3_EEEvDpOT_
FNDA:6,_ZNSt6vectorIN5Nexus3rpc8NodeImpl14PendingMessageESaIS3_EE12emplace_backIJS3_EEEvDpOT_
FN:109,_ZNSt6vectorISt6threadSaIS0_EE12emplace_backIJMN5Nexus3rpc8NodeImplEFvmEPS6_RmEEEvDpOT_
FNDA:212,_ZNSt6vectorISt6threadSaIS0_EE12emplace_backIJMN5Nexus3rpc8NodeImplEFvmEPS6_RmEEEvDpOT_
FN:109,_ZNSt6vectorISt4pairINSt7__cxx1112basic_stringIcSt11char_traitsIcESaIcEEEtESaIS7_EE12emplace_backIJRKS6_RtEEEvDpOT_
FNDA:0,_ZNSt6vectorISt4pairINSt7__cxx1112basic_stringIcSt11char_traitsIcESaIcEEEtESaIS7_EE12emplace_backIJRKS6_RtEEEvDpOT_
FN:109,_ZNSt6vectorIhSaIhEE12emplace_backIJhEEEvDpOT_
FNDA:0,_ZNSt6vectorIhSaIhEE12emplace_backIJhEEEvDpOT_
FN:300,_ZNSt6vectorINSt7__cxx1112basic_stringIcSt11char_traitsIcESaIcEEESaIS5_EE13_M_assign_auxISt23_Rb_tree_const_iteratorIS5_EEEvT_SB_St20forward_iterator_tag
FNDA:2,_ZNSt6vectorINSt7__cxx1112basic_stringIcSt11char_traitsIcESaIcEEESaIS5_EE13_M_assign_auxISt23_Rb_tree_const_iteratorIS5_EEEvT_SB_St20forward_iterator_tag
FN:300,_ZNSt6vectorIhSaIhEE13_M_assign_auxIPKhEEvT_S5_St20forward_iterator_tag
FNDA:122,_ZNSt6vectorIhSaIhEE13_M_assign_auxIPKhEEvT_S5_St20forward_iterator_tag
FN:426,_ZNSt6vectorIhSaIhEE17_M_realloc_insertIJRKhEEEvN9__gnu_cxx17__normal_iteratorIPhS1_EEDpOT_
FNDA:30,_ZNSt6vectorIhSaIhEE17_M_realloc_insertIJRKhEEEvN9__gnu_cxx17__normal_iteratorIPhS1_EEDpOT_
FN:426,_ZNSt6vectorISt4pairINSt7__cxx1112basic_stringIcSt11char_traitsIcESaIcEEEtESaIS7_EE17_M_realloc_insertIJRKS6_RtEEEvN9__gnu_cxx17__normal_iteratorIPS7_S9_EEDpOT_
FNDA:0,_ZNSt6vectorISt4pairINSt7__cxx1112basic_stringIcSt11char_traitsIcESaIcEEEtESaIS7_EE17_M_realloc_insertIJRKS6_RtEEEvN9__gnu_cxx17__normal_iteratorIPS7_S9_EEDpOT_
FN:426,_ZNSt6vectorINSt7__cxx1112basic_stringIcSt11char_traitsIcESaIcEEESaIS5_EE17_M_realloc_insertIJRKS5_EEEvN9__gnu_cxx17__normal_iteratorIPS5_S7_EEDpOT_
FNDA:98,_ZNSt6vectorINSt7__cxx1112basic_stringIcSt11char_traitsIcESaIcEEESaIS5_EE17_M_realloc_insertIJRKS5_EEEvN9__gnu_cxx17__normal_iteratorIPS5_S7_EEDpOT_
FN:426,_ZNSt6vectorISt6threadSaIS0_EE17_M_realloc_insertIJMN5Nexus3rpc8NodeImplEFvmEPS6_RmEEEvN9__gnu_cxx17__normal_iteratorIPS0_S2_EEDpOT_
FNDA:159,_ZNSt6vectorISt6threadSaIS0_EE17_M_realloc_insertIJMN5Nexus3rpc8NodeImplEFvmEPS6_RmEEEvN9__gnu_cxx17__normal_iteratorIPS0_S2_EEDpOT_
FN:426,_ZNSt6vectorIN5Nexus3rpc17ServiceDescriptorESaIS2_EE17_M_realloc_insertIJRKS2_EEEvN9__gnu_cxx17__normal_iteratorIPS2_S4_EEDpOT_
FNDA:28,_ZNSt6vectorIN5Nexus3rpc17ServiceDescriptorESaIS2_EE17_M_realloc_insertIJRKS2_EEEvN9__gnu_cxx17__normal_iteratorIPS2_S4_EEDpOT_
FN:426,_ZNSt6vectorIN5Nexus3rpc8NodeImpl14PendingMessageESaIS3_EE17_M_realloc_insertIJS3_EEEvN9__gnu_cxx17__normal_iteratorIPS3_S5_EEDpOT_
FNDA:0,_ZNSt6vectorIN5Nexus3rpc8NodeImpl14PendingMessageESaIS3_EE17_M_realloc_insertIJS3_EEEvN9__gnu_cxx17__normal_iteratorIPS3_S5_EEDpOT_
FN:426,_ZNSt6vectorIhSaIhEE17_M_realloc_insertIJhEEEvN9__gnu_cxx17__normal_iteratorIPhS1_EEDpOT_
FNDA:0,_ZNSt6vectorIhSaIhEE17_M_realloc_insertIJhEEEvN9__gnu_cxx17__normal_iteratorIPhS1_EEDpOT_
FN:721,_ZNSt6vectorIhSaIhEE15_M_range_insertIN9__gnu_cxx17__normal_iteratorIPKcNSt7__cxx1112basic_stringIcSt11char_traitsIcESaIcEEEEEEEvNS4_IPhS1_EET_SG_St20forward_iterator_tag
FNDA:8,_ZNSt6vectorIhSaIhEE15_M_range_insertIN9__gnu_cxx17__normal_iteratorIPKcNSt7__cxx1112basic_stringIcSt11char_traitsIcESaIcEEEEEEEvNS4_IPhS1_EET_SG_St20forward_iterator_tag
DA:66,210
DA:69,210
DA:70,0
DA:71,212
DA:73,212
DA:76,210
DA:78,212
DA:79,212
DA:80,212
DA:85,0
DA:88,0
DA:89,0
DA:92,210
DA:93,210
DA:94,210
DA:95,210
DA:96,210
DA:97,210
DA:99,210
DA:66,6
DA:69,6
DA:70,0
DA:71,6
DA:73,6
DA:76,6
DA:78,6
DA:79,6
DA:80,6
DA:85,0
DA:88,0
DA:89,0
DA:92,6
DA:93,6
DA:94,6
DA:95,6
DA:96,6
DA:97,6
DA:99,6
DA:66,6
DA:69,6
DA:70,0
DA:71,6
DA:73,6
DA:76,6
DA:78,6
DA:79,6
DA:80,6
DA:85,0
DA:88,0
DA:89,0
DA:92,6
DA:93,6
DA:94,6
DA:95,6
DA:96,6
DA:97,6
DA:99,6
DA:109,0
DA:112,0
DA:115,0
DA:117,0
DA:121,0
DA:125,0
DA:109,6
DA:112,6
DA:115,6
DA:117,6
DA:121,0
DA:125,6
DA:109,0
DA:112,0
DA:115,0
DA:117,0
DA:121,0
DA:125,0
DA:109,212
DA:112,212
DA:115,53
DA:117,53
DA:121,159
DA:125,212
DA:300,122
DA:304,122
DA:306,122
DA:308,122
DA:309,122
DA:310,122
DA:311,122
DA:313,122
DA:314,122
DA:315,122
DA:316,122
DA:317,122
DA:318,122
DA:320,0
DA:321,0
DA:324,0
DA:325,0
DA:326,0
DA:327,0
DA:329,0
DA:330,0
DA:332,0
DA:335,122
DA:300,2
DA:304,2
DA:306,2
DA:308,2
DA:309,2
DA:310,2
DA:311,2
DA:313,2
DA:314,2
DA:315,2
DA:316,2
DA:317,2
DA:318,2
DA:320,0
DA:321,0
DA:324,0
DA:325,0
DA:326,0
DA:327,0
DA:329,0
DA:330,0
DA:332,0
DA:335,2
DA:426,0
DA:436,0
DA:437,0
DA:438,0
DA:439,0
DA:440,0
DA:441,0
DA:449,0
DA:456,0
DA:459,0
DA:461,0
DA:462,0
DA:464,0
DA:466,0
DA:467,0
DA:474,0
DA:475,0
DA:477,0
DA:481,0
DA:482,0
DA:485,0
DA:487,0
DA:488,0
DA:491,0
DA:492,0
DA:493,0
DA:496,0
DA:498,0
DA:500,0
DA:501,0
DA:502,0
DA:503,0
DA:504,0
DA:505,0
DA:426,0
DA:436,0
DA:437,0
DA:438,0
DA:439,0
DA:440,0
DA:441,0
DA:449,0
DA:450,0
DA:456,0
DA:459,0
DA:461,0
DA:462,0
DA:464,0
DA:466,0
DA:467,0
DA:474,0
DA:475,0
DA:477,0
DA:481,0
DA:482,0
DA:485,0
DA:487,0
DA:488,0
DA:489,0
DA:491,0
DA:492,0
DA:493,0
DA:496,0
DA:498,0
DA:500,0
DA:501,0
DA:502,0
DA:503,0
DA:504,0
DA:505,0
DA:426,28
DA:436,28
DA:437,28
DA:438,28
DA:439,28
DA:440,28
DA:441,28
DA:449,28
DA:450,28
DA:456,28
DA:459,28
DA:461,28
DA:462,28
DA:464,28
DA:466,28
DA:467,28
DA:474,0
DA:475,0
DA:477,0
DA:481,0
DA:482,0
DA:485,0
DA:487,0
DA:488,0
DA:489,0
DA:491,0
DA:492,0
DA:493,0
DA:496,28
DA:498,0
DA:500,28
DA:501,28
DA:502,28
DA:503,28
DA:504,28
DA:505,28
DA:426,30
DA:436,30
DA:437,30
DA:438,30
DA:439,30
DA:440,30
DA:441,30
DA:449,30
DA:456,30
DA:459,30
DA:461,30
DA:462,30
DA:464,30
DA:466,30
DA:467,30
DA:474,0
DA:475,0
DA:477,0
DA:481,0
DA:482,0
DA:485,0
DA:487,0
DA:488,0
DA:491,0
DA:492,0
DA:493,0
DA:496,30
DA:498,0
DA:500,30
DA:501,30
DA:502,30
DA:503,30
DA:504,30
DA:505,30
DA:426,0
DA:436,0
DA:437,0
DA:438,0
DA:439,0
DA:440,0
DA:441,0
DA:449,0
DA:450,0
DA:456,0
DA:459,0
DA:461,0
DA:462,0
DA:464,0
DA:466,0
DA:467,0
DA:474,0
DA:475,0
DA:477,0
DA:481,0
DA:482,0
DA:485,0
DA:487,0
DA:488,0
DA:489,0
DA:491,0
DA:492,0
DA:493,0
DA:496,0
DA:498,0
DA:500,0
DA:501,0
DA:502,0
DA:503,0
DA:504,0
DA:505,0
DA:426,98
DA:436,98
DA:437,98
DA:438,98
DA:439,98
DA:440,98
DA:441,98
DA:449,98
DA:450,98
DA:456,98
DA:459,98
DA:461,98
DA:462,98
DA:464,98
DA:466,98
DA:467,98
DA:474,0
DA:475,0
DA:477,0
DA:481,0
DA:482,0
DA:485,0
DA:487,0
DA:488,0
DA:489,0
DA:491,0
DA:492,0
DA:493,0
DA:496,98
DA:498,0
DA:500,98
DA:501,98
DA:502,98
DA:503,98
DA:504,98
DA:505,98
DA:426,159
DA:436,159
DA:437,159
DA:438,159
DA:439,159
DA:440,159
DA:441,159
DA:449,159
DA:450,159
DA:456,159
DA:459,159
DA:461,159
DA:462,159
DA:464,159
DA:466,159
DA:467,159
DA:474,0
DA:475,0
DA:477,0
DA:481,0
DA:482,0
DA:485,0
DA:487,0
DA:488,0
DA:489,0
DA:491,0
DA:492,0
DA:493,0
DA:496,159
DA:498,0
DA:500,159
DA:501,159
DA:502,159
DA:503,159
DA:504,159
DA:505,159
DA:721,8
DA:725,8
DA:727,8
DA:728,8
DA:729,8
DA:731,0
DA:732,0
DA:733,0
DA:736,0
DA:739,0
DA:740,0
DA:742,0
DA:744,0
DA:748,0
DA:749,0
DA:751,0
DA:753,0
DA:754,0
DA:756,0
DA:759,0
DA:760,0
DA:762,0
DA:768,8
DA:769,8
DA:770,8
DA:775,8
DA:776,8
DA:778,8
DA:780,8
DA:783,8
DA:784,8
DA:786,0
DA:788,0
DA:789,0
DA:790,0
DA:791,0
DA:793,8
DA:794,8
DA:796,8
DA:797,8
DA:798,8
DA:799,8
DA:800,8
DA:801,8
DA:804,8
end_of_record
SF:/usr/include/c++/11/new
FN:174,_ZnwmPv
FNDA:0,_ZnwmPv
FN:180,_ZdlPvS_
FNDA:0,_ZdlPvS_
DA:174,0
DA:175,0
DA:180,0
end_of_record
SF:/usr/include/c++/11/bits/stl_set.h
FN:167,_ZNSt3setIN5Nexus3rpc15SubscriptionKeyESt4lessIS2_ESaIS2_EEC2Ev
FNDA:4,_ZNSt3setIN5Nexus3rpc15SubscriptionKeyESt4lessIS2_ESaIS2_EEC2Ev
FN:167,_ZNSt3setINSt7__cxx1112basic_stringIcSt11char_traitsIcESaIcEEESt4lessIS5_ESaIS5_EEC2Ev
FNDA:127,_ZNSt3setINSt7__cxx1112basic_stringIcSt11char_traitsIcESaIcEEESt4lessIS5_ESaIS5_EEC2Ev
FN:281,_ZNSt3setIN5Nexus3rpc15SubscriptionKeyESt4lessIS2_ESaIS2_EED2Ev
FNDA:4,_ZNSt3setIN5Nexus3rpc15SubscriptionKeyESt4lessIS2_ESaIS2_EED2Ev
FN:281,_ZNSt3setINSt7__cxx1112basic_stringIcSt11char_traitsIcESaIcEEESt4lessIS5_ESaIS5_EED2Ev
FNDA:127,_ZNSt3setINSt7__cxx1112basic_stringIcSt11char_traitsIcESaIcEEESt4lessIS5_ESaIS5_EED2Ev
FN:298,_ZNSt3setIN5Nexus3rpc15SubscriptionKeyESt4lessIS2_ESaIS2_EEaSERKS6_
FNDA:2,_ZNSt3setIN5Nexus3rpc15SubscriptionKeyESt4lessIS2_ESaIS2_EEaSERKS6_
FN:344,_ZNKSt3setINSt7__cxx1112basic_stringIcSt11char_traitsIcESaIcEEESt4lessIS5_ESaIS5_EE5beginEv
FNDA:40,_ZNKSt3setINSt7__cxx1112basic_stringIcSt11char_traitsIcESaIcEEESt4lessIS5_ESaIS5_EE5beginEv
FN:353,_ZNKSt3setINSt7__cxx1112basic_stringIcSt11char_traitsIcESaIcEEESt4lessIS5_ESaIS5_EE3endEv
FNDA:50,_ZNKSt3setINSt7__cxx1112basic_stringIcSt11char_traitsIcESaIcEEESt4lessIS5_ESaIS5_EE3endEv
FN:414,_ZNKSt3setINSt7__cxx1112basic_stringIcSt11char_traitsIcESaIcEEESt4lessIS5_ESaIS5_EE5emptyEv
FNDA:2,_ZNKSt3setINSt7__cxx1112basic_stringIcSt11char_traitsIcESaIcEEESt4lessIS5_ESaIS5_EE5emptyEv
FN:509,_ZNSt3setINSt7__cxx1112basic_stringIcSt11char_traitsIcESaIcEEESt4lessIS5_ESaIS5_EE6insertERKS5_
FNDA:20,_ZNSt3setINSt7__cxx1112basic_stringIcSt11char_traitsIcESaIcEEESt4lessIS5_ESaIS5_EE6insertERKS5_
FN:518,_ZNSt3setINSt7__cxx1112basic_stringIcSt11char_traitsIcESaIcEEESt4lessIS5_ESaIS5_EE6insertEOS5_
FNDA:10,_ZNSt3setINSt7__cxx1112basic_stringIcSt11char_traitsIcESaIcEEESt4lessIS5_ESaIS5_EE6insertEOS5_
FN:566,_ZNSt3setINSt7__cxx1112basic_stringIcSt11char_traitsIcESaIcEEESt4lessIS5_ESaIS5_EE6insertIN9__gnu_cxx17__normal_iteratorIPS5_St6vectorIS5_S8_EEEEEvT_SH_
FNDA:6,_ZNSt3setINSt7__cxx1112basic_stringIcSt11char_traitsIcESaIcEEESt4lessIS5_ESaIS5_EE6insertIN9__gnu_cxx17__normal_iteratorIPS5_St6vectorIS5_S8_EEEEEvT_SH_
FN:654,_ZNSt3setINSt7__cxx1112basic_stringIcSt11char_traitsIcESaIcEEESt4lessIS5_ESaIS5_EE5eraseB5cxx11ESt23_Rb_tree_const_iteratorIS5_E
FNDA:2,_ZNSt3setINSt7__cxx1112basic_stringIcSt11char_traitsIcESaIcEEESt4lessIS5_ESaIS5_EE5eraseB5cxx11ESt23_Rb_tree_const_iteratorIS5_E
FN:748,_ZNKSt3setINSt7__cxx1112basic_stringIcSt11char_traitsIcESaIcEEESt4lessIS5_ESaIS5_EE5countERKS5_
FNDA:4,_ZNKSt3setINSt7__cxx1112basic_stringIcSt11char_traitsIcESaIcEEESt4lessIS5_ESaIS5_EE5countERKS5_
FN:794,_ZNSt3setINSt7__cxx1112basic_stringIcSt11char_traitsIcESaIcEEESt4lessIS5_ESaIS5_EE4findERKS5_
FNDA:8,_ZNSt3setINSt7__cxx1112basic_stringIcSt11char_traitsIcESaIcEEESt4lessIS5_ESaIS5_EE4findERKS5_
FN:798,_ZNKSt3setINSt7__cxx1112basic_stringIcSt11char_traitsIcESaIcEEESt4lessIS5_ESaIS5_EE4findERKS5_
FNDA:2,_ZNKSt3setINSt7__cxx1112basic_stringIcSt11char_traitsIcESaIcEEESt4lessIS5_ESaIS5_EE4findERKS5_
DA:167,4
DA:167,127
DA:281,4
DA:281,127
DA:298,2
DA:344,40
DA:345,40
DA:353,50
DA:354,50
DA:414,2
DA:415,2
DA:509,20
DA:512,20
DA:513,20
DA:518,10
DA:521,10
DA:522,10
DA:566,6
DA:567,6
DA:654,2
DA:655,2
DA:748,4
DA:749,4
DA:794,8
DA:795,8
DA:798,2
DA:799,2
end_of_record
SF:/home/fz296w/workspace/Nexus/Nexus/include/nexus/core/Message.h
FN:62,_ZN5Nexus3rpc13MessagePacket10packetSizeEmmm
FNDA:9,_ZN5Nexus3rpc13MessagePacket10packetSizeEmmm
FN:67,_ZNK5Nexus3rpc13MessagePacket8getGroupEv
FNDA:24,_ZNK5Nexus3rpc13MessagePacket8getGroupEv
FN:70,_ZN5Nexus3rpc13MessagePacket8getGroupEv
FNDA:9,_ZN5Nexus3rpc13MessagePacket8getGroupEv
FN:75,_ZNK5Nexus3rpc13MessagePacket8getTopicEv
FNDA:24,_ZNK5Nexus3rpc13MessagePacket8getTopicEv
FN:78,_ZN5Nexus3rpc13MessagePacket8getTopicEv
FNDA:9,_ZN5Nexus3rpc13MessagePacket8getTopicEv
FN:83,_ZNK5Nexus3rpc13MessagePacket10getPayloadEv
FNDA:123,_ZNK5Nexus3rpc13MessagePacket10getPayloadEv
FN:86,_ZN5Nexus3rpc13MessagePacket10getPayloadEv
FNDA:9,_ZN5Nexus3rpc13MessagePacket10getPayloadEv
FN:91,_ZNK5Nexus3rpc13MessagePacket17calculateChecksumEv
FNDA:13,_ZNK5Nexus3rpc13MessagePacket17calculateChecksumEv
FN:117,_ZNK5Nexus3rpc13MessagePacket7isValidEv
FNDA:158,_ZNK5Nexus3rpc13MessagePacket7isValidEv
FN:157,_ZN5Nexus3rpc14MessageBuilder5buildERKNSt7__cxx1112basic_stringIcSt11char_traitsIcESaIcEEES9_S9_S9_tNS0_11MessageTypeE
FNDA:24,_ZN5Nexus3rpc14MessageBuilder5buildERKNSt7__cxx1112basic_stringIcSt11char_traitsIcESaIcEEES9_S9_S9_tNS0_11MessageTypeE
FN:164,_ZN5Nexus3rpc14MessageBuilder5buildERKNSt7__cxx1112basic_stringIcSt11char_traitsIcESaIcEEES9_S9_PKhmtNS0_11MessageTypeE
FNDA:9,_ZN5Nexus3rpc14MessageBuilder5buildERKNSt7__cxx1112basic_stringIcSt11char_traitsIcESaIcEEES9_S9_PKhmtNS0_11MessageTypeE
DA:62,9
DA:63,9
DA:67,24
DA:68,24
DA:70,9
DA:71,9
DA:75,24
DA:76,24
DA:78,9
DA:79,9
DA:83,123
DA:84,123
DA:86,9
DA:87,9
DA:91,13
DA:92,13
DA:93,13
DA:94,13
DA:95,13
DA:96,13
DA:97,13
DA:98,13
DA:99,13
DA:102,271
DA:103,258
DA:107,13
DA:108,13
DA:109,48
DA:110,35
DA:113,13
DA:117,158
DA:118,158
DA:119,4
DA:120,154
DA:121,0
DA:122,154
DA:123,0
DA:124,154
DA:125,0
DA:126,154
DA:127,0
DA:128,154
DA:157,24
DA:160,24
DA:161,48
DA:164,9
DA:167,9
DA:168,9
DA:170,9
DA:171,9
DA:172,9
DA:173,9
DA:174,9
DA:175,9
DA:176,9
DA:177,9
DA:178,9
DA:181,9
DA:182,9
DA:185,9
DA:186,9
DA:187,9
DA:190,9
DA:192,9
end_of_record
SF:/usr/include/c++/11/bits/this_thread_sleep.h
FN:70,_ZNSt11this_thread9sleep_forIlSt5ratioILl1ELl1000EEEEvRKNSt6chrono8durationIT_T0_EE
FNDA:0,_ZNSt11this_thread9sleep_forIlSt5ratioILl1ELl1000EEEEvRKNSt6chrono8durationIT_T0_EE
FN:70,_ZNSt11this_thread9sleep_forIlSt5ratioILl1ELl1EEEEvRKNSt6chrono8durationIT_T0_EE
FNDA:63,_ZNSt11this_thread9sleep_forIlSt5ratioILl1ELl1EEEEvRKNSt6chrono8durationIT_T0_EE
DA:70,0
DA:72,0
DA:73,0
DA:74,0
DA:75,0
DA:77,0
DA:79,0
DA:80,0
DA:82,0
DA:70,63
DA:72,63
DA:73,0
DA:74,63
DA:75,63
DA:77,126
DA:79,63
DA:80,63
DA:82,63
end_of_record
SF:/usr/include/c++/11/bits/allocated_ptr.h
FN:53,_ZNSt15__allocated_ptrISaISt23_Sp_counted_ptr_inplaceIN5Nexus3rpc8NodeImplESaIS3_ELN9__gnu_cxx12_Lock_policyE2EEEEC2ERS8_PS7_
FNDA:4,_ZNSt15__allocated_ptrISaISt23_Sp_counted_ptr_inplaceIN5Nexus3rpc8NodeImplESaIS3_ELN9__gnu_cxx12_Lock_policyE2EEEEC2ERS8_PS7_
FN:71,_ZNSt15__allocated_ptrISaISt23_Sp_counted_ptr_inplaceIN5Nexus3rpc8NodeImplESaIS3_ELN9__gnu_cxx12_Lock_policyE2EEEED2Ev
FNDA:4,_ZNSt15__allocated_ptrISaISt23_Sp_counted_ptr_inplaceIN5Nexus3rpc8NodeImplESaIS3_ELN9__gnu_cxx12_Lock_policyE2EEEED2Ev
FN:79,_ZNSt15__allocated_ptrISaISt23_Sp_counted_ptr_inplaceIN5Nexus3rpc8NodeImplESaIS3_ELN9__gnu_cxx12_Lock_policyE2EEEEaSEDn
FNDA:2,_ZNSt15__allocated_ptrISaISt23_Sp_counted_ptr_inplaceIN5Nexus3rpc8NodeImplESaIS3_ELN9__gnu_cxx12_Lock_policyE2EEEEaSEDn
FN:86,_ZNSt15__allocated_ptrISaISt23_Sp_counted_ptr_inplaceIN5Nexus3rpc8NodeImplESaIS3_ELN9__gnu_cxx12_Lock_policyE2EEEE3getEv
FNDA:2,_ZNSt15__allocated_ptrISaISt23_Sp_counted_ptr_inplaceIN5Nexus3rpc8NodeImplESaIS3_ELN9__gnu_cxx12_Lock_policyE2EEEE3getEv
FN:96,_ZSt18__allocate_guardedISaISt23_Sp_counted_ptr_inplaceIN5Nexus3rpc8NodeImplESaIS3_ELN9__gnu_cxx12_Lock_policyE2EEEESt15__allocated_ptrIT_ERSA_
FNDA:2,_ZSt18__allocate_guardedISaISt23_Sp_counted_ptr_inplaceIN5Nexus3rpc8NodeImplESaIS3_ELN9__gnu_cxx12_Lock_policyE2EEEESt15__allocated_ptrIT_ERSA_
DA:53,4
DA:54,4
DA:55,4
DA:71,4
DA:73,4
DA:74,2
DA:75,4
DA:79,2
DA:81,2
DA:82,2
DA:86,2
DA:96,2
DA:98,2
end_of_record
SF:/usr/include/c++/11/ext/string_conversions.h
FN:54,_ZN9__gnu_cxx6__stoaIlicJiEEET0_PFT_PKT1_PPS3_DpT2_EPKcS5_PmS9_
FNDA:2,_ZN9__gnu_cxx6__stoaIlicJiEEET0_PFT_PKT1_PPS3_DpT2_EPKcS5_PmS9_
FN:63,_ZZN9__gnu_cxx6__stoaIlicJiEEET0_PFT_PKT1_PPS3_DpT2_EPKcS5_PmS9_EN11_Save_errnoC2Ev
FNDA:2,_ZZN9__gnu_cxx6__stoaIlicJiEEET0_PFT_PKT1_PPS3_DpT2_EPKcS5_PmS9_EN11_Save_errnoC2Ev
FN:64,_ZZN9__gnu_cxx6__stoaIlicJiEEET0_PFT_PKT1_PPS3_DpT2_EPKcS5_PmS9_EN11_Save_errnoD2Ev
FNDA:2,_ZZN9__gnu_cxx6__stoaIlicJiEEET0_PFT_PKT1_PPS3_DpT2_EPKcS5_PmS9_EN11_Save_errnoD2Ev
FN:73,_ZZN9__gnu_cxx6__stoaIlicJiEEET0_PFT_PKT1_PPS3_DpT2_EPKcS5_PmS9_EN10_Range_chk6_S_chkElSt17integral_constantIbLb1EE
FNDA:2,_ZZN9__gnu_cxx6__stoaIlicJiEEET0_PFT_PKT1_PPS3_DpT2_EPKcS5_PmS9_EN10_Range_chk6_S_chkElSt17integral_constantIbLb1EE
DA:54,2
DA:63,2
DA:64,2
DA:66,2
DA:73,2
DA:76,2
DA:80,2
DA:82,2
DA:83,0
DA:84,4
DA:85,2
DA:86,0
DA:88,2
DA:90,2
DA:91,0
DA:93,2
DA:94,2
end_of_record
SF:/usr/include/c++/11/ext/type_traits.h
FN:152,_ZN9__gnu_cxx17__is_null_pointerIcEEbPT_
FNDA:0,_ZN9__gnu_cxx17__is_null_pointerIcEEbPT_
FN:152,_ZN9__gnu_cxx17__is_null_pointerIKcEEbPT_
FNDA:0,_ZN9__gnu_cxx17__is_null_pointerIKcEEbPT_
DA:152,0
DA:153,0
DA:152,0
DA:153,0
end_of_record
SF:/usr/include/c++/11/bits/stl_deque.h
FN:96,_ZSt16__deque_buf_sizem
FNDA:1962,_ZSt16__deque_buf_sizem
FN:131,_ZNSt15_Deque_iteratorIN5Nexus3rpc8NodeImpl14PendingMessageERS3_PS3_E14_S_buffer_sizeEv
FNDA:446,_ZNSt15_Deque_iteratorIN5Nexus3rpc8NodeImpl14PendingMessageERS3_PS3_E14_S_buffer_sizeEv
FN:131,_ZNSt15_Deque_iteratorIN5Nexus3rpc8NodeImpl13SystemMessageERS3_PS3_E14_S_buffer_sizeEv
FNDA:352,_ZNSt15_Deque_iteratorIN5Nexus3rpc8NodeImpl13SystemMessageERS3_PS3_E14_S_buffer_sizeEv
FN:151,_ZNSt15_Deque_iteratorIN5Nexus3rpc8NodeImpl13SystemMessageERS3_PS3_EC2Ev
FNDA:110,_ZNSt15_Deque_iteratorIN5Nexus3rpc8NodeImpl13SystemMessageERS3_PS3_EC2Ev
FN:151,_ZNSt15_Deque_iteratorIN5Nexus3rpc8NodeImpl14PendingMessageERS3_PS3_EC2Ev
FNDA:440,_ZNSt15_Deque_iteratorIN5Nexus3rpc8NodeImpl14PendingMessageERS3_PS3_EC2Ev
FN:168,_ZNSt15_Deque_iteratorIN5Nexus3rpc8NodeImpl13SystemMessageERS3_PS3_EC2ERKS6_
FNDA:358,_ZNSt15_Deque_iteratorIN5Nexus3rpc8NodeImpl13SystemMessageERS3_PS3_EC2ERKS6_
FN:168,_ZNSt15_Deque_iteratorIN5Nexus3rpc8NodeImpl14PendingMessageERS3_PS3_EC2ERKS6_
FNDA:886,_ZNSt15_Deque_iteratorIN5Nexus3rpc8NodeImpl14PendingMessageERS3_PS3_EC2ERKS6_
FN:180,_ZNKSt15_Deque_iteratorIN5Nexus3rpc8NodeImpl13SystemMessageERS3_PS3_EdeEv
FNDA:138,_ZNKSt15_Deque_iteratorIN5Nexus3rpc8NodeImpl13SystemMessageERS3_PS3_EdeEv
FN:180,_ZNKSt15_Deque_iteratorIN5Nexus3rpc8NodeImpl14PendingMessageERS3_PS3_EdeEv
FNDA:6,_ZNKSt15_Deque_iteratorIN5Nexus3rpc8NodeImpl14PendingMessageERS3_PS3_EdeEv
FN:260,_ZNSt15_Deque_iteratorIN5Nexus3rpc8NodeImpl14PendingMessageERS3_PS3_E11_M_set_nodeEPS5_
FNDA:440,_ZNSt15_Deque_iteratorIN5Nexus3rpc8NodeImpl14PendingMessageERS3_PS3_E11_M_set_nodeEPS5_
FN:260,_ZNSt15_Deque_iteratorIN5Nexus3rpc8NodeImpl13SystemMessageERS3_PS3_E11_M_set_nodeEPS5_
FNDA:182,_ZNSt15_Deque_iteratorIN5Nexus3rpc8NodeImpl13SystemMessageERS3_PS3_E11_M_set_nodeEPS5_
FN:268,_ZSteqRKSt15_Deque_iteratorIN5Nexus3rpc8NodeImpl13SystemMessageERS3_PS3_ES8_
FNDA:413,_ZSteqRKSt15_Deque_iteratorIN5Nexus3rpc8NodeImpl13SystemMessageERS3_PS3_ES8_
FN:268,_ZSteqRKSt15_Deque_iteratorIN5Nexus3rpc8NodeImpl14PendingMessageERS3_PS3_ES8_
FNDA:232,_ZSteqRKSt15_Deque_iteratorIN5Nexus3rpc8NodeImpl14PendingMessageERS3_PS3_ES8_
FN:353,_ZStmiRKSt15_Deque_iteratorIN5Nexus3rpc8NodeImpl14PendingMessageERS3_PS3_ES8_
FNDA:6,_ZStmiRKSt15_Deque_iteratorIN5Nexus3rpc8NodeImpl14PendingMessageERS3_PS3_ES8_
FN:353,_ZStmiRKSt15_Deque_iteratorIN5Nexus3rpc8NodeImpl13SystemMessageERS3_PS3_ES8_
FNDA:170,_ZStmiRKSt15_Deque_iteratorIN5Nexus3rpc8NodeImpl13SystemMessageERS3_PS3_ES8_
FN:437,_ZNSt11_Deque_baseIN5Nexus3rpc8NodeImpl13SystemMessageESaIS3_EEC2Ev
FNDA:55,_ZNSt11_Deque_baseIN5Nexus3rpc8NodeImpl13SystemMessageESaIS3_EEC2Ev
FN:437,_ZNSt11_Deque_baseIN5Nexus3rpc8NodeImpl14PendingMessageESaIS3_EEC2Ev
FNDA:220,_ZNSt11_Deque_baseIN5Nexus3rpc8NodeImpl14PendingMessageESaIS3_EEC2Ev
FN:495,_ZNSt11_Deque_baseIN5Nexus3rpc8NodeImpl14PendingMessageESaIS3_EE16_Deque_impl_dataC2Ev
FNDA:220,_ZNSt11_Deque_baseIN5Nexus3rpc8NodeImpl14PendingMessageESaIS3_EE16_Deque_impl_dataC2Ev
FN:495,_ZNSt11_Deque_baseIN5Nexus3rpc8NodeImpl13SystemMessageESaIS3_EE16_Deque_impl_dataC2Ev
FNDA:55,_ZNSt11_Deque_baseIN5Nexus3rpc8NodeImpl13SystemMessageESaIS3_EE16_Deque_impl_dataC2Ev
FN:524,_ZNSt11_Deque_baseIN5Nexus3rpc8NodeImpl14PendingMessageESaIS3_EE11_Deque_implC2Ev
FNDA:220,_ZNSt11_Deque_baseIN5Nexus3rpc8NodeImpl14PendingMessageESaIS3_EE11_Deque_implC2Ev
FN:524,_ZNSt11_Deque_baseIN5Nexus3rpc8NodeImpl13SystemMessageESaIS3_EE11_Deque_implC2Ev
FNDA:55,_ZNSt11_Deque_baseIN5Nexus3rpc8NodeImpl13SystemMessageESaIS3_EE11_Deque_implC2Ev
FN:547,_ZNSt11_Deque_baseIN5Nexus3rpc8NodeImpl14PendingMessageESaIS3_EE19_M_get_Tp_allocatorEv
FNDA:446,_ZNSt11_Deque_baseIN5Nexus3rpc8NodeImpl14PendingMessageESaIS3_EE19_M_get_Tp_allocatorEv
FN:547,_ZNSt11_Deque_baseIN5Nexus3rpc8NodeImpl13SystemMessageESaIS3_EE19_M_get_Tp_allocatorEv
FNDA:248,_ZNSt11_Deque_baseIN5Nexus3rpc8NodeImpl13SystemMessageESaIS3_EE19_M_get_Tp_allocatorEv
FN:551,_ZNKSt11_Deque_baseIN5Nexus3rpc8NodeImpl13SystemMessageESaIS3_EE19_M_get_Tp_allocatorEv
FNDA:142,_ZNKSt11_Deque_baseIN5Nexus3rpc8NodeImpl13SystemMessageESaIS3_EE19_M_get_Tp_allocatorEv
FN:551,_ZNKSt11_Deque_baseIN5Nexus3rpc8NodeImpl14PendingMessageESaIS3_EE19_M_get_Tp_allocatorEv
FNDA:440,_ZNKSt11_Deque_baseIN5Nexus3rpc8NodeImpl14PendingMessageESaIS3_EE19_M_get_Tp_allocatorEv
FN:555,_ZNKSt11_Deque_baseIN5Nexus3rpc8NodeImpl14PendingMessageESaIS3_EE20_M_get_map_allocatorEv
FNDA:440,_ZNKSt11_Deque_baseIN5Nexus3rpc8NodeImpl14PendingMessageESaIS3_EE20_M_get_map_allocatorEv
FN:555,_ZNKSt11_Deque_baseIN5Nexus3rpc8NodeImpl13SystemMessageESaIS3_EE20_M_get_map_allocatorEv
FNDA:110,_ZNKSt11_Deque_baseIN5Nexus3rpc8NodeImpl13SystemMessageESaIS3_EE20_M_get_map_allocatorEv
FN:559,_ZNSt11_Deque_baseIN5Nexus3rpc8NodeImpl14PendingMessageESaIS3_EE16_M_allocate_nodeEv
FNDA:220,_ZNSt11_Deque_baseIN5Nexus3rpc8NodeImpl14PendingMessageESaIS3_EE16_M_allocate_nodeEv
FN:559,_ZNSt11_Deque_baseIN5Nexus3rpc8NodeImpl13SystemMessageESaIS3_EE16_M_allocate_nodeEv
FNDA:87,_ZNSt11_Deque_baseIN5Nexus3rpc8NodeImpl13SystemMessageESaIS3_EE16_M_allocate_nodeEv
FN:566,_ZNSt11_Deque_baseIN5Nexus3rpc8NodeImpl13SystemMessageESaIS3_EE18_M_deallocate_nodeEPS3_
FNDA:87,_ZNSt11_Deque_baseIN5Nexus3rpc8NodeImpl13SystemMessageESaIS3_EE18_M_deallocate_nodeEPS3_
FN:566,_ZNSt11_Deque_baseIN5Nexus3rpc8NodeImpl14PendingMessageESaIS3_EE18_M_deallocate_nodeEPS3_
FNDA:220,_ZNSt11_Deque_baseIN5Nexus3rpc8NodeImpl14PendingMessageESaIS3_EE18_M_deallocate_nodeEPS3_
FN:573,_ZNSt11_Deque_baseIN5Nexus3rpc8NodeImpl14PendingMessageESaIS3_EE15_M_allocate_mapEm
FNDA:220,_ZNSt11_Deque_baseIN5Nexus3rpc8NodeImpl14PendingMessageESaIS3_EE15_M_allocate_mapEm
FN:573,_ZNSt11_Deque_baseIN5Nexus3rpc8NodeImpl13SystemMessageESaIS3_EE15_M_allocate_mapEm
FNDA:55,_ZNSt11_Deque_baseIN5Nexus3rpc8NodeImpl13SystemMessageESaIS3_EE15_M_allocate_mapEm
FN:580,_ZNSt11_Deque_baseIN5Nexus3rpc8NodeImpl13SystemMessageESaIS3_EE17_M_deallocate_mapEPPS3_m
FNDA:55,_ZNSt11_Deque_baseIN5Nexus3rpc8NodeImpl13SystemMessageESaIS3_EE17_M_deallocate_mapEPPS3_m
FN:580,_ZNSt11_Deque_baseIN5Nexus3rpc8NodeImpl14PendingMessageESaIS3_EE17_M_deallocate_mapEPPS3_m
FNDA:220,_ZNSt11_Deque_baseIN5Nexus3rpc8NodeImpl14PendingMessageESaIS3_EE17_M_deallocate_mapEPPS3_m
FN:596,_ZNSt11_Deque_baseIN5Nexus3rpc8NodeImpl13SystemMessageESaIS3_EED2Ev
FNDA:55,_ZNSt11_Deque_baseIN5Nexus3rpc8NodeImpl13SystemMessageESaIS3_EED2Ev
FN:596,_ZNSt11_Deque_baseIN5Nexus3rpc8NodeImpl14PendingMessageESaIS3_EED2Ev
FNDA:220,_ZNSt11_Deque_baseIN5Nexus3rpc8NodeImpl14PendingMessageESaIS3_EED2Ev
FN:617,_ZNSt11_Deque_baseIN5Nexus3rpc8NodeImpl13SystemMessageESaIS3_EE17_M_initialize_mapEm
FNDA:55,_ZNSt11_Deque_baseIN5Nexus3rpc8NodeImpl13SystemMessageESaIS3_EE17_M_initialize_mapEm
FN:617,_ZNSt11_Deque_baseIN5Nexus3rpc8NodeImpl14PendingMessageESaIS3_EE17_M_initialize_mapEm
FNDA:220,_ZNSt11_Deque_baseIN5Nexus3rpc8NodeImpl14PendingMessageESaIS3_EE17_M_initialize_mapEm
FN:656,_ZNSt11_Deque_baseIN5Nexus3rpc8NodeImpl13SystemMessageESaIS3_EE15_M_create_nodesEPPS3_S7_
FNDA:55,_ZNSt11_Deque_baseIN5Nexus3rpc8NodeImpl13SystemMessageESaIS3_EE15_M_create_nodesEPPS3_S7_
FN:656,_ZNSt11_Deque_baseIN5Nexus3rpc8NodeImpl14PendingMessageESaIS3_EE15_M_create_nodesEPPS3_S7_
FNDA:220,_ZNSt11_Deque_baseIN5Nexus3rpc8NodeImpl14PendingMessageESaIS3_EE15_M_create_nodesEPPS3_S7_
FN:674,_ZNSt11_Deque_baseIN5Nexus3rpc8NodeImpl13SystemMessageESaIS3_EE16_M_destroy_nodesEPPS3_S7_
FNDA:55,_ZNSt11_Deque_baseIN5Nexus3rpc8NodeImpl13SystemMessageESaIS3_EE16_M_destroy_nodesEPPS3_S7_
FN:674,_ZNSt11_Deque_baseIN5Nexus3rpc8NodeImpl14PendingMessageESaIS3_EE16_M_destroy_nodesEPPS3_S7_
FNDA:220,_ZNSt11_Deque_baseIN5Nexus3rpc8NodeImpl14PendingMessageESaIS3_EE16_M_destroy_nodesEPPS3_S7_
FN:807,_ZNSt5dequeIN5Nexus3rpc8NodeImpl13SystemMessageESaIS3_EE14_S_buffer_sizeEv
FNDA:0,_ZNSt5dequeIN5Nexus3rpc8NodeImpl13SystemMessageESaIS3_EE14_S_buffer_sizeEv
FN:807,_ZNSt5dequeIN5Nexus3rpc8NodeImpl14PendingMessageESaIS3_EE14_S_buffer_sizeEv
FNDA:0,_ZNSt5dequeIN5Nexus3rpc8NodeImpl14PendingMessageESaIS3_EE14_S_buffer_sizeEv
FN:834,_ZNSt5dequeIN5Nexus3rpc8NodeImpl14PendingMessageESaIS3_EEC2Ev
FNDA:220,_ZNSt5dequeIN5Nexus3rpc8NodeImpl14PendingMessageESaIS3_EEC2Ev
FN:834,_ZNSt5dequeIN5Nexus3rpc8NodeImpl13SystemMessageESaIS3_EEC2Ev
FNDA:55,_ZNSt5dequeIN5Nexus3rpc8NodeImpl13SystemMessageESaIS3_EEC2Ev
FN:1006,_ZNSt5dequeIN5Nexus3rpc8NodeImpl14PendingMessageESaIS3_EED2Ev
FNDA:220,_ZNSt5dequeIN5Nexus3rpc8NodeImpl14PendingMessageESaIS3_EED2Ev
FN:1006,_ZNSt5dequeIN5Nexus3rpc8NodeImpl13SystemMessageESaIS3_EED2Ev
FNDA:55,_ZNSt5dequeIN5Nexus3rpc8NodeImpl13SystemMessageESaIS3_EED2Ev
FN:1128,_ZNSt5dequeIN5Nexus3rpc8NodeImpl14PendingMessageESaIS3_EE5beginEv
FNDA:226,_ZNSt5dequeIN5Nexus3rpc8NodeImpl14PendingMessageESaIS3_EE5beginEv
FN:1128,_ZNSt5dequeIN5Nexus3rpc8NodeImpl13SystemMessageESaIS3_EE5beginEv
FNDA:193,_ZNSt5dequeIN5Nexus3rpc8NodeImpl13SystemMessageESaIS3_EE5beginEv
FN:1145,_ZNSt5dequeIN5Nexus3rpc8NodeImpl14PendingMessageESaIS3_EE3endEv
FNDA:220,_ZNSt5dequeIN5Nexus3rpc8NodeImpl14PendingMessageESaIS3_EE3endEv
FN:1145,_ZNSt5dequeIN5Nexus3rpc8NodeImpl13SystemMessageESaIS3_EE3endEv
FNDA:55,_ZNSt5dequeIN5Nexus3rpc8NodeImpl13SystemMessageESaIS3_EE3endEv
FN:1233,_ZNKSt5dequeIN5Nexus3rpc8NodeImpl13SystemMessageESaIS3_EE4sizeEv
FNDA:170,_ZNKSt5dequeIN5Nexus3rpc8NodeImpl13SystemMessageESaIS3_EE4sizeEv
FN:1233,_ZNKSt5dequeIN5Nexus3rpc8NodeImpl14PendingMessageESaIS3_EE4sizeEv
FNDA:6,_ZNKSt5dequeIN5Nexus3rpc8NodeImpl14PendingMessageESaIS3_EE4sizeEv
FN:1238,_ZNKSt5dequeIN5Nexus3rpc8NodeImpl14PendingMessageESaIS3_EE8max_sizeEv
FNDA:0,_ZNKSt5dequeIN5Nexus3rpc8NodeImpl14PendingMessageESaIS3_EE8max_sizeEv
FN:1238,_ZNKSt5dequeIN5Nexus3rpc8NodeImpl13SystemMessageESaIS3_EE8max_sizeEv
FNDA:32,_ZNKSt5dequeIN5Nexus3rpc8NodeImpl13SystemMessageESaIS3_EE8max_sizeEv
FN:1311,_ZNKSt5dequeIN5Nexus3rpc8NodeImpl14PendingMessageESaIS3_EE5emptyEv
FNDA:232,_ZNKSt5dequeIN5Nexus3rpc8NodeImpl14PendingMessageESaIS3_EE5emptyEv
FN:1311,_ZNKSt5dequeIN5Nexus3rpc8NodeImpl13SystemMessageESaIS3_EE5emptyEv
FNDA:413,_ZNKSt5dequeIN5Nexus3rpc8NodeImpl13SystemMessageESaIS3_EE5emptyEv
FN:1405,_ZNSt5dequeIN5Nexus3rpc8NodeImpl14PendingMessageESaIS3_EE5frontEv
FNDA:6,_ZNSt5dequeIN5Nexus3rpc8NodeImpl14PendingMessageESaIS3_EE5frontEv
FN:1405,_ZNSt5dequeIN5Nexus3rpc8NodeImpl13SystemMessageESaIS3_EE5frontEv
FNDA:138,_ZNSt5dequeIN5Nexus3rpc8NodeImpl13SystemMessageESaIS3_EE5frontEv
FN:1511,_ZNSt5dequeIN5Nexus3rpc8NodeImpl13SystemMessageESaIS3_EE9push_backEOS3_
FNDA:138,_ZNSt5dequeIN5Nexus3rpc8NodeImpl13SystemMessageESaIS3_EE9push_backEOS3_
FN:1511,_ZNSt5dequeIN5Nexus3rpc8NodeImpl14PendingMessageESaIS3_EE9push_backEOS3_
FNDA:6,_ZNSt5dequeIN5Nexus3rpc8NodeImpl14PendingMessageESaIS3_EE9push_backEOS3_
FN:1532,_ZNSt5dequeIN5Nexus3rpc8NodeImpl14PendingMessageESaIS3_EE9pop_frontEv
FNDA:6,_ZNSt5dequeIN5Nexus3rpc8NodeImpl14PendingMessageESaIS3_EE9pop_frontEv
FN:1532,_ZNSt5dequeIN5Nexus3rpc8NodeImpl13SystemMessageESaIS3_EE9pop_frontEv
FNDA:138,_ZNSt5dequeIN5Nexus3rpc8NodeImpl13SystemMessageESaIS3_EE9pop_frontEv
FN:1834,_ZNSt5dequeIN5Nexus3rpc8NodeImpl14PendingMessageESaIS3_EE11_S_max_sizeERKS4_
FNDA:0,_ZNSt5dequeIN5Nexus3rpc8NodeImpl14PendingMessageESaIS3_EE11_S_max_sizeERKS4_
FN:1834,_ZNSt5dequeIN5Nexus3rpc8NodeImpl13SystemMessageESaIS3_EE11_S_max_sizeERKS4_
FNDA:32,_ZNSt5dequeIN5Nexus3rpc8NodeImpl13SystemMessageESaIS3_EE11_S_max_sizeERKS4_
FN:2045,_ZNSt5dequeIN5Nexus3rpc8NodeImpl14PendingMessageESaIS3_EE15_M_destroy_dataESt15_Deque_iteratorIS3_RS3_PS3_ES9_RKS4_
FNDA:220,_ZNSt5dequeIN5Nexus3rpc8NodeImpl14PendingMessageESaIS3_EE15_M_destroy_dataESt15_Deque_iteratorIS3_RS3_PS3_ES9_RKS4_
FN:2045,_ZNSt5dequeIN5Nexus3rpc8NodeImpl13SystemMessageESaIS3_EE15_M_destroy_dataESt15_Deque_iteratorIS3_RS3_PS3_ES9_RKS4_
FNDA:55,_ZNSt5dequeIN5Nexus3rpc8NodeImpl13SystemMessageESaIS3_EE15_M_destroy_dataESt15_Deque_iteratorIS3_RS3_PS3_ES9_RKS4_
FN:2126,_ZNSt5dequeIN5Nexus3rpc8NodeImpl13SystemMessageESaIS3_EE22_M_reserve_map_at_backEm
FNDA:32,_ZNSt5dequeIN5Nexus3rpc8NodeImpl13SystemMessageESaIS3_EE22_M_reserve_map_at_backEm
FN:2126,_ZNSt5dequeIN5Nexus3rpc8NodeImpl14PendingMessageESaIS3_EE22_M_reserve_map_at_backEm
FNDA:0,_ZNSt5dequeIN5Nexus3rpc8NodeImpl14PendingMessageESaIS3_EE22_M_reserve_map_at_backEm
DA:96,1962
DA:98,1962
DA:131,352
DA:132,352
DA:131,446
DA:132,446
DA:151,110
DA:152,110
DA:151,440
DA:152,440
DA:168,358
DA:169,358
DA:170,358
DA:168,886
DA:169,886
DA:170,886
DA:180,138
DA:181,138
DA:180,6
DA:181,6
DA:260,182
DA:262,182
DA:263,182
DA:264,182
DA:265,182
DA:260,440
DA:262,440
DA:263,440
DA:264,440
DA:265,440
DA:268,413
DA:269,413
DA:268,232
DA:269,232
DA:353,170
DA:355,170
DA:356,170
DA:357,170
DA:358,170
DA:353,6
DA:355,6
DA:356,6
DA:357,6
DA:358,6
DA:437,55
DA:438,55
DA:439,55
DA:437,220
DA:438,220
DA:439,220
DA:495,55
DA:496,55
DA:497,55
DA:495,220
DA:496,220
DA:497,220
DA:524,55
DA:526,55
DA:527,55
DA:524,220
DA:526,220
DA:527,220
DA:547,248
DA:548,248
DA:547,446
DA:548,446
DA:551,142
DA:552,142
DA:551,440
DA:552,440
DA:555,110
DA:556,110
DA:555,440
DA:556,440
DA:559,87
DA:562,87
DA:559,220
DA:562,220
DA:566,87
DA:569,87
DA:570,87
DA:566,220
DA:569,220
DA:570,220
DA:573,55
DA:575,55
DA:576,110
DA:577,55
DA:573,220
DA:575,220
DA:576,440
DA:577,220
DA:580,55
DA:582,55
DA:583,55
DA:584,55
DA:580,220
DA:582,220
DA:583,220
DA:584,220
DA:596,55
DA:599,55
DA:601,55
DA:602,55
DA:603,55
DA:605,55
DA:596,220
DA:599,220
DA:601,220
DA:602,220
DA:603,220
DA:605,220
DA:617,55
DA:620,55
DA:623,110
DA:624,55
DA:625,55
DA:632,55
DA:633,55
DA:634,55
DA:637,55
DA:638,0
DA:640,0
DA:641,0
DA:642,0
DA:643,0
DA:646,55
DA:647,55
DA:648,55
DA:649,110
DA:650,55
DA:651,55
DA:652,55
DA:617,220
DA:620,220
DA:623,440
DA:624,220
DA:625,220
DA:632,220
DA:633,220
DA:634,220
DA:637,220
DA:638,0
DA:640,0
DA:641,0
DA:642,0
DA:643,0
DA:646,220
DA:647,220
DA:648,220
DA:649,440
DA:650,220
DA:651,220
DA:652,220
DA:656,55
DA:662,110
DA:663,55
DA:665,0
DA:667,0
DA:668,0
DA:670,55
DA:656,220
DA:662,440
DA:663,220
DA:665,0
DA:667,0
DA:668,0
DA:670,220
DA:674,55
DA:678,110
DA:679,55
DA:680,55
DA:674,220
DA:678,440
DA:679,220
DA:680,220
DA:807,0
DA:808,0
DA:807,0
DA:808,0
DA:834,55
DA:834,220
DA:1006,55
DA:1007,55
DA:1006,220
DA:1007,220
DA:1128,193
DA:1129,193
DA:1128,226
DA:1129,226
DA:1145,55
DA:1146,55
DA:1145,220
DA:1146,220
DA:1233,170
DA:1234,170
DA:1233,6
DA:1234,6
DA:1238,32
DA:1239,32
DA:1238,0
DA:1239,0
DA:1311,413
DA:1312,413
DA:1311,232
DA:1312,232
DA:1405,138
DA:1408,138
DA:1405,6
DA:1408,6
DA:1511,138
DA:1512,138
DA:1511,6
DA:1512,6
DA:1532,138
DA:1535,138
DA:1536,138
DA:1538,106
DA:1540,106
DA:1543,32
DA:1544,138
DA:1532,6
DA:1535,6
DA:1536,6
DA:1538,6
DA:1540,6
DA:1543,0
DA:1544,6
DA:1834,32
DA:1836,32
DA:1837,32
DA:1838,32
DA:1834,0
DA:1836,0
DA:1837,0
DA:1838,0
DA:2045,55
DA:2049,55
DA:2050,55
DA:2045,220
DA:2049,220
DA:2050,220
DA:2126,32
DA:2128,32
DA:2129,32
DA:2130,4
DA:2131,32
DA:2126,0
DA:2128,0
DA:2129,0
DA:2130,0
DA:2131,0
end_of_record
SF:/usr/include/c++/11/bits/unique_lock.h
FN:66,_ZNSt11unique_lockISt5mutexEC2ERS0_
FNDA:900,_ZNSt11unique_lockISt5mutexEC2ERS0_
FN:101,_ZNSt11unique_lockISt5mutexED2Ev
FNDA:880,_ZNSt11unique_lockISt5mutexED2Ev
FN:131,_ZNSt11unique_lockISt5mutexE4lockEv
FNDA:896,_ZNSt11unique_lockISt5mutexE4lockEv
FN:189,_ZNSt11unique_lockISt5mutexE6unlockEv
FNDA:881,_ZNSt11unique_lockISt5mutexE6unlockEv
DA:66,900
DA:67,900
DA:69,896
DA:70,898
DA:71,898
DA:101,880
DA:103,880
DA:104,880
DA:105,894
DA:131,896
DA:133,896
DA:134,0
DA:135,896
DA:136,0
DA:139,896
DA:140,898
DA:142,898
DA:189,881
DA:191,881
DA:192,0
DA:193,881
DA:195,886
DA:196,894
DA:198,889
end_of_record
SF:/usr/include/c++/11/bits/charconv.h
FN:47,_ZNSt8__detail14__to_chars_lenIjEEjT_i
FNDA:14,_ZNSt8__detail14__to_chars_lenIjEEjT_i
FN:72,_ZNSt8__detail18__to_chars_10_implIjEEvPcjT_
FNDA:14,_ZNSt8__detail18__to_chars_10_implIjEEvPcjT_
DA:47,14
DA:52,14
DA:53,14
DA:54,14
DA:55,14
DA:58,14
DA:59,0
DA:60,0
DA:61,0
DA:62,0
DA:63,0
DA:72,14
DA:83,14
DA:84,14
DA:86,0
DA:87,0
DA:88,0
DA:89,0
DA:90,0
DA:92,14
DA:94,0
DA:95,0
DA:96,0
DA:99,14
DA:100,14
end_of_record
SF:/usr/include/x86_64-linux-gnu/c++/11/bits/gthr-default.h
FN:300,_ZL18__gthread_active_pv
FNDA:314,_ZL18__gthread_active_pv
FN:746,_ZL20__gthread_mutex_lockP15pthread_mutex_t
FNDA:157,_ZL20__gthread_mutex_lockP15pthread_mutex_t
FN:776,_ZL22__gthread_mutex_unlockP15pthread_mutex_t
FNDA:157,_ZL22__gthread_mutex_unlockP15pthread_mutex_t
DA:300,314
DA:302,314
DA:746,157
DA:748,157
DA:749,157
DA:751,0
DA:776,157
DA:778,157
DA:779,157
DA:781,0
end_of_record
SF:/usr/include/c++/11/bits/deque.tcc
FN:164,_ZNSt5dequeIN5Nexus3rpc8NodeImpl13SystemMessageESaIS3_EE12emplace_backIJS3_EEEvDpOT_
FNDA:138,_ZNSt5dequeIN5Nexus3rpc8NodeImpl13SystemMessageESaIS3_EE12emplace_backIJS3_EEEvDpOT_
FN:164,_ZNSt5dequeIN5Nexus3rpc8NodeImpl14PendingMessageESaIS3_EE12emplace_backIJS3_EEEvDpOT_
FNDA:6,_ZNSt5dequeIN5Nexus3rpc8NodeImpl14PendingMessageESaIS3_EE12emplace_backIJS3_EEEvDpOT_
FN:484,_ZNSt5dequeIN5Nexus3rpc8NodeImpl13SystemMessageESaIS3_EE16_M_push_back_auxIJS3_EEEvDpOT_
FNDA:32,_ZNSt5dequeIN5Nexus3rpc8NodeImpl13SystemMessageESaIS3_EE16_M_push_back_auxIJS3_EEEvDpOT_
FN:484,_ZNSt5dequeIN5Nexus3rpc8NodeImpl14PendingMessageESaIS3_EE16_M_push_back_auxIJS3_EEEvDpOT_
FNDA:0,_ZNSt5dequeIN5Nexus3rpc8NodeImpl14PendingMessageESaIS3_EE16_M_push_back_auxIJS3_EEEvDpOT_
FN:576,_ZNSt5dequeIN5Nexus3rpc8NodeImpl13SystemMessageESaIS3_EE16_M_pop_front_auxEv
FNDA:32,_ZNSt5dequeIN5Nexus3rpc8NodeImpl13SystemMessageESaIS3_EE16_M_pop_front_auxEv
FN:576,_ZNSt5dequeIN5Nexus3rpc8NodeImpl14PendingMessageESaIS3_EE16_M_pop_front_auxEv
FNDA:0,_ZNSt5dequeIN5Nexus3rpc8NodeImpl14PendingMessageESaIS3_EE16_M_pop_front_auxEv
FN:859,_ZNSt5dequeIN5Nexus3rpc8NodeImpl13SystemMessageESaIS3_EE19_M_destroy_data_auxESt15_Deque_iteratorIS3_RS3_PS3_ES9_
FNDA:55,_ZNSt5dequeIN5Nexus3rpc8NodeImpl13SystemMessageESaIS3_EE19_M_destroy_data_auxESt15_Deque_iteratorIS3_RS3_PS3_ES9_
FN:859,_ZNSt5dequeIN5Nexus3rpc8NodeImpl14PendingMessageESaIS3_EE19_M_destroy_data_auxESt15_Deque_iteratorIS3_RS3_PS3_ES9_
FNDA:220,_ZNSt5dequeIN5Nexus3rpc8NodeImpl14PendingMessageESaIS3_EE19_M_destroy_data_auxESt15_Deque_iteratorIS3_RS3_PS3_ES9_
FN:931,_ZNSt5dequeIN5Nexus3rpc8NodeImpl13SystemMessageESaIS3_EE17_M_reallocate_mapEmb
FNDA:4,_ZNSt5dequeIN5Nexus3rpc8NodeImpl13SystemMessageESaIS3_EE17_M_reallocate_mapEmb
FN:931,_ZNSt5dequeIN5Nexus3rpc8NodeImpl14PendingMessageESaIS3_EE17_M_reallocate_mapEmb
FNDA:0,_ZNSt5dequeIN5Nexus3rpc8NodeImpl14PendingMessageESaIS3_EE17_M_reallocate_mapEmb
DA:164,138
DA:167,138
DA:168,138
DA:170,106
DA:173,106
DA:176,32
DA:180,138
DA:164,6
DA:167,6
DA:168,6
DA:170,6
DA:173,6
DA:176,0
DA:180,6
DA:484,32
DA:492,32
DA:493,0
DA:496,32
DA:497,32
DA:501,32
DA:507,32
DA:509,32
DA:516,32
DA:484,0
DA:492,0
DA:493,0
DA:496,0
DA:497,0
DA:501,0
DA:507,0
DA:509,0
DA:516,0
DA:576,32
DA:579,32
DA:581,32
DA:582,32
DA:583,32
DA:584,32
DA:576,0
DA:579,0
DA:581,0
DA:582,0
DA:583,0
DA:584,0
DA:859,55
DA:862,55
DA:863,55
DA:864,0
DA:865,0
DA:867,55
DA:869,0
DA:870,0
DA:871,0
DA:872,0
DA:875,55
DA:876,55
DA:877,55
DA:859,220
DA:862,220
DA:863,220
DA:864,0
DA:865,0
DA:867,220
DA:869,0
DA:870,0
DA:871,0
DA:872,0
DA:875,220
DA:876,220
DA:877,220
DA:931,4
DA:934,4
DA:935,4
DA:936,4
DA:939,4
DA:941,8
DA:942,4
DA:943,4
DA:944,4
DA:945,4
DA:946,4
DA:949,0
DA:950,0
DA:951,0
DA:955,0
DA:956,0
DA:959,0
DA:960,0
DA:961,0
DA:962,0
DA:963,0
DA:965,0
DA:967,0
DA:968,0
DA:971,4
DA:972,4
DA:973,4
DA:931,0
DA:934,0
DA:935,0
DA:936,0
DA:939,0
DA:941,0
DA:942,0
DA:943,0
DA:944,0
DA:945,0
DA:946,0
DA:949,0
DA:950,0
DA:951,0
DA:955,0
DA:956,0
DA:959,0
DA:960,0
DA:961,0
DA:962,0
DA:963,0
DA:965,0
DA:967,0
DA:968,0
DA:971,0
DA:972,0
DA:973,0
end_of_record
SF:/usr/include/c++/11/bits/stl_iterator_base_types.h
FN:238,_ZSt19__iterator_categoryIPhENSt15iterator_traitsIT_E17iterator_categoryERKS2_
FNDA:10,_ZSt19__iterator_categoryIPhENSt15iterator_traitsIT_E17iterator_categoryERKS2_
FN:238,_ZSt19__iterator_categoryIPcENSt15iterator_traitsIT_E17iterator_categoryERKS2_
FNDA:0,_ZSt19__iterator_categoryIPcENSt15iterator_traitsIT_E17iterator_categoryERKS2_
FN:238,_ZSt19__iterator_categoryIPKcENSt15iterator_traitsIT_E17iterator_categoryERKS3_
FNDA:0,_ZSt19__iterator_categoryIPKcENSt15iterator_traitsIT_E17iterator_categoryERKS3_
FN:238,_ZSt19__iterator_categoryIN9__gnu_cxx17__normal_iteratorIPNSt7__cxx1112basic_stringIcSt11char_traitsIcESaIcEEESt6vectorIS7_SaIS7_EEEEENSt15iterator_traitsIT_E17iterator_categoryERKSE_
FNDA:1,_ZSt19__iterator_categoryIN9__gnu_cxx17__normal_iteratorIPNSt7__cxx1112basic_stringIcSt11char_traitsIcESaIcEEESt6vectorIS7_SaIS7_EEEEENSt15iterator_traitsIT_E17iterator_categoryERKSE_
FN:238,_ZSt19__iterator_categoryIN9__gnu_cxx17__normal_iteratorIPKcNSt7__cxx1112basic_stringIcSt11char_traitsIcESaIcEEEEEENSt15iterator_traitsIT_E17iterator_categoryERKSC_
FNDA:16,_ZSt19__iterator_categoryIN9__gnu_cxx17__normal_iteratorIPKcNSt7__cxx1112basic_stringIcSt11char_traitsIcESaIcEEEEEENSt15iterator_traitsIT_E17iterator_categoryERKSC_
FN:238,_ZSt19__iterator_categoryIPKhENSt15iterator_traitsIT_E17iterator_categoryERKS3_
FNDA:4,_ZSt19__iterator_categoryIPKhENSt15iterator_traitsIT_E17iterator_categoryERKS3_
FN:238,_ZSt19__iterator_categoryISt23_Rb_tree_const_iteratorINSt7__cxx1112basic_stringIcSt11char_traitsIcESaIcEEEEENSt15iterator_traitsIT_E17iterator_categoryERKS9_
FNDA:4,_ZSt19__iterator_categoryISt23_Rb_tree_const_iteratorINSt7__cxx1112basic_stringIcSt11char_traitsIcESaIcEEEEENSt15iterator_traitsIT_E17iterator_categoryERKS9_
DA:238,10
DA:239,10
DA:238,0
DA:239,0
DA:238,0
DA:239,0
DA:238,1
DA:239,1
DA:238,16
DA:239,16
DA:238,4
DA:239,4
DA:238,4
DA:239,4
end_of_record
SF:/usr/include/c++/11/bits/stl_map.h
FN:185,_ZNSt3mapINSt7__cxx1112basic_stringIcSt11char_traitsIcESaIcEEEN5Nexus3rpc8NodeImpl16SubscriptionInfoESt4lessIS5_ESaISt4pairIKS5_S9_EEEC2Ev
FNDA:55,_ZNSt3mapINSt7__cxx1112basic_stringIcSt11char_traitsIcESaIcEEEN5Nexus3rpc8NodeImpl16SubscriptionInfoESt4lessIS5_ESaISt4pairIKS5_S9_EEEC2Ev
FN:185,_ZNSt3mapINSt7__cxx1112basic_stringIcSt11char_traitsIcESaIcEEEN5Nexus3rpc8NodeImpl14RemoteNodeInfoESt4lessIS5_ESaISt4pairIKS5_S9_EEEC2Ev
FNDA:55,_ZNSt3mapINSt7__cxx1112basic_stringIcSt11char_traitsIcESaIcEEEN5Nexus3rpc8NodeImpl14RemoteNodeInfoESt4lessIS5_ESaISt4pairIKS5_S9_EEEC2Ev
FN:185,_ZNSt3mapINSt7__cxx1112basic_stringIcSt11char_traitsIcESaIcEEESt10shared_ptrIN5Nexus3rpc16LargeDataChannelEESt4lessIS5_ESaISt4pairIKS5_SA_EEEC2Ev
FNDA:55,_ZNSt3mapINSt7__cxx1112basic_stringIcSt11char_traitsIcESaIcEEESt10shared_ptrIN5Nexus3rpc16LargeDataChannelEESt4lessIS5_ESaISt4pairIKS5_SA_EEEC2Ev
FN:302,_ZNSt3mapINSt7__cxx1112basic_stringIcSt11char_traitsIcESaIcEEEN5Nexus3rpc8NodeImpl16SubscriptionInfoESt4lessIS5_ESaISt4pairIKS5_S9_EEED2Ev
FNDA:55,_ZNSt3mapINSt7__cxx1112basic_stringIcSt11char_traitsIcESaIcEEEN5Nexus3rpc8NodeImpl16SubscriptionInfoESt4lessIS5_ESaISt4pairIKS5_S9_EEED2Ev
FN:302,_ZNSt3mapINSt7__cxx1112basic_stringIcSt11char_traitsIcESaIcEEEN5Nexus3rpc8NodeImpl14RemoteNodeInfoESt4lessIS5_ESaISt4pairIKS5_S9_EEED2Ev
FNDA:55,_ZNSt3mapINSt7__cxx1112basic_stringIcSt11char_traitsIcESaIcEEEN5Nexus3rpc8NodeImpl14RemoteNodeInfoESt4lessIS5_ESaISt4pairIKS5_S9_EEED2Ev
FN:302,_ZNSt3mapINSt7__cxx1112basic_stringIcSt11char_traitsIcESaIcEEESt10shared_ptrIN5Nexus3rpc16LargeDataChannelEESt4lessIS5_ESaISt4pairIKS5_SA_EEED2Ev
FNDA:55,_ZNSt3mapINSt7__cxx1112basic_stringIcSt11char_traitsIcESaIcEEESt10shared_ptrIN5Nexus3rpc16LargeDataChannelEESt4lessIS5_ESaISt4pairIKS5_SA_EEED2Ev
FN:356,_ZNSt3mapINSt7__cxx1112basic_stringIcSt11char_traitsIcESaIcEEEN5Nexus3rpc8NodeImpl14RemoteNodeInfoESt4lessIS5_ESaISt4pairIKS5_S9_EEE5beginEv
FNDA:28,_ZNSt3mapINSt7__cxx1112basic_stringIcSt11char_traitsIcESaIcEEEN5Nexus3rpc8NodeImpl14RemoteNodeInfoESt4lessIS5_ESaISt4pairIKS5_S9_EEE5beginEv
FN:374,_ZNSt3mapINSt7__cxx1112basic_stringIcSt11char_traitsIcESaIcEEEN5Nexus3rpc8NodeImpl14RemoteNodeInfoESt4lessIS5_ESaISt4pairIKS5_S9_EEE3endEv
FNDA:42,_ZNSt3mapINSt7__cxx1112basic_stringIcSt11char_traitsIcESaIcEEEN5Nexus3rpc8NodeImpl14RemoteNodeInfoESt4lessIS5_ESaISt4pairIKS5_S9_EEE3endEv
FN:374,_ZNSt3mapINSt7__cxx1112basic_stringIcSt11char_traitsIcESaIcEEEN5Nexus3rpc8NodeImpl16SubscriptionInfoESt4lessIS5_ESaISt4pairIKS5_S9_EEE3endEv
FNDA:36,_ZNSt3mapINSt7__cxx1112basic_stringIcSt11char_traitsIcESaIcEEEN5Nexus3rpc8NodeImpl16SubscriptionInfoESt4lessIS5_ESaISt4pairIKS5_S9_EEE3endEv
FN:374,_ZNSt3mapINSt7__cxx1112basic_stringIcSt11char_traitsIcESaIcEEESt10shared_ptrIN5Nexus3rpc16LargeDataChannelEESt4lessIS5_ESaISt4pairIKS5_SA_EEE3endEv
FNDA:0,_ZNSt3mapINSt7__cxx1112basic_stringIcSt11char_traitsIcESaIcEEESt10shared_ptrIN5Nexus3rpc16LargeDataChannelEESt4lessIS5_ESaISt4pairIKS5_SA_EEE3endEv
FN:383,_ZNKSt3mapINSt7__cxx1112basic_stringIcSt11char_traitsIcESaIcEEEN5Nexus3rpc8NodeImpl16SubscriptionInfoESt4lessIS5_ESaISt4pairIKS5_S9_EEE3endEv
FNDA:4,_ZNKSt3mapINSt7__cxx1112basic_stringIcSt11char_traitsIcESaIcEEEN5Nexus3rpc8NodeImpl16SubscriptionInfoESt4lessIS5_ESaISt4pairIKS5_S9_EEE3endEv
FN:492,_ZNSt3mapINSt7__cxx1112basic_stringIcSt11char_traitsIcESaIcEEESt10shared_ptrIN5Nexus3rpc16LargeDataChannelEESt4lessIS5_ESaISt4pairIKS5_SA_EEEixERSE_
FNDA:0,_ZNSt3mapINSt7__cxx1112basic_stringIcSt11char_traitsIcESaIcEEESt10shared_ptrIN5Nexus3rpc16LargeDataChannelEESt4lessIS5_ESaISt4pairIKS5_SA_EEEixERSE_
FN:492,_ZNSt3mapINSt7__cxx1112basic_stringIcSt11char_traitsIcESaIcEEEN5Nexus3rpc8NodeImpl16SubscriptionInfoESt4lessIS5_ESaISt4pairIKS5_S9_EEEixERSD_
FNDA:16,_ZNSt3mapINSt7__cxx1112basic_stringIcSt11char_traitsIcESaIcEEEN5Nexus3rpc8NodeImpl16SubscriptionInfoESt4lessIS5_ESaISt4pairIKS5_S9_EEEixERSD_
FN:492,_ZNSt3mapINSt7__cxx1112basic_stringIcSt11char_traitsIcESaIcEEEN5Nexus3rpc8NodeImpl14RemoteNodeInfoESt4lessIS5_ESaISt4pairIKS5_S9_EEEixERSD_
FNDA:2,_ZNSt3mapINSt7__cxx1112basic_stringIcSt11char_traitsIcESaIcEEEN5Nexus3rpc8NodeImpl14RemoteNodeInfoESt4lessIS5_ESaISt4pairIKS5_S9_EEEixERSD_
FN:1037,_ZNSt3mapINSt7__cxx1112basic_stringIcSt11char_traitsIcESaIcEEEN5Nexus3rpc8NodeImpl16SubscriptionInfoESt4lessIS5_ESaISt4pairIKS5_S9_EEE5eraseB5cxx11ESt17_Rb_tree_iteratorISE_E
FNDA:4,_ZNSt3mapINSt7__cxx1112basic_stringIcSt11char_traitsIcESaIcEEEN5Nexus3rpc8NodeImpl16SubscriptionInfoESt4lessIS5_ESaISt4pairIKS5_S9_EEE5eraseB5cxx11ESt17_Rb_tree_iteratorISE_E
FN:1037,_ZNSt3mapINSt7__cxx1112basic_stringIcSt11char_traitsIcESaIcEEEN5Nexus3rpc8NodeImpl14RemoteNodeInfoESt4lessIS5_ESaISt4pairIKS5_S9_EEE5eraseB5cxx11ESt17_Rb_tree_iteratorISE_E
FNDA:2,_ZNSt3mapINSt7__cxx1112basic_stringIcSt11char_traitsIcESaIcEEEN5Nexus3rpc8NodeImpl14RemoteNodeInfoESt4lessIS5_ESaISt4pairIKS5_S9_EEE5eraseB5cxx11ESt17_Rb_tree_iteratorISE_E
FN:1142,_ZNKSt3mapINSt7__cxx1112basic_stringIcSt11char_traitsIcESaIcEEEN5Nexus3rpc8NodeImpl14RemoteNodeInfoESt4lessIS5_ESaISt4pairIKS5_S9_EEE8key_compEv
FNDA:0,_ZNKSt3mapINSt7__cxx1112basic_stringIcSt11char_traitsIcESaIcEEEN5Nexus3rpc8NodeImpl14RemoteNodeInfoESt4lessIS5_ESaISt4pairIKS5_S9_EEE8key_compEv
FN:1142,_ZNKSt3mapINSt7__cxx1112basic_stringIcSt11char_traitsIcESaIcEEEN5Nexus3rpc8NodeImpl16SubscriptionInfoESt4lessIS5_ESaISt4pairIKS5_S9_EEE8key_compEv
FNDA:0,_ZNKSt3mapINSt7__cxx1112basic_stringIcSt11char_traitsIcESaIcEEEN5Nexus3rpc8NodeImpl16SubscriptionInfoESt4lessIS5_ESaISt4pairIKS5_S9_EEE8key_compEv
FN:1142,_ZNKSt3mapINSt7__cxx1112basic_stringIcSt11char_traitsIcESaIcEEESt10shared_ptrIN5Nexus3rpc16LargeDataChannelEESt4lessIS5_ESaISt4pairIKS5_SA_EEE8key_compEv
FNDA:0,_ZNKSt3mapINSt7__cxx1112basic_stringIcSt11char_traitsIcESaIcEEESt10shared_ptrIN5Nexus3rpc16LargeDataChannelEESt4lessIS5_ESaISt4pairIKS5_SA_EEE8key_compEv
FN:1169,_ZNSt3mapINSt7__cxx1112basic_stringIcSt11char_traitsIcESaIcEEESt10shared_ptrIN5Nexus3rpc16LargeDataChannelEESt4lessIS5_ESaISt4pairIKS5_SA_EEE4findERSE_
FNDA:0,_ZNSt3mapINSt7__cxx1112basic_stringIcSt11char_traitsIcESaIcEEESt10shared_ptrIN5Nexus3rpc16LargeDataChannelEESt4lessIS5_ESaISt4pairIKS5_SA_EEE4findERSE_
FN:1169,_ZNSt3mapINSt7__cxx1112basic_stringIcSt11char_traitsIcESaIcEEEN5Nexus3rpc8NodeImpl14RemoteNodeInfoESt4lessIS5_ESaISt4pairIKS5_S9_EEE4findERSD_
FNDA:2,_ZNSt3mapINSt7__cxx1112basic_stringIcSt11char_traitsIcESaIcEEEN5Nexus3rpc8NodeImpl14RemoteNodeInfoESt4lessIS5_ESaISt4pairIKS5_S9_EEE4findERSD_
FN:1169,_ZNSt3mapINSt7__cxx1112basic_stringIcSt11char_traitsIcESaIcEEEN5Nexus3rpc8NodeImpl16SubscriptionInfoESt4lessIS5_ESaISt4pairIKS5_S9_EEE4findERSD_
FNDA:20,_ZNSt3mapINSt7__cxx1112basic_stringIcSt11char_traitsIcESaIcEEEN5Nexus3rpc8NodeImpl16SubscriptionInfoESt4lessIS5_ESaISt4pairIKS5_S9_EEE4findERSD_
FN:1194,_ZNKSt3mapINSt7__cxx1112basic_stringIcSt11char_traitsIcESaIcEEEN5Nexus3rpc8NodeImpl16SubscriptionInfoESt4lessIS5_ESaISt4pairIKS5_S9_EEE4findERSD_
FNDA:4,_ZNKSt3mapINSt7__cxx1112basic_stringIcSt11char_traitsIcESaIcEEEN5Nexus3rpc8NodeImpl16SubscriptionInfoESt4lessIS5_ESaISt4pairIKS5_S9_EEE4findERSD_
FN:1258,_ZNSt3mapINSt7__cxx1112basic_stringIcSt11char_traitsIcESaIcEEEN5Nexus3rpc8NodeImpl16SubscriptionInfoESt4lessIS5_ESaISt4pairIKS5_S9_EEE11lower_boundERSD_
FNDA:16,_ZNSt3mapINSt7__cxx1112basic_stringIcSt11char_traitsIcESaIcEEEN5Nexus3rpc8NodeImpl16SubscriptionInfoESt4lessIS5_ESaISt4pairIKS5_S9_EEE11lower_boundERSD_
FN:1258,_ZNSt3mapINSt7__cxx1112basic_stringIcSt11char_traitsIcESaIcEEESt10shared_ptrIN5Nexus3rpc16LargeDataChannelEESt4lessIS5_ESaISt4pairIKS5_SA_EEE11lower_boundERSE_
FNDA:0,_ZNSt3mapINSt7__cxx1112basic_stringIcSt11char_traitsIcESaIcEEESt10shared_ptrIN5Nexus3rpc16LargeDataChannelEESt4lessIS5_ESaISt4pairIKS5_SA_EEE11lower_boundERSE_
FN:1258,_ZNSt3mapINSt7__cxx1112basic_stringIcSt11char_traitsIcESaIcEEEN5Nexus3rpc8NodeImpl14RemoteNodeInfoESt4lessIS5_ESaISt4pairIKS5_S9_EEE11lower_boundERSD_
FNDA:2,_ZNSt3mapINSt7__cxx1112basic_stringIcSt11char_traitsIcESaIcEEEN5Nexus3rpc8NodeImpl14RemoteNodeInfoESt4lessIS5_ESaISt4pairIKS5_S9_EEE11lower_boundERSD_
DA:185,55
DA:185,55
DA:185,55
DA:302,55
DA:302,55
DA:302,55
DA:356,28
DA:357,28
DA:374,42
DA:375,42
DA:374,0
DA:375,0
DA:374,36
DA:375,36
DA:383,4
DA:384,4
DA:492,2
DA:497,2
DA:499,2
DA:501,2
DA:502,2
DA:503,2
DA:507,2
DA:492,0
DA:497,0
DA:499,0
DA:501,0
DA:502,0
DA:503,0
DA:507,0
DA:492,16
DA:497,16
DA:499,16
DA:501,16
DA:502,16
DA:503,16
DA:507,16
DA:1037,2
DA:1038,2
DA:1037,4
DA:1038,4
DA:1142,0
DA:1143,0
DA:1142,0
DA:1143,0
DA:1142,0
DA:1143,0
DA:1169,2
DA:1170,2
DA:1169,0
DA:1170,0
DA:1169,20
DA:1170,20
DA:1194,4
DA:1195,4
DA:1258,2
DA:1259,2
DA:1258,0
DA:1259,0
DA:1258,16
DA:1259,16
end_of_record
SF:/usr/include/c++/11/bits/stl_algobase.h
FN:230,_ZSt3minImERKT_S2_S2_
FNDA:51,_ZSt3minImERKT_S2_S2_
FN:254,_ZSt3maxImERKT_S2_S2_
FNDA:53,_ZSt3maxImERKT_S2_S2_
FN:313,_ZSt12__niter_baseIPKhET_S2_
FNDA:4,_ZSt12__niter_baseIPKhET_S2_
FN:313,_ZSt12__niter_baseIPNSt7__cxx1112basic_stringIcSt11char_traitsIcESaIcEEEET_S7_
FNDA:606,_ZSt12__niter_baseIPNSt7__cxx1112basic_stringIcSt11char_traitsIcESaIcEEEET_S7_
FN:313,_ZSt12__niter_baseIPhET_S1_
FNDA:2,_ZSt12__niter_baseIPhET_S1_
FN:313,_ZSt12__niter_baseISt23_Rb_tree_const_iteratorINSt7__cxx1112basic_stringIcSt11char_traitsIcESaIcEEEEET_S8_
FNDA:0,_ZSt12__niter_baseISt23_Rb_tree_const_iteratorINSt7__cxx1112basic_stringIcSt11char_traitsIcESaIcEEEEET_S8_
FN:313,_ZSt12__niter_baseIPSt4pairINSt7__cxx1112basic_stringIcSt11char_traitsIcESaIcEEEtEET_S9_
FNDA:18,_ZSt12__niter_baseIPSt4pairINSt7__cxx1112basic_stringIcSt11char_traitsIcESaIcEEEtEET_S9_
FN:313,_ZSt12__niter_baseIPSt6threadET_S2_
FNDA:54,_ZSt12__niter_baseIPSt6threadET_S2_
FN:313,_ZSt12__niter_baseIPN5Nexus3rpc17ServiceDescriptorEET_S4_
FNDA:168,_ZSt12__niter_baseIPN5Nexus3rpc17ServiceDescriptorEET_S4_
FN:313,_ZSt12__niter_baseIPPN5Nexus3rpc8NodeImpl14PendingMessageEET_S6_
FNDA:0,_ZSt12__niter_baseIPPN5Nexus3rpc8NodeImpl14PendingMessageEET_S6_
FN:313,_ZSt12__niter_baseIPN5Nexus3rpc8NodeImpl14PendingMessageEET_S5_
FNDA:636,_ZSt12__niter_baseIPN5Nexus3rpc8NodeImpl14PendingMessageEET_S5_
FN:313,_ZSt12__niter_baseIPPN5Nexus3rpc8NodeImpl13SystemMessageEET_S6_
FNDA:12,_ZSt12__niter_baseIPPN5Nexus3rpc8NodeImpl13SystemMessageEET_S6_
FN:328,_ZSt12__niter_wrapIN9__gnu_cxx17__normal_iteratorIPhSt6vectorIhSaIhEEEES2_ET_S7_T0_
FNDA:0,_ZSt12__niter_wrapIN9__gnu_cxx17__normal_iteratorIPhSt6vectorIhSaIhEEEES2_ET_S7_T0_
FN:335,_ZSt12__niter_wrapIPPN5Nexus3rpc8NodeImpl13SystemMessageEET_RKS6_S6_
FNDA:4,_ZSt12__niter_wrapIPPN5Nexus3rpc8NodeImpl13SystemMessageEET_RKS6_S6_
FN:335,_ZSt12__niter_wrapIPNSt7__cxx1112basic_stringIcSt11char_traitsIcESaIcEEEET_RKS7_S7_
FNDA:0,_ZSt12__niter_wrapIPNSt7__cxx1112basic_stringIcSt11char_traitsIcESaIcEEEET_RKS7_S7_
FN:335,_ZSt12__niter_wrapIPPN5Nexus3rpc8NodeImpl14PendingMessageEET_RKS6_S6_
FNDA:0,_ZSt12__niter_wrapIPPN5Nexus3rpc8NodeImpl14PendingMessageEET_RKS6_S6_
FN:335,_ZSt12__niter_wrapIPhET_RKS1_S1_
FNDA:2,_ZSt12__niter_wrapIPhET_RKS1_S1_
FN:350,_ZNSt11__copy_moveILb0ELb0ESt26bidirectional_iterator_tagE8__copy_mISt23_Rb_tree_const_iteratorINSt7__cxx1112basic_stringIcSt11char_traitsIcESaIcEEEEPS9_EET0_T_SD_SC_
FNDA:0,_ZNSt11__copy_moveILb0ELb0ESt26bidirectional_iterator_tagE8__copy_mISt23_Rb_tree_const_iteratorINSt7__cxx1112basic_stringIcSt11char_traitsIcESaIcEEEEPS9_EET0_T_SD_SC_
FN:380,_ZNSt11__copy_moveILb0ELb0ESt26random_access_iterator_tagE8__copy_mIPKcPhEET0_T_S7_S6_
FNDA:8,_ZNSt11__copy_moveILb0ELb0ESt26random_access_iterator_tagE8__copy_mIPKcPhEET0_T_S7_S6_
FN:420,_ZNSt11__copy_moveILb1ELb1ESt26random_access_iterator_tagE8__copy_mIhEEPT_PKS3_S6_S4_
FNDA:0,_ZNSt11__copy_moveILb1ELb1ESt26random_access_iterator_tagE8__copy_mIhEEPT_PKS3_S6_S4_
FN:420,_ZNSt11__copy_moveILb0ELb1ESt26random_access_iterator_tagE8__copy_mIPN5Nexus3rpc8NodeImpl13SystemMessageEEEPT_PKS8_SB_S9_
FNDA:4,_ZNSt11__copy_moveILb0ELb1ESt26random_access_iterator_tagE8__copy_mIPN5Nexus3rpc8NodeImpl13SystemMessageEEEPT_PKS8_SB_S9_
FN:420,_ZNSt11__copy_moveILb0ELb1ESt26random_access_iterator_tagE8__copy_mIhEEPT_PKS3_S6_S4_
FNDA:2,_ZNSt11__copy_moveILb0ELb1ESt26random_access_iterator_tagE8__copy_mIhEEPT_PKS3_S6_S4_
FN:420,_ZNSt11__copy_moveILb0ELb1ESt26random_access_iterator_tagE8__copy_mIPN5Nexus3rpc8NodeImpl14PendingMessageEEEPT_PKS8_SB_S9_
FNDA:0,_ZNSt11__copy_moveILb0ELb1ESt26random_access_iterator_tagE8__copy_mIPN5Nexus3rpc8NodeImpl14PendingMessageEEEPT_PKS8_SB_S9_
FN:486,_ZSt14__copy_move_a2ILb0EPKhPhET1_T0_S4_S3_
FNDA:2,_ZSt14__copy_move_a2ILb0EPKhPhET1_T0_S4_S3_
FN:486,_ZSt14__copy_move_a2ILb0EPPN5Nexus3rpc8NodeImpl13SystemMessageES5_ET1_T0_S7_S6_
FNDA:4,_ZSt14__copy_move_a2ILb0EPPN5Nexus3rpc8NodeImpl13SystemMessageES5_ET1_T0_S7_S6_
FN:486,_ZSt14__copy_move_a2ILb1EPhS0_ET1_T0_S2_S1_
FNDA:0,_ZSt14__copy_move_a2ILb1EPhS0_ET1_T0_S2_S1_
FN:486,_ZSt14__copy_move_a2ILb0ESt23_Rb_tree_const_iteratorINSt7__cxx1112basic_stringIcSt11char_traitsIcESaIcEEEEPS6_ET1_T0_SA_S9_
FNDA:0,_ZSt14__copy_move_a2ILb0ESt23_Rb_tree_const_iteratorINSt7__cxx1112basic_stringIcSt11char_traitsIcESaIcEEEEPS6_ET1_T0_SA_S9_
FN:486,_ZSt14__copy_move_a2ILb0EPPN5Nexus3rpc8NodeImpl14PendingMessageES5_ET1_T0_S7_S6_
FNDA:0,_ZSt14__copy_move_a2ILb0EPPN5Nexus3rpc8NodeImpl14PendingMessageES5_ET1_T0_S7_S6_
FN:486,_ZSt14__copy_move_a2ILb0EPKcPhET1_T0_S4_S3_
FNDA:8,_ZSt14__copy_move_a2ILb0EPKcPhET1_T0_S4_S3_
FN:521,_ZSt14__copy_move_a1ILb0EPKhPhET1_T0_S4_S3_
FNDA:2,_ZSt14__copy_move_a1ILb0EPKhPhET1_T0_S4_S3_
FN:521,_ZSt14__copy_move_a1ILb1EPhS0_ET1_T0_S2_S1_
FNDA:0,_ZSt14__copy_move_a1ILb1EPhS0_ET1_T0_S2_S1_
FN:521,_ZSt14__copy_move_a1ILb0EPPN5Nexus3rpc8NodeImpl14PendingMessageES5_ET1_T0_S7_S6_
FNDA:0,_ZSt14__copy_move_a1ILb0EPPN5Nexus3rpc8NodeImpl14PendingMessageES5_ET1_T0_S7_S6_
FN:521,_ZSt14__copy_move_a1ILb0ESt23_Rb_tree_const_iteratorINSt7__cxx1112basic_stringIcSt11char_traitsIcESaIcEEEEPS6_ET1_T0_SA_S9_
FNDA:0,_ZSt14__copy_move_a1ILb0ESt23_Rb_tree_const_iteratorINSt7__cxx1112basic_stringIcSt11char_traitsIcESaIcEEEEPS6_ET1_T0_SA_S9_
FN:521,_ZSt14__copy_move_a1ILb0EPKcPhET1_T0_S4_S3_
FNDA:8,_ZSt14__copy_move_a1ILb0EPKcPhET1_T0_S4_S3_
FN:521,_ZSt14__copy_move_a1ILb0EPPN5Nexus3rpc8NodeImpl13SystemMessageES5_ET1_T0_S7_S6_
FNDA:4,_ZSt14__copy_move_a1ILb0EPPN5Nexus3rpc8NodeImpl13SystemMessageES5_ET1_T0_S7_S6_
FN:527,_ZSt13__copy_move_aILb0ESt23_Rb_tree_const_iteratorINSt7__cxx1112basic_stringIcSt11char_traitsIcESaIcEEEEPS6_ET1_T0_SA_S9_
FNDA:0,_ZSt13__copy_move_aILb0ESt23_Rb_tree_const_iteratorINSt7__cxx1112basic_stringIcSt11char_traitsIcESaIcEEEEPS6_ET1_T0_SA_S9_
FN:527,_ZSt13__copy_move_aILb0EPPN5Nexus3rpc8NodeImpl14PendingMessageES5_ET1_T0_S7_S6_
FNDA:0,_ZSt13__copy_move_aILb0EPPN5Nexus3rpc8NodeImpl14PendingMessageES5_ET1_T0_S7_S6_
FN:527,_ZSt13__copy_move_aILb0EPPN5Nexus3rpc8NodeImpl13SystemMessageES5_ET1_T0_S7_S6_
FNDA:4,_ZSt13__copy_move_aILb0EPPN5Nexus3rpc8NodeImpl13SystemMessageES5_ET1_T0_S7_S6_
FN:527,_ZSt13__copy_move_aILb1EPhS0_ET1_T0_S2_S1_
FNDA:0,_ZSt13__copy_move_aILb1EPhS0_ET1_T0_S2_S1_
FN:527,_ZSt13__copy_move_aILb0EN9__gnu_cxx17__normal_iteratorIPKcNSt7__cxx1112basic_stringIcSt11char_traitsIcESaIcEEEEEPhET1_T0_SD_SC_
FNDA:8,_ZSt13__copy_move_aILb0EN9__gnu_cxx17__normal_iteratorIPKcNSt7__cxx1112basic_stringIcSt11char_traitsIcESaIcEEEEEPhET1_T0_SD_SC_
FN:527,_ZSt13__copy_move_aILb0EN9__gnu_cxx17__normal_iteratorIPKcNSt7__cxx1112basic_stringIcSt11char_traitsIcESaIcEEEEENS1_IPhSt6vectorIhSaIhEEEEET1_T0_SH_SG_
FNDA:0,_ZSt13__copy_move_aILb0EN9__gnu_cxx17__normal_iteratorIPKcNSt7__cxx1112basic_stringIcSt11char_traitsIcESaIcEEEEENS1_IPhSt6vectorIhSaIhEEEEET1_T0_SH_SG_
FN:527,_ZSt13__copy_move_aILb0EPKhPhET1_T0_S4_S3_
FNDA:2,_ZSt13__copy_move_aILb0EPKhPhET1_T0_S4_S3_
FN:611,_ZSt4copyIN9__gnu_cxx17__normal_iteratorIPKcNSt7__cxx1112basic_stringIcSt11char_traitsIcESaIcEEEEENS1_IPhSt6vectorIhSaIhEEEEET0_T_SH_SG_
FNDA:0,_ZSt4copyIN9__gnu_cxx17__normal_iteratorIPKcNSt7__cxx1112basic_stringIcSt11char_traitsIcESaIcEEEEENS1_IPhSt6vectorIhSaIhEEEEET0_T_SH_SG_
FN:611,_ZSt4copyIN9__gnu_cxx17__normal_iteratorIPKcNSt7__cxx1112basic_stringIcSt11char_traitsIcESaIcEEEEEPhET0_T_SD_SC_
FNDA:8,_ZSt4copyIN9__gnu_cxx17__normal_iteratorIPKcNSt7__cxx1112basic_stringIcSt11char_traitsIcESaIcEEEEEPhET0_T_SD_SC_
FN:611,_ZSt4copyIPKhPhET0_T_S4_S3_
FNDA:2,_ZSt4copyIPKhPhET0_T_S4_S3_
FN:611,_ZSt4copyIPPN5Nexus3rpc8NodeImpl14PendingMessageES5_ET0_T_S7_S6_
FNDA:0,_ZSt4copyIPPN5Nexus3rpc8NodeImpl14PendingMessageES5_ET0_T_S7_S6_
FN:611,_ZSt4copyISt23_Rb_tree_const_iteratorINSt7__cxx1112basic_stringIcSt11char_traitsIcESaIcEEEEPS6_ET0_T_SA_S9_
FNDA:0,_ZSt4copyISt23_Rb_tree_const_iteratorINSt7__cxx1112basic_stringIcSt11char_traitsIcESaIcEEEEPS6_ET0_T_SA_S9_
FN:611,_ZSt4copyIPPN5Nexus3rpc8NodeImpl13SystemMessageES5_ET0_T_S7_S6_
FNDA:4,_ZSt4copyIPPN5Nexus3rpc8NodeImpl13SystemMessageES5_ET0_T_S7_S6_
FN:611,_ZSt4copyISt13move_iteratorIPhES1_ET0_T_S4_S3_
FNDA:0,_ZSt4copyISt13move_iteratorIPhES1_ET0_T_S4_S3_
FN:731,_ZNSt20__copy_move_backwardILb0ELb1ESt26random_access_iterator_tagE13__copy_move_bIPN5Nexus3rpc8NodeImpl13SystemMessageEEEPT_PKS8_SB_S9_
FNDA:0,_ZNSt20__copy_move_backwardILb0ELb1ESt26random_access_iterator_tagE13__copy_move_bIPN5Nexus3rpc8NodeImpl13SystemMessageEEEPT_PKS8_SB_S9_
FN:731,_ZNSt20__copy_move_backwardILb0ELb1ESt26random_access_iterator_tagE13__copy_move_bIPN5Nexus3rpc8NodeImpl14PendingMessageEEEPT_PKS8_SB_S9_
FNDA:0,_ZNSt20__copy_move_backwardILb0ELb1ESt26random_access_iterator_tagE13__copy_move_bIPN5Nexus3rpc8NodeImpl14PendingMessageEEEPT_PKS8_SB_S9_
FN:731,_ZNSt20__copy_move_backwardILb1ELb1ESt26random_access_iterator_tagE13__copy_move_bIhEEPT_PKS3_S6_S4_
FNDA:0,_ZNSt20__copy_move_backwardILb1ELb1ESt26random_access_iterator_tagE13__copy_move_bIhEEPT_PKS3_S6_S4_
FN:750,_ZSt23__copy_move_backward_a2ILb1EPhS0_ET1_T0_S2_S1_
FNDA:0,_ZSt23__copy_move_backward_a2ILb1EPhS0_ET1_T0_S2_S1_
FN:750,_ZSt23__copy_move_backward_a2ILb0EPPN5Nexus3rpc8NodeImpl13SystemMessageES5_ET1_T0_S7_S6_
FNDA:0,_ZSt23__copy_move_backward_a2ILb0EPPN5Nexus3rpc8NodeImpl13SystemMessageES5_ET1_T0_S7_S6_
FN:750,_ZSt23__copy_move_backward_a2ILb0EPPN5Nexus3rpc8NodeImpl14PendingMessageES5_ET1_T0_S7_S6_
FNDA:0,_ZSt23__copy_move_backward_a2ILb0EPPN5Nexus3rpc8NodeImpl14PendingMessageES5_ET1_T0_S7_S6_
FN:768,_ZSt23__copy_move_backward_a1ILb1EPhS0_ET1_T0_S2_S1_
FNDA:0,_ZSt23__copy_move_backward_a1ILb1EPhS0_ET1_T0_S2_S1_
FN:768,_ZSt23__copy_move_backward_a1ILb0EPPN5Nexus3rpc8NodeImpl13SystemMessageES5_ET1_T0_S7_S6_
FNDA:0,_ZSt23__copy_move_backward_a1ILb0EPPN5Nexus3rpc8NodeImpl13SystemMessageES5_ET1_T0_S7_S6_
FN:768,_ZSt23__copy_move_backward_a1ILb0EPPN5Nexus3rpc8NodeImpl14PendingMessageES5_ET1_T0_S7_S6_
FNDA:0,_ZSt23__copy_move_backward_a1ILb0EPPN5Nexus3rpc8NodeImpl14PendingMessageES5_ET1_T0_S7_S6_
FN:796,_ZSt22__copy_move_backward_aILb1EPhS0_ET1_T0_S2_S1_
FNDA:0,_ZSt22__copy_move_backward_aILb1EPhS0_ET1_T0_S2_S1_
FN:796,_ZSt22__copy_move_backward_aILb0EPPN5Nexus3rpc8NodeImpl13SystemMessageES5_ET1_T0_S7_S6_
FNDA:0,_ZSt22__copy_move_backward_aILb0EPPN5Nexus3rpc8NodeImpl13SystemMessageES5_ET1_T0_S7_S6_
FN:796,_ZSt22__copy_move_backward_aILb0EPPN5Nexus3rpc8NodeImpl14PendingMessageES5_ET1_T0_S7_S6_
FNDA:0,_ZSt22__copy_move_backward_aILb0EPPN5Nexus3rpc8NodeImpl14PendingMessageES5_ET1_T0_S7_S6_
FN:848,_ZSt13copy_backwardIPPN5Nexus3rpc8NodeImpl13SystemMessageES5_ET0_T_S7_S6_
FNDA:0,_ZSt13copy_backwardIPPN5Nexus3rpc8NodeImpl13SystemMessageES5_ET0_T_S7_S6_
FN:848,_ZSt13copy_backwardIPPN5Nexus3rpc8NodeImpl14PendingMessageES5_ET0_T_S7_S6_
FNDA:0,_ZSt13copy_backwardIPPN5Nexus3rpc8NodeImpl14PendingMessageES5_ET0_T_S7_S6_
FN:884,_ZSt13move_backwardIPhS0_ET0_T_S2_S1_
FNDA:0,_ZSt13move_backwardIPhS0_ET0_T_S2_S1_
FN:932,_ZSt9__fill_a1IhEN9__gnu_cxx11__enable_ifIXsrSt9__is_byteIT_E7__valueEvE6__typeEPS3_S7_RKS3_
FNDA:10,_ZSt9__fill_a1IhEN9__gnu_cxx11__enable_ifIXsrSt9__is_byteIT_E7__valueEvE6__typeEPS3_S7_RKS3_
FN:968,_ZSt8__fill_aIPhhEvT_S1_RKT0_
FNDA:10,_ZSt8__fill_aIPhhEvT_S1_RKT0_
FN:1010,_ZSt17__size_to_integerm
FNDA:10,_ZSt17__size_to_integerm
FN:1109,_ZSt10__fill_n_aIPhmhET_S1_T0_RKT1_St26random_access_iterator_tag
FNDA:10,_ZSt10__fill_n_aIPhmhET_S1_T0_RKT1_St26random_access_iterator_tag
FN:1144,_ZSt6fill_nIPhmhET_S1_T0_RKT1_
FNDA:10,_ZSt6fill_nIPhmhET_S1_T0_RKT1_
FN:2061,_ZSt9__find_ifIN9__gnu_cxx17__normal_iteratorIPNSt7__cxx1112basic_stringIcSt11char_traitsIcESaIcEEESt6vectorIS7_SaIS7_EEEENS0_5__ops16_Iter_equals_valIKS7_EEET_SH_SH_T0_St26random_access_iterator_tag
FNDA:1,_ZSt9__find_ifIN9__gnu_cxx17__normal_iteratorIPNSt7__cxx1112basic_stringIcSt11char_traitsIcESaIcEEESt6vectorIS7_SaIS7_EEEENS0_5__ops16_Iter_equals_valIKS7_EEET_SH_SH_T0_St26random_access_iterator_tag
FN:2112,_ZSt9__find_ifIN9__gnu_cxx17__normal_iteratorIPNSt7__cxx1112basic_stringIcSt11char_traitsIcESaIcEEESt6vectorIS7_SaIS7_EEEENS0_5__ops16_Iter_equals_valIKS7_EEET_SH_SH_T0_
FNDA:1,_ZSt9__find_ifIN9__gnu_cxx17__normal_iteratorIPNSt7__cxx1112basic_stringIcSt11char_traitsIcESaIcEEESt6vectorIS7_SaIS7_EEEENS0_5__ops16_Iter_equals_valIKS7_EEET_SH_SH_T0_
DA:230,51
DA:235,51
DA:236,0
DA:237,51
DA:254,53
DA:259,53
DA:260,28
DA:261,25
DA:313,12
DA:315,12
DA:313,0
DA:315,0
DA:313,168
DA:315,168
DA:313,2
DA:315,2
DA:313,4
DA:315,4
DA:313,0
DA:315,0
DA:313,54
DA:315,54
DA:313,636
DA:315,636
DA:313,18
DA:315,18
DA:313,606
DA:315,606
DA:328,0
DA:329,0
DA:335,4
DA:336,4
DA:335,0
DA:336,0
DA:335,2
DA:336,2
DA:335,0
DA:336,0
DA:350,0
DA:352,0
DA:353,0
DA:354,0
DA:380,8
DA:383,112
DA:385,104
DA:386,104
DA:387,104
DA:389,8
DA:420,0
DA:429,0
DA:430,0
DA:431,0
DA:432,0
DA:420,4
DA:429,4
DA:430,4
DA:431,4
DA:432,4
DA:420,0
DA:429,0
DA:430,0
DA:431,0
DA:432,0
DA:420,2
DA:429,2
DA:430,2
DA:431,2
DA:432,2
DA:486,0
DA:495,0
DA:486,4
DA:495,4
DA:486,0
DA:495,0
DA:486,8
DA:495,8
DA:486,2
DA:495,2
DA:486,0
DA:495,0
DA:521,0
DA:522,0
DA:521,4
DA:522,4
DA:521,0
DA:522,0
DA:521,8
DA:522,8
DA:521,2
DA:522,2
DA:521,0
DA:522,0
DA:527,8
DA:529,8
DA:532,8
DA:527,0
DA:529,0
DA:532,0
DA:527,4
DA:529,4
DA:532,4
DA:527,0
DA:529,0
DA:532,0
DA:527,0
DA:529,0
DA:532,0
DA:527,2
DA:529,2
DA:532,2
DA:527,0
DA:529,0
DA:532,0
DA:611,8
DA:620,8
DA:611,0
DA:620,0
DA:611,4
DA:620,4
DA:611,0
DA:620,0
DA:611,0
DA:620,0
DA:611,2
DA:620,2
DA:611,0
DA:620,0
DA:731,0
DA:740,0
DA:741,0
DA:742,0
DA:743,0
DA:731,0
DA:740,0
DA:741,0
DA:742,0
DA:743,0
DA:731,0
DA:740,0
DA:741,0
DA:742,0
DA:743,0
DA:750,0
DA:760,0
DA:762,0
DA:750,0
DA:760,0
DA:762,0
DA:750,0
DA:760,0
DA:762,0
DA:768,0
DA:769,0
DA:768,0
DA:769,0
DA:768,0
DA:769,0
DA:796,0
DA:798,0
DA:801,0
DA:796,0
DA:798,0
DA:801,0
DA:796,0
DA:798,0
DA:801,0
DA:848,0
DA:859,0
DA:848,0
DA:859,0
DA:884,0
DA:894,0
DA:896,0
DA:932,10
DA:934,10
DA:943,10
DA:944,10
DA:945,10
DA:968,10
DA:969,10
DA:1010,10
DA:1109,10
DA:1115,10
DA:1116,0
DA:1120,10
DA:1121,10
DA:1144,10
DA:1149,10
DA:1150,20
DA:2061,1
DA:2065,1
DA:2067,1
DA:2069,0
DA:2070,0
DA:2071,0
DA:2073,0
DA:2074,0
DA:2075,0
DA:2077,0
DA:2078,0
DA:2079,0
DA:2081,0
DA:2082,0
DA:2083,0
DA:2086,1
DA:2088,0
DA:2089,0
DA:2090,0
DA:2091,0
DA:2093,0
DA:2094,0
DA:2095,0
DA:2096,0
DA:2098,0
DA:2099,0
DA:2100,0
DA:2101,0
DA:2103,1
DA:2105,1
DA:2112,1
DA:2114,1
DA:2115,2
end_of_record
SF:/usr/include/c++/11/bits/cpp_type_traits.h
FN:560,_ZSt12__miter_baseIPPN5Nexus3rpc8NodeImpl13SystemMessageEET_S6_
FNDA:8,_ZSt12__miter_baseIPPN5Nexus3rpc8NodeImpl13SystemMessageEET_S6_
FN:560,_ZSt12__miter_baseIPPN5Nexus3rpc8NodeImpl14PendingMessageEET_S6_
FNDA:0,_ZSt12__miter_baseIPPN5Nexus3rpc8NodeImpl14PendingMessageEET_S6_
FN:560,_ZSt12__miter_baseIN9__gnu_cxx17__normal_iteratorIPKcNSt7__cxx1112basic_stringIcSt11char_traitsIcESaIcEEEEEET_SB_
FNDA:16,_ZSt12__miter_baseIN9__gnu_cxx17__normal_iteratorIPKcNSt7__cxx1112basic_stringIcSt11char_traitsIcESaIcEEEEEET_SB_
FN:560,_ZSt12__miter_baseIPhET_S1_
FNDA:0,_ZSt12__miter_baseIPhET_S1_
FN:560,_ZSt12__miter_baseIPKhET_S2_
FNDA:4,_ZSt12__miter_baseIPKhET_S2_
FN:560,_ZSt12__miter_baseISt23_Rb_tree_const_iteratorINSt7__cxx1112basic_stringIcSt11char_traitsIcESaIcEEEEET_S8_
FNDA:0,_ZSt12__miter_baseISt23_Rb_tree_const_iteratorINSt7__cxx1112basic_stringIcSt11char_traitsIcESaIcEEEEET_S8_
DA:560,8
DA:561,8
DA:560,0
DA:561,0
DA:560,16
DA:561,16
DA:560,0
DA:561,0
DA:560,4
DA:561,4
DA:560,0
DA:561,0
end_of_record
SF:/usr/include/c++/11/bits/functional_hash.h
FN:196,_ZNSt10_Hash_impl4hashEPKvmm
FNDA:151,_ZNSt10_Hash_impl4hashEPKvmm
DA:196,151
DA:198,151
end_of_record
SF:/usr/include/c++/11/bits/stl_tree.h
FN:112,_ZNSt18_Rb_tree_node_base10_S_minimumEPS_
FNDA:0,_ZNSt18_Rb_tree_node_base10_S_minimumEPS_
FN:126,_ZNSt18_Rb_tree_node_base10_S_maximumEPS_
FNDA:0,_ZNSt18_Rb_tree_node_base10_S_maximumEPS_
FN:146,_ZNSt20_Rb_tree_key_compareISt4lessIN5Nexus3rpc15SubscriptionKeyEEEC2Ev
FNDA:4,_ZNSt20_Rb_tree_key_compareISt4lessIN5Nexus3rpc15SubscriptionKeyEEEC2Ev
FN:146,_ZNSt20_Rb_tree_key_compareISt4lessINSt7__cxx1112basic_stringIcSt11char_traitsIcESaIcEEEEEC2Ev
FNDA:453,_ZNSt20_Rb_tree_key_compareISt4lessINSt7__cxx1112basic_stringIcSt11char_traitsIcESaIcEEEEEC2Ev
FN:173,_ZNSt15_Rb_tree_headerC2Ev
FNDA:581,_ZNSt15_Rb_tree_headerC2Ev
FN:206,_ZNSt15_Rb_tree_header8_M_resetEv
FNDA:851,_ZNSt15_Rb_tree_header8_M_resetEv
FN:234,_ZNSt13_Rb_tree_nodeINSt7__cxx1112basic_stringIcSt11char_traitsIcESaIcEEEE9_M_valptrEv
FNDA:80,_ZNSt13_Rb_tree_nodeINSt7__cxx1112basic_stringIcSt11char_traitsIcESaIcEEEE9_M_valptrEv
FN:234,_ZNSt13_Rb_tree_nodeISt4pairIKNSt7__cxx1112basic_stringIcSt11char_traitsIcESaIcEEEN5Nexus3rpc8NodeImpl14RemoteNodeInfoEEE9_M_valptrEv
FNDA:20,_ZNSt13_Rb_tree_nodeISt4pairIKNSt7__cxx1112basic_stringIcSt11char_traitsIcESaIcEEEN5Nexus3rpc8NodeImpl14RemoteNodeInfoEEE9_M_valptrEv
FN:234,_ZNSt13_Rb_tree_nodeIN5Nexus3rpc15SubscriptionKeyEE9_M_valptrEv
FNDA:0,_ZNSt13_Rb_tree_nodeIN5Nexus3rpc15SubscriptionKeyEE9_M_valptrEv
FN:234,_ZNSt13_Rb_tree_nodeISt4pairIKNSt7__cxx1112basic_stringIcSt11char_traitsIcESaIcEEEN5Nexus3rpc8NodeImpl16SubscriptionInfoEEE9_M_valptrEv
FNDA:78,_ZNSt13_Rb_tree_nodeISt4pairIKNSt7__cxx1112basic_stringIcSt11char_traitsIcESaIcEEEN5Nexus3rpc8NodeImpl16SubscriptionInfoEEE9_M_valptrEv
FN:234,_ZNSt13_Rb_tree_nodeISt4pairIKNSt7__cxx1112basic_stringIcSt11char_traitsIcESaIcEEESt10shared_ptrIN5Nexus3rpc16LargeDataChannelEEEE9_M_valptrEv
FNDA:0,_ZNSt13_Rb_tree_nodeISt4pairIKNSt7__cxx1112basic_stringIcSt11char_traitsIcESaIcEEESt10shared_ptrIN5Nexus3rpc16LargeDataChannelEEEE9_M_valptrEv
FN:238,_ZNKSt13_Rb_tree_nodeISt4pairIKNSt7__cxx1112basic_stringIcSt11char_traitsIcESaIcEEEN5Nexus3rpc8NodeImpl14RemoteNodeInfoEEE9_M_valptrEv
FNDA:2,_ZNKSt13_Rb_tree_nodeISt4pairIKNSt7__cxx1112basic_stringIcSt11char_traitsIcESaIcEEEN5Nexus3rpc8NodeImpl14RemoteNodeInfoEEE9_M_valptrEv
FN:238,_ZNKSt13_Rb_tree_nodeISt4pairIKNSt7__cxx1112basic_stringIcSt11char_traitsIcESaIcEEESt10shared_ptrIN5Nexus3rpc16LargeDataChannelEEEE9_M_valptrEv
FNDA:0,_ZNKSt13_Rb_tree_nodeISt4pairIKNSt7__cxx1112basic_stringIcSt11char_traitsIcESaIcEEESt10shared_ptrIN5Nexus3rpc16LargeDataChannelEEEE9_M_valptrEv
FN:238,_ZNKSt13_Rb_tree_nodeINSt7__cxx1112basic_stringIcSt11char_traitsIcESaIcEEEE9_M_valptrEv
FNDA:64,_ZNKSt13_Rb_tree_nodeINSt7__cxx1112basic_stringIcSt11char_traitsIcESaIcEEEE9_M_valptrEv
FN:238,_ZNKSt13_Rb_tree_nodeISt4pairIKNSt7__cxx1112basic_stringIcSt11char_traitsIcESaIcEEEN5Nexus3rpc8NodeImpl16SubscriptionInfoEEE9_M_valptrEv
FNDA:58,_ZNKSt13_Rb_tree_nodeISt4pairIKNSt7__cxx1112basic_stringIcSt11char_traitsIcESaIcEEEN5Nexus3rpc8NodeImpl16SubscriptionInfoEEE9_M_valptrEv
FN:273,_ZNSt17_Rb_tree_iteratorISt4pairIKNSt7__cxx1112basic_stringIcSt11char_traitsIcESaIcEEEN5Nexus3rpc8NodeImpl16SubscriptionInfoEEEC2EPSt18_Rb_tree_node_base
FNDA:160,_ZNSt17_Rb_tree_iteratorISt4pairIKNSt7__cxx1112basic_stringIcSt11char_traitsIcESaIcEEEN5Nexus3rpc8NodeImpl16SubscriptionInfoEEEC2EPSt18_Rb_tree_node_base
FN:273,_ZNSt17_Rb_tree_iteratorINSt7__cxx1112basic_stringIcSt11char_traitsIcESaIcEEEEC2EPSt18_Rb_tree_node_base
FNDA:144,_ZNSt17_Rb_tree_iteratorINSt7__cxx1112basic_stringIcSt11char_traitsIcESaIcEEEEC2EPSt18_Rb_tree_node_base
FN:273,_ZNSt17_Rb_tree_iteratorISt4pairIKNSt7__cxx1112basic_stringIcSt11char_traitsIcESaIcEEESt10shared_ptrIN5Nexus3rpc16LargeDataChannelEEEEC2EPSt18_Rb_tree_node_base
FNDA:0,_ZNSt17_Rb_tree_iteratorISt4pairIKNSt7__cxx1112basic_stringIcSt11char_traitsIcESaIcEEESt10shared_ptrIN5Nexus3rpc16LargeDataChannelEEEEC2EPSt18_Rb_tree_node_base
FN:273,_ZNSt17_Rb_tree_iteratorISt4pairIKNSt7__cxx1112basic_stringIcSt11char_traitsIcESaIcEEEN5Nexus3rpc8NodeImpl14RemoteNodeInfoEEEC2EPSt18_Rb_tree_node_base
FNDA:86,_ZNSt17_Rb_tree_iteratorISt4pairIKNSt7__cxx1112basic_stringIcSt11char_traitsIcESaIcEEEN5Nexus3rpc8NodeImpl14RemoteNodeInfoEEEC2EPSt18_Rb_tree_node_base
FN:277,_ZNKSt17_Rb_tree_iteratorISt4pairIKNSt7__cxx1112basic_stringIcSt11char_traitsIcESaIcEEESt10shared_ptrIN5Nexus3rpc16LargeDataChannelEEEEdeEv
FNDA:0,_ZNKSt17_Rb_tree_iteratorISt4pairIKNSt7__cxx1112basic_stringIcSt11char_traitsIcESaIcEEESt10shared_ptrIN5Nexus3rpc16LargeDataChannelEEEEdeEv
FN:277,_ZNKSt17_Rb_tree_iteratorISt4pairIKNSt7__cxx1112basic_stringIcSt11char_traitsIcESaIcEEEN5Nexus3rpc8NodeImpl16SubscriptionInfoEEEdeEv
FNDA:16,_ZNKSt17_Rb_tree_iteratorISt4pairIKNSt7__cxx1112basic_stringIcSt11char_traitsIcESaIcEEEN5Nexus3rpc8NodeImpl16SubscriptionInfoEEEdeEv
FN:277,_ZNKSt17_Rb_tree_iteratorISt4pairIKNSt7__cxx1112basic_stringIcSt11char_traitsIcESaIcEEEN5Nexus3rpc8NodeImpl14RemoteNodeInfoEEEdeEv
FNDA:2,_ZNKSt17_Rb_tree_iteratorISt4pairIKNSt7__cxx1112basic_stringIcSt11char_traitsIcESaIcEEEN5Nexus3rpc8NodeImpl14RemoteNodeInfoEEEdeEv
FN:281,_ZNKSt17_Rb_tree_iteratorISt4pairIKNSt7__cxx1112basic_stringIcSt11char_traitsIcESaIcEEEN5Nexus3rpc8NodeImpl14RemoteNodeInfoEEEptEv
FNDA:14,_ZNKSt17_Rb_tree_iteratorISt4pairIKNSt7__cxx1112basic_stringIcSt11char_traitsIcESaIcEEEN5Nexus3rpc8NodeImpl14RemoteNodeInfoEEEptEv
FN:281,_ZNKSt17_Rb_tree_iteratorISt4pairIKNSt7__cxx1112basic_stringIcSt11char_traitsIcESaIcEEESt10shared_ptrIN5Nexus3rpc16LargeDataChannelEEEEptEv
FNDA:0,_ZNKSt17_Rb_tree_iteratorISt4pairIKNSt7__cxx1112basic_stringIcSt11char_traitsIcESaIcEEESt10shared_ptrIN5Nexus3rpc16LargeDataChannelEEEEptEv
FN:281,_ZNKSt17_Rb_tree_iteratorISt4pairIKNSt7__cxx1112basic_stringIcSt11char_traitsIcESaIcEEEN5Nexus3rpc8NodeImpl16SubscriptionInfoEEEptEv
FNDA:30,_ZNKSt17_Rb_tree_iteratorISt4pairIKNSt7__cxx1112basic_stringIcSt11char_traitsIcESaIcEEEN5Nexus3rpc8NodeImpl16SubscriptionInfoEEEptEv
FN:285,_ZNSt17_Rb_tree_iteratorISt4pairIKNSt7__cxx1112basic_stringIcSt11char_traitsIcESaIcEEEN5Nexus3rpc8NodeImpl14RemoteNodeInfoEEEppEv
FNDA:10,_ZNSt17_Rb_tree_iteratorISt4pairIKNSt7__cxx1112basic_stringIcSt11char_traitsIcESaIcEEEN5Nexus3rpc8NodeImpl14RemoteNodeInfoEEEppEv
FN:285,_ZNSt17_Rb_tree_iteratorISt4pairIKNSt7__cxx1112basic_stringIcSt11char_traitsIcESaIcEEESt10shared_ptrIN5Nexus3rpc16LargeDataChannelEEEEppEv
FNDA:0,_ZNSt17_Rb_tree_iteratorISt4pairIKNSt7__cxx1112basic_stringIcSt11char_traitsIcESaIcEEESt10shared_ptrIN5Nexus3rpc16LargeDataChannelEEEEppEv
FN:285,_ZNSt17_Rb_tree_iteratorISt4pairIKNSt7__cxx1112basic_stringIcSt11char_traitsIcESaIcEEEN5Nexus3rpc8NodeImpl16SubscriptionInfoEEEppEv
FNDA:4,_ZNSt17_Rb_tree_iteratorISt4pairIKNSt7__cxx1112basic_stringIcSt11char_traitsIcESaIcEEEN5Nexus3rpc8NodeImpl16SubscriptionInfoEEEppEv
FN:285,_ZNSt17_Rb_tree_iteratorINSt7__cxx1112basic_stringIcSt11char_traitsIcESaIcEEEEppEv
FNDA:0,_ZNSt17_Rb_tree_iteratorINSt7__cxx1112basic_stringIcSt11char_traitsIcESaIcEEEEppEv
FN:300,_ZNSt17_Rb_tree_iteratorISt4pairIKNSt7__cxx1112basic_stringIcSt11char_traitsIcESaIcEEEN5Nexus3rpc8NodeImpl14RemoteNodeInfoEEEmmEv
FNDA:0,_ZNSt17_Rb_tree_iteratorISt4pairIKNSt7__cxx1112basic_stringIcSt11char_traitsIcESaIcEEEN5Nexus3rpc8NodeImpl14RemoteNodeInfoEEEmmEv
FN:300,_ZNSt17_Rb_tree_iteratorISt4pairIKNSt7__cxx1112basic_stringIcSt11char_traitsIcESaIcEEESt10shared_ptrIN5Nexus3rpc16LargeDataChannelEEEEmmEv
FNDA:0,_ZNSt17_Rb_tree_iteratorISt4pairIKNSt7__cxx1112basic_stringIcSt11char_traitsIcESaIcEEESt10shared_ptrIN5Nexus3rpc16LargeDataChannelEEEEmmEv
FN:300,_ZNSt17_Rb_tree_iteratorINSt7__cxx1112basic_stringIcSt11char_traitsIcESaIcEEEEmmEv
FNDA:0,_ZNSt17_Rb_tree_iteratorINSt7__cxx1112basic_stringIcSt11char_traitsIcESaIcEEEEmmEv
FN:300,_ZNSt17_Rb_tree_iteratorISt4pairIKNSt7__cxx1112basic_stringIcSt11char_traitsIcESaIcEEEN5Nexus3rpc8NodeImpl16SubscriptionInfoEEEmmEv
FNDA:0,_ZNSt17_Rb_tree_iteratorISt4pairIKNSt7__cxx1112basic_stringIcSt11char_traitsIcESaIcEEEN5Nexus3rpc8NodeImpl16SubscriptionInfoEEEmmEv
FN:315,_ZSteqRKSt17_Rb_tree_iteratorINSt7__cxx1112basic_stringIcSt11char_traitsIcESaIcEEEES8_
FNDA:38,_ZSteqRKSt17_Rb_tree_iteratorINSt7__cxx1112basic_stringIcSt11char_traitsIcESaIcEEEES8_
FN:315,_ZSteqRKSt17_Rb_tree_iteratorISt4pairIKNSt7__cxx1112basic_stringIcSt11char_traitsIcESaIcEEEN5Nexus3rpc8NodeImpl16SubscriptionInfoEEESF_
FNDA:66,_ZSteqRKSt17_Rb_tree_iteratorISt4pairIKNSt7__cxx1112basic_stringIcSt11char_traitsIcESaIcEEEN5Nexus3rpc8NodeImpl16SubscriptionInfoEEESF_
FN:315,_ZSteqRKSt17_Rb_tree_iteratorISt4pairIKNSt7__cxx1112basic_stringIcSt11char_traitsIcESaIcEEEN5Nexus3rpc8NodeImpl14RemoteNodeInfoEEESF_
FNDA:6,_ZSteqRKSt17_Rb_tree_iteratorISt4pairIKNSt7__cxx1112basic_stringIcSt11char_traitsIcESaIcEEEN5Nexus3rpc8NodeImpl14RemoteNodeInfoEEESF_
FN:315,_ZSteqRKSt17_Rb_tree_iteratorISt4pairIKNSt7__cxx1112basic_stringIcSt11char_traitsIcESaIcEEESt10shared_ptrIN5Nexus3rpc16LargeDataChannelEEEESG_
FNDA:0,_ZSteqRKSt17_Rb_tree_iteratorISt4pairIKNSt7__cxx1112basic_stringIcSt11char_traitsIcESaIcEEESt10shared_ptrIN5Nexus3rpc16LargeDataChannelEEEESG_
FN:320,_ZStneRKSt17_Rb_tree_iteratorISt4pairIKNSt7__cxx1112basic_stringIcSt11char_traitsIcESaIcEEESt10shared_ptrIN5Nexus3rpc16LargeDataChannelEEEESG_
FNDA:0,_ZStneRKSt17_Rb_tree_iteratorISt4pairIKNSt7__cxx1112basic_stringIcSt11char_traitsIcESaIcEEESt10shared_ptrIN5Nexus3rpc16LargeDataChannelEEEESG_
FN:320,_ZStneRKSt17_Rb_tree_iteratorISt4pairIKNSt7__cxx1112basic_stringIcSt11char_traitsIcESaIcEEEN5Nexus3rpc8NodeImpl16SubscriptionInfoEEESF_
FNDA:6,_ZStneRKSt17_Rb_tree_iteratorISt4pairIKNSt7__cxx1112basic_stringIcSt11char_traitsIcESaIcEEEN5Nexus3rpc8NodeImpl16SubscriptionInfoEEESF_
FN:320,_ZStneRKSt17_Rb_tree_iteratorISt4pairIKNSt7__cxx1112basic_stringIcSt11char_traitsIcESaIcEEEN5Nexus3rpc8NodeImpl14RemoteNodeInfoEEESF_
FNDA:40,_ZStneRKSt17_Rb_tree_iteratorISt4pairIKNSt7__cxx1112basic_stringIcSt11char_traitsIcESaIcEEEN5Nexus3rpc8NodeImpl14RemoteNodeInfoEEESF_
FN:347,_ZNSt23_Rb_tree_const_iteratorISt4pairIKNSt7__cxx1112basic_stringIcSt11char_traitsIcESaIcEEEN5Nexus3rpc8NodeImpl16SubscriptionInfoEEEC2EPKSt18_Rb_tree_node_base
FNDA:14,_ZNSt23_Rb_tree_const_iteratorISt4pairIKNSt7__cxx1112basic_stringIcSt11char_traitsIcESaIcEEEN5Nexus3rpc8NodeImpl16SubscriptionInfoEEEC2EPKSt18_Rb_tree_node_base
FN:347,_ZNSt23_Rb_tree_const_iteratorINSt7__cxx1112basic_stringIcSt11char_traitsIcESaIcEEEEC2EPKSt18_Rb_tree_node_base
FNDA:106,_ZNSt23_Rb_tree_const_iteratorINSt7__cxx1112basic_stringIcSt11char_traitsIcESaIcEEEEC2EPKSt18_Rb_tree_node_base
FN:350,_ZNSt23_Rb_tree_const_iteratorISt4pairIKNSt7__cxx1112basic_stringIcSt11char_traitsIcESaIcEEEN5Nexus3rpc8NodeImpl16SubscriptionInfoEEEC2ERKSt17_Rb_tree_iteratorISC_E
FNDA:20,_ZNSt23_Rb_tree_const_iteratorISt4pairIKNSt7__cxx1112basic_stringIcSt11char_traitsIcESaIcEEEN5Nexus3rpc8NodeImpl16SubscriptionInfoEEEC2ERKSt17_Rb_tree_iteratorISC_E
FN:350,_ZNSt23_Rb_tree_const_iteratorINSt7__cxx1112basic_stringIcSt11char_traitsIcESaIcEEEEC2ERKSt17_Rb_tree_iteratorIS5_E
FNDA:50,_ZNSt23_Rb_tree_const_iteratorINSt7__cxx1112basic_stringIcSt11char_traitsIcESaIcEEEEC2ERKSt17_Rb_tree_iteratorIS5_E
FN:350,_ZNSt23_Rb_tree_const_iteratorISt4pairIKNSt7__cxx1112basic_stringIcSt11char_traitsIcESaIcEEESt10shared_ptrIN5Nexus3rpc16LargeDataChannelEEEEC2ERKSt17_Rb_tree_iteratorISD_E
FNDA:0,_ZNSt23_Rb_tree_const_iteratorISt4pairIKNSt7__cxx1112basic_stringIcSt11char_traitsIcESaIcEEESt10shared_ptrIN5Nexus3rpc16LargeDataChannelEEEEC2ERKSt17_Rb_tree_iteratorISD_E
FN:350,_ZNSt23_Rb_tree_const_iteratorISt4pairIKNSt7__cxx1112basic_stringIcSt11char_traitsIcESaIcEEEN5Nexus3rpc8NodeImpl14RemoteNodeInfoEEEC2ERKSt17_Rb_tree_iteratorISC_E
FNDA:4,_ZNSt23_Rb_tree_const_iteratorISt4pairIKNSt7__cxx1112basic_stringIcSt11char_traitsIcESaIcEEEN5Nexus3rpc8NodeImpl14RemoteNodeInfoEEEC2ERKSt17_Rb_tree_iteratorISC_E
FN:354,_ZNKSt23_Rb_tree_const_iteratorISt4pairIKNSt7__cxx1112basic_stringIcSt11char_traitsIcESaIcEEEN5Nexus3rpc8NodeImpl16SubscriptionInfoEEE13_M_const_castEv
FNDA:16,_ZNKSt23_Rb_tree_const_iteratorISt4pairIKNSt7__cxx1112basic_stringIcSt11char_traitsIcESaIcEEEN5Nexus3rpc8NodeImpl16SubscriptionInfoEEE13_M_const_castEv
FN:354,_ZNKSt23_Rb_tree_const_iteratorISt4pairIKNSt7__cxx1112basic_stringIcSt11char_traitsIcESaIcEEESt10shared_ptrIN5Nexus3rpc16LargeDataChannelEEEE13_M_const_castEv
FNDA:0,_ZNKSt23_Rb_tree_const_iteratorISt4pairIKNSt7__cxx1112basic_stringIcSt11char_traitsIcESaIcEEESt10shared_ptrIN5Nexus3rpc16LargeDataChannelEEEE13_M_const_castEv
FN:354,_ZNKSt23_Rb_tree_const_iteratorINSt7__cxx1112basic_stringIcSt11char_traitsIcESaIcEEEE13_M_const_castEv
FNDA:12,_ZNKSt23_Rb_tree_const_iteratorINSt7__cxx1112basic_stringIcSt11char_traitsIcESaIcEEEE13_M_const_castEv
FN:354,_ZNKSt23_Rb_tree_const_iteratorISt4pairIKNSt7__cxx1112basic_stringIcSt11char_traitsIcESaIcEEEN5Nexus3rpc8NodeImpl14RemoteNodeInfoEEE13_M_const_castEv
FNDA:2,_ZNKSt23_Rb_tree_const_iteratorISt4pairIKNSt7__cxx1112basic_stringIcSt11char_traitsIcESaIcEEEN5Nexus3rpc8NodeImpl14RemoteNodeInfoEEE13_M_const_castEv
FN:358,_ZNKSt23_Rb_tree_const_iteratorINSt7__cxx1112basic_stringIcSt11char_traitsIcESaIcEEEEdeEv
FNDA:6,_ZNKSt23_Rb_tree_const_iteratorINSt7__cxx1112basic_stringIcSt11char_traitsIcESaIcEEEEdeEv
FN:362,_ZNKSt23_Rb_tree_const_iteratorISt4pairIKNSt7__cxx1112basic_stringIcSt11char_traitsIcESaIcEEEN5Nexus3rpc8NodeImpl16SubscriptionInfoEEEptEv
FNDA:4,_ZNKSt23_Rb_tree_const_iteratorISt4pairIKNSt7__cxx1112basic_stringIcSt11char_traitsIcESaIcEEEN5Nexus3rpc8NodeImpl16SubscriptionInfoEEEptEv
FN:366,_ZNSt23_Rb_tree_const_iteratorINSt7__cxx1112basic_stringIcSt11char_traitsIcESaIcEEEEppEv
FNDA:12,_ZNSt23_Rb_tree_const_iteratorINSt7__cxx1112basic_stringIcSt11char_traitsIcESaIcEEEEppEv
FN:381,_ZNSt23_Rb_tree_const_iteratorINSt7__cxx1112basic_stringIcSt11char_traitsIcESaIcEEEEmmEv
FNDA:0,_ZNSt23_Rb_tree_const_iteratorINSt7__cxx1112basic_stringIcSt11char_traitsIcESaIcEEEEmmEv
FN:396,_ZSteqRKSt23_Rb_tree_const_iteratorINSt7__cxx1112basic_stringIcSt11char_traitsIcESaIcEEEES8_
FNDA:16,_ZSteqRKSt23_Rb_tree_const_iteratorINSt7__cxx1112basic_stringIcSt11char_traitsIcESaIcEEEES8_
FN:396,_ZSteqRKSt23_Rb_tree_const_iteratorISt4pairIKNSt7__cxx1112basic_stringIcSt11char_traitsIcESaIcEEEN5Nexus3rpc8NodeImpl16SubscriptionInfoEEESF_
FNDA:8,_ZSteqRKSt23_Rb_tree_const_iteratorISt4pairIKNSt7__cxx1112basic_stringIcSt11char_traitsIcESaIcEEEN5Nexus3rpc8NodeImpl16SubscriptionInfoEEESF_
FN:401,_ZStneRKSt23_Rb_tree_const_iteratorINSt7__cxx1112basic_stringIcSt11char_traitsIcESaIcEEEES8_
FNDA:56,_ZStneRKSt23_Rb_tree_const_iteratorINSt7__cxx1112basic_stringIcSt11char_traitsIcESaIcEEEES8_
FN:443,_ZNSt8_Rb_treeIN5Nexus3rpc15SubscriptionKeyES2_St9_IdentityIS2_ESt4lessIS2_ESaIS2_EE20_Reuse_or_alloc_nodeC2ERS8_
FNDA:2,_ZNSt8_Rb_treeIN5Nexus3rpc15SubscriptionKeyES2_St9_IdentityIS2_ESt4lessIS2_ESaIS2_EE20_Reuse_or_alloc_nodeC2ERS8_
FN:461,_ZNSt8_Rb_treeIN5Nexus3rpc15SubscriptionKeyES2_St9_IdentityIS2_ESt4lessIS2_ESaIS2_EE20_Reuse_or_alloc_nodeD2Ev
FNDA:2,_ZNSt8_Rb_treeIN5Nexus3rpc15SubscriptionKeyES2_St9_IdentityIS2_ESt4lessIS2_ESaIS2_EE20_Reuse_or_alloc_nodeD2Ev
FN:466,_ZNSt8_Rb_treeIN5Nexus3rpc15SubscriptionKeyES2_St9_IdentityIS2_ESt4lessIS2_ESaIS2_EE20_Reuse_or_alloc_nodeclIRKS2_EEPSt13_Rb_tree_nodeIS2_EOT_
FNDA:0,_ZNSt8_Rb_treeIN5Nexus3rpc15SubscriptionKeyES2_St9_IdentityIS2_ESt4lessIS2_ESaIS2_EE20_Reuse_or_alloc_nodeclIRKS2_EEPSt13_Rb_tree_nodeIS2_EOT_
FN:481,_ZNSt8_Rb_treeIN5Nexus3rpc15SubscriptionKeyES2_St9_IdentityIS2_ESt4lessIS2_ESaIS2_EE20_Reuse_or_alloc_node10_M_extractEv
FNDA:0,_ZNSt8_Rb_treeIN5Nexus3rpc15SubscriptionKeyES2_St9_IdentityIS2_ESt4lessIS2_ESaIS2_EE20_Reuse_or_alloc_node10_M_extractEv
FN:523,_ZNSt8_Rb_treeINSt7__cxx1112basic_stringIcSt11char_traitsIcESaIcEEES5_St9_IdentityIS5_ESt4lessIS5_ESaIS5_EE11_Alloc_nodeC2ERSB_
FNDA:36,_ZNSt8_Rb_treeINSt7__cxx1112basic_stringIcSt11char_traitsIcESaIcEEES5_St9_IdentityIS5_ESt4lessIS5_ESaIS5_EE11_Alloc_nodeC2ERSB_
FN:528,_ZNKSt8_Rb_treeINSt7__cxx1112basic_stringIcSt11char_traitsIcESaIcEEES5_St9_IdentityIS5_ESt4lessIS5_ESaIS5_EE11_Alloc_nodeclIRS5_EEPSt13_Rb_tree_nodeIS5_EOT_
FNDA:10,_ZNKSt8_Rb_treeINSt7__cxx1112basic_stringIcSt11char_traitsIcESaIcEEES5_St9_IdentityIS5_ESt4lessIS5_ESaIS5_EE11_Alloc_nodeclIRS5_EEPSt13_Rb_tree_nodeIS5_EOT_
FN:528,_ZNKSt8_Rb_treeINSt7__cxx1112basic_stringIcSt11char_traitsIcESaIcEEES5_St9_IdentityIS5_ESt4lessIS5_ESaIS5_EE11_Alloc_nodeclIRKS5_EEPSt13_Rb_tree_nodeIS5_EOT_
FNDA:20,_ZNKSt8_Rb_treeINSt7__cxx1112basic_stringIcSt11char_traitsIcESaIcEEES5_St9_IdentityIS5_ESt4lessIS5_ESaIS5_EE11_Alloc_nodeclIRKS5_EEPSt13_Rb_tree_nodeIS5_EOT_
FN:528,_ZNKSt8_Rb_treeINSt7__cxx1112basic_stringIcSt11char_traitsIcESaIcEEES5_St9_IdentityIS5_ESt4lessIS5_ESaIS5_EE11_Alloc_nodeclIS5_EEPSt13_Rb_tree_nodeIS5_EOT_
FNDA:10,_ZNKSt8_Rb_treeINSt7__cxx1112basic_stringIcSt11char_traitsIcESaIcEEES5_St9_IdentityIS5_ESt4lessIS5_ESaIS5_EE11_Alloc_nodeclIS5_EEPSt13_Rb_tree_nodeIS5_EOT_
FN:547,_ZNSt8_Rb_treeIN5Nexus3rpc15SubscriptionKeyES2_St9_IdentityIS2_ESt4lessIS2_ESaIS2_EE21_M_get_Node_allocatorEv
FNDA:0,_ZNSt8_Rb_treeIN5Nexus3rpc15SubscriptionKeyES2_St9_IdentityIS2_ESt4lessIS2_ESaIS2_EE21_M_get_Node_allocatorEv
FN:547,_ZNSt8_Rb_treeINSt7__cxx1112basic_stringIcSt11char_traitsIcESaIcEEESt4pairIKS5_N5Nexus3rpc8NodeImpl14RemoteNodeInfoEESt10_Select1stISC_ESt4lessIS5_ESaISC_EE21_M_get_Node_allocatorEv
FNDA:8,_ZNSt8_Rb_treeINSt7__cxx1112basic_stringIcSt11char_traitsIcESaIcEEESt4pairIKS5_N5Nexus3rpc8NodeImpl14RemoteNodeInfoEESt10_Select1stISC_ESt4lessIS5_ESaISC_EE21_M_get_Node_allocatorEv
FN:547,_ZNSt8_Rb_treeINSt7__cxx1112basic_stringIcSt11char_traitsIcESaIcEEES5_St9_IdentityIS5_ESt4lessIS5_ESaIS5_EE21_M_get_Node_allocatorEv
FNDA:160,_ZNSt8_Rb_treeINSt7__cxx1112basic_stringIcSt11char_traitsIcESaIcEEES5_St9_IdentityIS5_ESt4lessIS5_ESaIS5_EE21_M_get_Node_allocatorEv
FN:547,_ZNSt8_Rb_treeINSt7__cxx1112basic_stringIcSt11char_traitsIcESaIcEEESt4pairIKS5_N5Nexus3rpc8NodeImpl16SubscriptionInfoEESt10_Select1stISC_ESt4lessIS5_ESaISC_EE21_M_get_Node_allocatorEv
FNDA:64,_ZNSt8_Rb_treeINSt7__cxx1112basic_stringIcSt11char_traitsIcESaIcEEESt4pairIKS5_N5Nexus3rpc8NodeImpl16SubscriptionInfoEESt10_Select1stISC_ESt4lessIS5_ESaISC_EE21_M_get_Node_allocatorEv
FN:547,_ZNSt8_Rb_treeINSt7__cxx1112basic_stringIcSt11char_traitsIcESaIcEEESt4pairIKS5_St10shared_ptrIN5Nexus3rpc16LargeDataChannelEEESt10_Select1stISD_ESt4lessIS5_ESaISD_EE21_M_get_Node_allocatorEv
FNDA:0,_ZNSt8_Rb_treeINSt7__cxx1112basic_stringIcSt11char_traitsIcESaIcEEESt4pairIKS5_St10shared_ptrIN5Nexus3rpc16LargeDataChannelEEESt10_Select1stISD_ESt4lessIS5_ESaISD_EE21_M_get_Node_allocatorEv
FN:551,_ZNKSt8_Rb_treeIN5Nexus3rpc15SubscriptionKeyES2_St9_IdentityIS2_ESt4lessIS2_ESaIS2_EE21_M_get_Node_allocatorEv
FNDA:0,_ZNKSt8_Rb_treeIN5Nexus3rpc15SubscriptionKeyES2_St9_IdentityIS2_ESt4lessIS2_ESaIS2_EE21_M_get_Node_allocatorEv
FN:560,_ZNSt8_Rb_treeINSt7__cxx1112basic_stringIcSt11char_traitsIcESaIcEEESt4pairIKS5_N5Nexus3rpc8NodeImpl14RemoteNodeInfoEESt10_Select1stISC_ESt4lessIS5_ESaISC_EE11_M_get_nodeEv
FNDA:2,_ZNSt8_Rb_treeINSt7__cxx1112basic_stringIcSt11char_traitsIcESaIcEEESt4pairIKS5_N5Nexus3rpc8NodeImpl14RemoteNodeInfoEESt10_Select1stISC_ESt4lessIS5_ESaISC_EE11_M_get_nodeEv
FN:560,_ZNSt8_Rb_treeINSt7__cxx1112basic_stringIcSt11char_traitsIcESaIcEEESt4pairIKS5_N5Nexus3rpc8NodeImpl16SubscriptionInfoEESt10_Select1stISC_ESt4lessIS5_ESaISC_EE11_M_get_nodeEv
FNDA:16,_ZNSt8_Rb_treeINSt7__cxx1112basic_stringIcSt11char_traitsIcESaIcEEESt4pairIKS5_N5Nexus3rpc8NodeImpl16SubscriptionInfoEESt10_Select1stISC_ESt4lessIS5_ESaISC_EE11_M_get_nodeEv
FN:560,_ZNSt8_Rb_treeINSt7__cxx1112basic_stringIcSt11char_traitsIcESaIcEEESt4pairIKS5_St10shared_ptrIN5Nexus3rpc16LargeDataChannelEEESt10_Select1stISD_ESt4lessIS5_ESaISD_EE11_M_get_nodeEv
FNDA:0,_ZNSt8_Rb_treeINSt7__cxx1112basic_stringIcSt11char_traitsIcESaIcEEESt4pairIKS5_St10shared_ptrIN5Nexus3rpc16LargeDataChannelEEESt10_Select1stISD_ESt4lessIS5_ESaISD_EE11_M_get_nodeEv
FN:560,_ZNSt8_Rb_treeIN5Nexus3rpc15SubscriptionKeyES2_St9_IdentityIS2_ESt4lessIS2_ESaIS2_EE11_M_get_nodeEv
FNDA:0,_ZNSt8_Rb_treeIN5Nexus3rpc15SubscriptionKeyES2_St9_IdentityIS2_ESt4lessIS2_ESaIS2_EE11_M_get_nodeEv
FN:560,_ZNSt8_Rb_treeINSt7__cxx1112basic_stringIcSt11char_traitsIcESaIcEEES5_St9_IdentityIS5_ESt4lessIS5_ESaIS5_EE11_M_get_nodeEv
FNDA:40,_ZNSt8_Rb_treeINSt7__cxx1112basic_stringIcSt11char_traitsIcESaIcEEES5_St9_IdentityIS5_ESt4lessIS5_ESaIS5_EE11_M_get_nodeEv
FN:564,_ZNSt8_Rb_treeINSt7__cxx1112basic_stringIcSt11char_traitsIcESaIcEEESt4pairIKS5_St10shared_ptrIN5Nexus3rpc16LargeDataChannelEEESt10_Select1stISD_ESt4lessIS5_ESaISD_EE11_M_put_nodeEPSt13_Rb_tree_nodeISD_E
FNDA:0,_ZNSt8_Rb_treeINSt7__cxx1112basic_stringIcSt11char_traitsIcESaIcEEESt4pairIKS5_St10shared_ptrIN5Nexus3rpc16LargeDataChannelEEESt10_Select1stISD_ESt4lessIS5_ESaISD_EE11_M_put_nodeEPSt13_Rb_tree_nodeISD_E
FN:564,_ZNSt8_Rb_treeIN5Nexus3rpc15SubscriptionKeyES2_St9_IdentityIS2_ESt4lessIS2_ESaIS2_EE11_M_put_nodeEPSt13_Rb_tree_nodeIS2_E
FNDA:0,_ZNSt8_Rb_treeIN5Nexus3rpc15SubscriptionKeyES2_St9_IdentityIS2_ESt4lessIS2_ESaIS2_EE11_M_put_nodeEPSt13_Rb_tree_nodeIS2_E
FN:564,_ZNSt8_Rb_treeINSt7__cxx1112basic_stringIcSt11char_traitsIcESaIcEEESt4pairIKS5_N5Nexus3rpc8NodeImpl16SubscriptionInfoEESt10_Select1stISC_ESt4lessIS5_ESaISC_EE11_M_put_nodeEPSt13_Rb_tree_nodeISC_E
FNDA:16,_ZNSt8_Rb_treeINSt7__cxx1112basic_stringIcSt11char_traitsIcESaIcEEESt4pairIKS5_N5Nexus3rpc8NodeImpl16SubscriptionInfoEESt10_Select1stISC_ESt4lessIS5_ESaISC_EE11_M_put_nodeEPSt13_Rb_tree_nodeISC_E
FN:564,_ZNSt8_Rb_treeINSt7__cxx1112basic_stringIcSt11char_traitsIcESaIcEEESt4pairIKS5_N5Nexus3rpc8NodeImpl14RemoteNodeInfoEESt10_Select1stISC_ESt4lessIS5_ESaISC_EE11_M_put_nodeEPSt13_Rb_tree_nodeISC_E
FNDA:2,_ZNSt8_Rb_treeINSt7__cxx1112basic_stringIcSt11char_traitsIcESaIcEEESt4pairIKS5_N5Nexus3rpc8NodeImpl14RemoteNodeInfoEESt10_Select1stISC_ESt4lessIS5_ESaISC_EE11_M_put_nodeEPSt13_Rb_tree_nodeISC_E
FN:564,_ZNSt8_Rb_treeINSt7__cxx1112basic_stringIcSt11char_traitsIcESaIcEEES5_St9_IdentityIS5_ESt4lessIS5_ESaIS5_EE11_M_put_nodeEPSt13_Rb_tree_nodeIS5_E
FNDA:40,_ZNSt8_Rb_treeINSt7__cxx1112basic_stringIcSt11char_traitsIcESaIcEEES5_St9_IdentityIS5_ESt4lessIS5_ESaIS5_EE11_M_put_nodeEPSt13_Rb_tree_nodeIS5_E
FN:590,_ZNSt8_Rb_treeINSt7__cxx1112basic_stringIcSt11char_traitsIcESaIcEEES5_St9_IdentityIS5_ESt4lessIS5_ESaIS5_EE17_M_construct_nodeIJRKS5_EEEvPSt13_Rb_tree_nodeIS5_EDpOT_
FNDA:20,_ZNSt8_Rb_treeINSt7__cxx1112basic_stringIcSt11char_traitsIcESaIcEEES5_St9_IdentityIS5_ESt4lessIS5_ESaIS5_EE17_M_construct_nodeIJRKS5_EEEvPSt13_Rb_tree_nodeIS5_EDpOT_
FN:590,_ZNSt8_Rb_treeIN5Nexus3rpc15SubscriptionKeyES2_St9_IdentityIS2_ESt4lessIS2_ESaIS2_EE17_M_construct_nodeIJRKS2_EEEvPSt13_Rb_tree_nodeIS2_EDpOT_
FNDA:0,_ZNSt8_Rb_treeIN5Nexus3rpc15SubscriptionKeyES2_St9_IdentityIS2_ESt4lessIS2_ESaIS2_EE17_M_construct_nodeIJRKS2_EEEvPSt13_Rb_tree_nodeIS2_EDpOT_
FN:590,_ZNSt8_Rb_treeINSt7__cxx1112basic_stringIcSt11char_traitsIcESaIcEEESt4pairIKS5_N5Nexus3rpc8NodeImpl16SubscriptionInfoEESt10_Select1stISC_ESt4lessIS5_ESaISC_EE17_M_construct_nodeIJRKSt21piecewise_construct_tSt5tupleIJRS7_EESN_IJEEEEEvPSt13_Rb_tree_nodeISC_EDpOT_
FNDA:16,_ZNSt8_Rb_treeINSt7__cxx1112basic_stringIcSt11char_traitsIcESaIcEEESt4pairIKS5_N5Nexus3rpc8NodeImpl16SubscriptionInfoEESt10_Select1stISC_ESt4lessIS5_ESaISC_EE17_M_construct_nodeIJRKSt21piecewise_construct_tSt5tupleIJRS7_EESN_IJEEEEEvPSt13_Rb_tree_nodeISC_EDpOT_
FN:590,_ZNSt8_Rb_treeINSt7__cxx1112basic_stringIcSt11char_traitsIcESaIcEEES5_St9_IdentityIS5_ESt4lessIS5_ESaIS5_EE17_M_construct_nodeIJRS5_EEEvPSt13_Rb_tree_nodeIS5_EDpOT_
FNDA:10,_ZNSt8_Rb_treeINSt7__cxx1112basic_stringIcSt11char_traitsIcESaIcEEES5_St9_IdentityIS5_ESt4lessIS5_ESaIS5_EE17_M_construct_nodeIJRS5_EEEvPSt13_Rb_tree_nodeIS5_EDpOT_
FN:590,_ZNSt8_Rb_treeINSt7__cxx1112basic_stringIcSt11char_traitsIcESaIcEEESt4pairIKS5_St10shared_ptrIN5Nexus3rpc16LargeDataChannelEEESt10_Select1stISD_ESt4lessIS5_ESaISD_EE17_M_construct_nodeIJRKSt21piecewise_construct_tSt5tupleIJRS7_EESO_IJEEEEEvPSt13_Rb_tree_nodeISD_EDpOT_
FNDA:0,_ZNSt8_Rb_treeINSt7__cxx1112basic_stringIcSt11char_traitsIcESaIcEEESt4pairIKS5_St10shared_ptrIN5Nexus3rpc16LargeDataChannelEEESt10_Select1stISD_ESt4lessIS5_ESaISD_EE17_M_construct_nodeIJRKSt21piecewise_construct_tSt5tupleIJRS7_EESO_IJEEEEEvPSt13_Rb_tree_nodeISD_EDpOT_
FN:590,_ZNSt8_Rb_treeINSt7__cxx1112basic_stringIcSt11char_traitsIcESaIcEEES5_St9_IdentityIS5_ESt4lessIS5_ESaIS5_EE17_M_construct_nodeIJS5_EEEvPSt13_Rb_tree_nodeIS5_EDpOT_
FNDA:10,_ZNSt8_Rb_treeINSt7__cxx1112basic_stringIcSt11char_traitsIcESaIcEEES5_St9_IdentityIS5_ESt4lessIS5_ESaIS5_EE17_M_construct_nodeIJS5_EEEvPSt13_Rb_tree_nodeIS5_EDpOT_
FN:590,_ZNSt8_Rb_treeINSt7__cxx1112basic_stringIcSt11char_traitsIcESaIcEEESt4pairIKS5_N5Nexus3rpc8NodeImpl14RemoteNodeInfoEESt10_Select1stISC_ESt4lessIS5_ESaISC_EE17_M_construct_nodeIJRKSt21piecewise_construct_tSt5tupleIJRS7_EESN_IJEEEEEvPSt13_Rb_tree_nodeISC_EDpOT_
FNDA:2,_ZNSt8_Rb_treeINSt7__cxx1112basic_stringIcSt11char_traitsIcESaIcEEESt4pairIKS5_N5Nexus3rpc8NodeImpl14RemoteNodeInfoEESt10_Select1stISC_ESt4lessIS5_ESaISC_EE17_M_construct_nodeIJRKSt21piecewise_construct_tSt5tupleIJRS7_EESN_IJEEEEEvPSt13_Rb_tree_nodeISC_EDpOT_
FN:609,_ZNSt8_Rb_treeIN5Nexus3rpc15SubscriptionKeyES2_St9_IdentityIS2_ESt4lessIS2_ESaIS2_EE14_M_create_nodeIJRKS2_EEEPSt13_Rb_tree_nodeIS2_EDpOT_
FNDA:0,_ZNSt8_Rb_treeIN5Nexus3rpc15SubscriptionKeyES2_St9_IdentityIS2_ESt4lessIS2_ESaIS2_EE14_M_create_nodeIJRKS2_EEEPSt13_Rb_tree_nodeIS2_EDpOT_
FN:609,_ZNSt8_Rb_treeINSt7__cxx1112basic_stringIcSt11char_traitsIcESaIcEEESt4pairIKS5_N5Nexus3rpc8NodeImpl16SubscriptionInfoEESt10_Select1stISC_ESt4lessIS5_ESaISC_EE14_M_create_nodeIJRKSt21piecewise_construct_tSt5tupleIJRS7_EESN_IJEEEEEPSt13_Rb_tree_nodeISC_EDpOT_
FNDA:16,_ZNSt8_Rb_treeINSt7__cxx1112basic_stringIcSt11char_traitsIcESaIcEEESt4pairIKS5_N5Nexus3rpc8NodeImpl16SubscriptionInfoEESt10_Select1stISC_ESt4lessIS5_ESaISC_EE14_M_create_nodeIJRKSt21piecewise_construct_tSt5tupleIJRS7_EESN_IJEEEEEPSt13_Rb_tree_nodeISC_EDpOT_
FN:609,_ZNSt8_Rb_treeINSt7__cxx1112basic_stringIcSt11char_traitsIcESaIcEEESt4pairIKS5_St10shared_ptrIN5Nexus3rpc16LargeDataChannelEEESt10_Select1stISD_ESt4lessIS5_ESaISD_EE14_M_create_nodeIJRKSt21piecewise_construct_tSt5tupleIJRS7_EESO_IJEEEEEPSt13_Rb_tree_nodeISD_EDpOT_
FNDA:0,_ZNSt8_Rb_treeINSt7__cxx1112basic_stringIcSt11char_traitsIcESaIcEEESt4pairIKS5_St10shared_ptrIN5Nexus3rpc16LargeDataChannelEEESt10_Select1stISD_ESt4lessIS5_ESaISD_EE14_M_create_nodeIJRKSt21piecewise_construct_tSt5tupleIJRS7_EESO_IJEEEEEPSt13_Rb_tree_nodeISD_EDpOT_
FN:609,_ZNSt8_Rb_treeINSt7__cxx1112basic_stringIcSt11char_traitsIcESaIcEEES5_St9_IdentityIS5_ESt4lessIS5_ESaIS5_EE14_M_create_nodeIJRKS5_EEEPSt13_Rb_tree_nodeIS5_EDpOT_
FNDA:20,_ZNSt8_Rb_treeINSt7__cxx1112basic_stringIcSt11char_traitsIcESaIcEEES5_St9_IdentityIS5_ESt4lessIS5_ESaIS5_EE14_M_create_nodeIJRKS5_EEEPSt13_Rb_tree_nodeIS5_EDpOT_
FN:609,_ZNSt8_Rb_treeINSt7__cxx1112basic_stringIcSt11char_traitsIcESaIcEEES5_St9_IdentityIS5_ESt4lessIS5_ESaIS5_EE14_M_create_nodeIJRS5_EEEPSt13_Rb_tree_nodeIS5_EDpOT_
FNDA:10,_ZNSt8_Rb_treeINSt7__cxx1112basic_stringIcSt11char_traitsIcESaIcEEES5_St9_IdentityIS5_ESt4lessIS5_ESaIS5_EE14_M_create_nodeIJRS5_EEEPSt13_Rb_tree_nodeIS5_EDpOT_
FN:609,_ZNSt8_Rb_treeINSt7__cxx1112basic_stringIcSt11char_traitsIcESaIcEEES5_St9_IdentityIS5_ESt4lessIS5_ESaIS5_EE14_M_create_nodeIJS5_EEEPSt13_Rb_tree_nodeIS5_EDpOT_
FNDA:10,_ZNSt8_Rb_treeINSt7__cxx1112basic_stringIcSt11char_traitsIcESaIcEEES5_St9_IdentityIS5_ESt4lessIS5_ESaIS5_EE14_M_create_nodeIJS5_EEEPSt13_Rb_tree_nodeIS5_EDpOT_
FN:609,_ZNSt8_Rb_treeINSt7__cxx1112basic_stringIcSt11char_traitsIcESaIcEEESt4pairIKS5_N5Nexus3rpc8NodeImpl14RemoteNodeInfoEESt10_Select1stISC_ESt4lessIS5_ESaISC_EE14_M_create_nodeIJRKSt21piecewise_construct_tSt5tupleIJRS7_EESN_IJEEEEEPSt13_Rb_tree_nodeISC_EDpOT_
FNDA:2,_ZNSt8_Rb_treeINSt7__cxx1112basic_stringIcSt11char_traitsIcESaIcEEESt4pairIKS5_N5Nexus3rpc8NodeImpl14RemoteNodeInfoEESt10_Select1stISC_ESt4lessIS5_ESaISC_EE14_M_create_nodeIJRKSt21piecewise_construct_tSt5tupleIJRS7_EESN_IJEEEEEPSt13_Rb_tree_nodeISC_EDpOT_
FN:618,_ZNSt8_Rb_treeINSt7__cxx1112basic_stringIcSt11char_traitsIcESaIcEEES5_St9_IdentityIS5_ESt4lessIS5_ESaIS5_EE15_M_destroy_nodeEPSt13_Rb_tree_nodeIS5_E
FNDA:40,_ZNSt8_Rb_treeINSt7__cxx1112basic_stringIcSt11char_traitsIcESaIcEEES5_St9_IdentityIS5_ESt4lessIS5_ESaIS5_EE15_M_destroy_nodeEPSt13_Rb_tree_nodeIS5_E
FN:618,_ZNSt8_Rb_treeIN5Nexus3rpc15SubscriptionKeyES2_St9_IdentityIS2_ESt4lessIS2_ESaIS2_EE15_M_destroy_nodeEPSt13_Rb_tree_nodeIS2_E
FNDA:0,_ZNSt8_Rb_treeIN5Nexus3rpc15SubscriptionKeyES2_St9_IdentityIS2_ESt4lessIS2_ESaIS2_EE15_M_destroy_nodeEPSt13_Rb_tree_nodeIS2_E
FN:618,_ZNSt8_Rb_treeINSt7__cxx1112basic_stringIcSt11char_traitsIcESaIcEEESt4pairIKS5_St10shared_ptrIN5Nexus3rpc16LargeDataChannelEEESt10_Select1stISD_ESt4lessIS5_ESaISD_EE15_M_destroy_nodeEPSt13_Rb_tree_nodeISD_E
FNDA:0,_ZNSt8_Rb_treeINSt7__cxx1112basic_stringIcSt11char_traitsIcESaIcEEESt4pairIKS5_St10shared_ptrIN5Nexus3rpc16LargeDataChannelEEESt10_Select1stISD_ESt4lessIS5_ESaISD_EE15_M_destroy_nodeEPSt13_Rb_tree_nodeISD_E
FN:618,_ZNSt8_Rb_treeINSt7__cxx1112basic_stringIcSt11char_traitsIcESaIcEEESt4pairIKS5_N5Nexus3rpc8NodeImpl14RemoteNodeInfoEESt10_Select1stISC_ESt4lessIS5_ESaISC_EE15_M_destroy_nodeEPSt13_Rb_tree_nodeISC_E
FNDA:2,_ZNSt8_Rb_treeINSt7__cxx1112basic_stringIcSt11char_traitsIcESaIcEEESt4pairIKS5_N5Nexus3rpc8NodeImpl14RemoteNodeInfoEESt10_Select1stISC_ESt4lessIS5_ESaISC_EE15_M_destroy_nodeEPSt13_Rb_tree_nodeISC_E
FN:618,_ZNSt8_Rb_treeINSt7__cxx1112basic_stringIcSt11char_traitsIcESaIcEEESt4pairIKS5_N5Nexus3rpc8NodeImpl16SubscriptionInfoEESt10_Select1stISC_ESt4lessIS5_ESaISC_EE15_M_destroy_nodeEPSt13_Rb_tree_nodeISC_E
FNDA:16,_ZNSt8_Rb_treeINSt7__cxx1112basic_stringIcSt11char_traitsIcESaIcEEESt4pairIKS5_N5Nexus3rpc8NodeImpl16SubscriptionInfoEESt10_Select1stISC_ESt4lessIS5_ESaISC_EE15_M_destroy_nodeEPSt13_Rb_tree_nodeISC_E
FN:629,_ZNSt8_Rb_treeIN5Nexus3rpc15SubscriptionKeyES2_St9_IdentityIS2_ESt4lessIS2_ESaIS2_EE12_M_drop_nodeEPSt13_Rb_tree_nodeIS2_E
FNDA:0,_ZNSt8_Rb_treeIN5Nexus3rpc15SubscriptionKeyES2_St9_IdentityIS2_ESt4lessIS2_ESaIS2_EE12_M_drop_nodeEPSt13_Rb_tree_nodeIS2_E
FN:629,_ZNSt8_Rb_treeINSt7__cxx1112basic_stringIcSt11char_traitsIcESaIcEEES5_St9_IdentityIS5_ESt4lessIS5_ESaIS5_EE12_M_drop_nodeEPSt13_Rb_tree_nodeIS5_E
FNDA:40,_ZNSt8_Rb_treeINSt7__cxx1112basic_stringIcSt11char_traitsIcESaIcEEES5_St9_IdentityIS5_ESt4lessIS5_ESaIS5_EE12_M_drop_nodeEPSt13_Rb_tree_nodeIS5_E
FN:629,_ZNSt8_Rb_treeINSt7__cxx1112basic_stringIcSt11char_traitsIcESaIcEEESt4pairIKS5_St10shared_ptrIN5Nexus3rpc16LargeDataChannelEEESt10_Select1stISD_ESt4lessIS5_ESaISD_EE12_M_drop_nodeEPSt13_Rb_tree_nodeISD_E
FNDA:0,_ZNSt8_Rb_treeINSt7__cxx1112basic_stringIcSt11char_traitsIcESaIcEEESt4pairIKS5_St10shared_ptrIN5Nexus3rpc16LargeDataChannelEEESt10_Select1stISD_ESt4lessIS5_ESaISD_EE12_M_drop_nodeEPSt13_Rb_tree_nodeISD_E
